(dp0
cnumpy.core.multiarray
scalar
p1
(cnumpy
dtype
p2
(S'i8'
p3
I0
I1
tp4
Rp5
(I3
S'<'
p6
NNNI-1
I-1
I0
tp7
bS'\x00\x00\x00\x00\x00\x00\x00\x00'
p8
tp9
Rp10
(lp11
((lp12
g1
(g2
(S'f8'
p13
I0
I1
tp14
Rp15
(I3
S'<'
p16
NNNI-1
I-1
I0
tp17
bS'\x00\x00\x00\x80\x13^\xd4?'
p18
tp19
Rp20
tp21
a((lp22
I6
acnumpy.core.multiarray
_reconstruct
p23
(cnumpy
ndarray
p24
(I0
tp25
S'b'
p26
tp27
Rp28
(I1
(I1
tp29
g2
(S'f4'
p30
I0
I1
tp31
Rp32
(I3
S'<'
p33
NNNI-1
I-1
I0
tp34
bI00
S'\xb99\xbc='
p35
tp36
btp37
a((lp38
I6
ag23
(g24
(I0
tp39
g26
tp40
Rp41
(I1
(I1
tp42
g32
I00
S'\xf9 \xaf='
p43
tp44
btp45
a((lp46
I9
ag23
(g24
(I0
tp47
g26
tp48
Rp49
(I1
(I1
tp50
g32
I00
S'\xf94\n='
p51
tp52
btp53
a((lp54
I3
ag23
(g24
(I0
tp55
g26
tp56
Rp57
(I1
(I1
tp58
g32
I00
S'\x12\x88\xd1<'
p59
tp60
btp61
a((lp62
I6
aI6
ag23
(g24
(I0
tp63
g26
tp64
Rp65
(I1
(I1
tp66
g32
I00
S'\xe7\x8b\xcb<'
p67
tp68
btp69
a((lp70
I0
ag23
(g24
(I0
tp71
g26
tp72
Rp73
(I1
(I1
tp74
g32
I00
S'^\x01\xc9<'
p75
tp76
btp77
a((lp78
I11
ag23
(g24
(I0
tp79
g26
tp80
Rp81
(I1
(I1
tp82
g32
I00
S'\x1d7\xb9<'
p83
tp84
btp85
a((lp86
I5
ag23
(g24
(I0
tp87
g26
tp88
Rp89
(I1
(I1
tp90
g32
I00
S'\x82\x8b\xb6<'
p91
tp92
btp93
a((lp94
I12
ag23
(g24
(I0
tp95
g26
tp96
Rp97
(I1
(I1
tp98
g32
I00
S'\xd4\xb7\xa7<'
p99
tp100
btp101
a((lp102
I10
ag23
(g24
(I0
tp103
g26
tp104
Rp105
(I1
(I1
tp106
g32
I00
S'\xfa\x08\x9e<'
p107
tp108
btp109
a((lp110
I1
ag23
(g24
(I0
tp111
g26
tp112
Rp113
(I1
(I1
tp114
g32
I00
S'\x97\xd9\x87<'
p115
tp116
btp117
a((lp118
I13
ag23
(g24
(I0
tp119
g26
tp120
Rp121
(I1
(I1
tp122
g32
I00
S'\xf0\xc8\x85<'
p123
tp124
btp125
a((lp126
I2
ag23
(g24
(I0
tp127
g26
tp128
Rp129
(I1
(I1
tp130
g32
I00
S'.H\x84<'
p131
tp132
btp133
a((lp134
I9
ag23
(g24
(I0
tp135
g26
tp136
Rp137
(I1
(I1
tp138
g32
I00
S'1~o<'
p139
tp140
btp141
a((lp142
I7
ag23
(g24
(I0
tp143
g26
tp144
Rp145
(I1
(I1
tp146
g32
I00
S'\xd5\xa5\\<'
p147
tp148
btp149
a((lp150
I8
ag23
(g24
(I0
tp151
g26
tp152
Rp153
(I1
(I1
tp154
g32
I00
S'\xfe\x1cM<'
p155
tp156
btp157
asg1
(g5
S'\x02\x00\x00\x00\x00\x00\x00\x00'
p158
tp159
Rp160
(lp161
((lp162
g1
(g15
S'\x00\x00\x00\x80\x8b\xd9\xd4?'
p163
tp164
Rp165
tp166
a((lp167
I0
ag23
(g24
(I0
tp168
g26
tp169
Rp170
(I1
(I1
tp171
g32
I00
S'\x85\xbc\x07='
p172
tp173
btp174
a((lp175
I9
ag23
(g24
(I0
tp176
g26
tp177
Rp178
(I1
(I1
tp179
g32
I00
S'P\xb9\x01='
p180
tp181
btp182
a((lp183
I2
ag23
(g24
(I0
tp184
g26
tp185
Rp186
(I1
(I1
tp187
g32
I00
S'^\xa3\xf8<'
p188
tp189
btp190
a((lp191
I12
ag23
(g24
(I0
tp192
g26
tp193
Rp194
(I1
(I1
tp195
g32
I00
S'*\xe7\xd5<'
p196
tp197
btp198
a((lp199
I5
ag23
(g24
(I0
tp200
g26
tp201
Rp202
(I1
(I1
tp203
g32
I00
S'z\xa6\xcb<'
p204
tp205
btp206
a((lp207
I6
ag23
(g24
(I0
tp208
g26
tp209
Rp210
(I1
(I1
tp211
g32
I00
S'\xfc\xfa\xc7<'
p212
tp213
btp214
a((lp215
I3
ag23
(g24
(I0
tp216
g26
tp217
Rp218
(I1
(I1
tp219
g32
I00
S'\x17_\xc3<'
p220
tp221
btp222
a((lp223
I1
ag23
(g24
(I0
tp224
g26
tp225
Rp226
(I1
(I1
tp227
g32
I00
S'\xfc\xc2\xbe<'
p228
tp229
btp230
a((lp231
I0
ag23
(g24
(I0
tp232
g26
tp233
Rp234
(I1
(I1
tp235
g32
I00
S'\xaa4\xb2<'
p236
tp237
btp238
a((lp239
I7
ag23
(g24
(I0
tp240
g26
tp241
Rp242
(I1
(I1
tp243
g32
I00
S'\xd7\xdb\xae<'
p244
tp245
btp246
a((lp247
I11
ag23
(g24
(I0
tp248
g26
tp249
Rp250
(I1
(I1
tp251
g32
I00
S'\xf2\xad\xa3<'
p252
tp253
btp254
a((lp255
I10
ag23
(g24
(I0
tp256
g26
tp257
Rp258
(I1
(I1
tp259
g32
I00
S',\\\xa1<'
p260
tp261
btp262
a((lp263
I13
ag23
(g24
(I0
tp264
g26
tp265
Rp266
(I1
(I1
tp267
g32
I00
S'j\xc1\x97<'
p268
tp269
btp270
a((lp271
I9
ag23
(g24
(I0
tp272
g26
tp273
Rp274
(I1
(I1
tp275
g32
I00
S'\x98\xf4\x96<'
p276
tp277
btp278
a((lp279
I4
ag23
(g24
(I0
tp280
g26
tp281
Rp282
(I1
(I1
tp283
g32
I00
S'[\xc6\x96<'
p284
tp285
btp286
a((lp287
I8
ag23
(g24
(I0
tp288
g26
tp289
Rp290
(I1
(I1
tp291
g32
I00
S'\x0f\x00\x90<'
p292
tp293
btp294
a((lp295
I2
ag23
(g24
(I0
tp296
g26
tp297
Rp298
(I1
(I1
tp299
g32
I00
S'0F\x8e<'
p300
tp301
btp302
a((lp303
I12
ag23
(g24
(I0
tp304
g26
tp305
Rp306
(I1
(I1
tp307
g32
I00
S'\xaa\x8eg<'
p308
tp309
btp310
a((lp311
I5
ag23
(g24
(I0
tp312
g26
tp313
Rp314
(I1
(I1
tp315
g32
I00
S'\x7f\xd8M<'
p316
tp317
btp318
a((lp319
I6
ag23
(g24
(I0
tp320
g26
tp321
Rp322
(I1
(I1
tp323
g32
I00
S'(\xc8C<'
p324
tp325
btp326
a((lp327
I1
ag23
(g24
(I0
tp328
g26
tp329
Rp330
(I1
(I1
tp331
g32
I00
S'\x87\xb3?<'
p332
tp333
btp334
a((lp335
I3
ag23
(g24
(I0
tp336
g26
tp337
Rp338
(I1
(I1
tp339
g32
I00
S'.[?<'
p340
tp341
btp342
asg1
(g5
S'\x04\x00\x00\x00\x00\x00\x00\x00'
p343
tp344
Rp345
(lp346
((lp347
g1
(g15
S'\x00\x00\x00\xe0\xbf\xb2\xd4?'
p348
tp349
Rp350
tp351
a((lp352
I2
ag23
(g24
(I0
tp353
g26
tp354
Rp355
(I1
(I1
tp356
g32
I00
S'\xc2\x9f\x81='
p357
tp358
btp359
a((lp360
I2
ag23
(g24
(I0
tp361
g26
tp362
Rp363
(I1
(I1
tp364
g32
I00
S'\xe3\x8b{='
p365
tp366
btp367
a((lp368
I7
ag23
(g24
(I0
tp369
g26
tp370
Rp371
(I1
(I1
tp372
g32
I00
S'+\x0f\xd9<'
p373
tp374
btp375
a((lp376
I9
ag23
(g24
(I0
tp377
g26
tp378
Rp379
(I1
(I1
tp380
g32
I00
S'\x8af\xcd<'
p381
tp382
btp383
a((lp384
I8
ag23
(g24
(I0
tp385
g26
tp386
Rp387
(I1
(I1
tp388
g32
I00
S'#\xbb\xc0<'
p389
tp390
btp391
a((lp392
I5
ag23
(g24
(I0
tp393
g26
tp394
Rp395
(I1
(I1
tp396
g32
I00
S'\xdd\xc1\xbb<'
p397
tp398
btp399
a((lp400
I11
ag23
(g24
(I0
tp401
g26
tp402
Rp403
(I1
(I1
tp404
g32
I00
S'\x0e\xe4\xb7<'
p405
tp406
btp407
a((lp408
I3
ag23
(g24
(I0
tp409
g26
tp410
Rp411
(I1
(I1
tp412
g32
I00
S' <\xb2<'
p413
tp414
btp415
a((lp416
I12
ag23
(g24
(I0
tp417
g26
tp418
Rp419
(I1
(I1
tp420
g32
I00
S'4\xdd\xae<'
p421
tp422
btp423
a((lp424
I1
ag23
(g24
(I0
tp425
g26
tp426
Rp427
(I1
(I1
tp428
g32
I00
S'\xad{\xad<'
p429
tp430
btp431
a((lp432
I10
ag23
(g24
(I0
tp433
g26
tp434
Rp435
(I1
(I1
tp436
g32
I00
S'\x07/\xa8<'
p437
tp438
btp439
a((lp440
I13
ag23
(g24
(I0
tp441
g26
tp442
Rp443
(I1
(I1
tp444
g32
I00
S'\xe21\x93<'
p445
tp446
btp447
a((lp448
I0
ag23
(g24
(I0
tp449
g26
tp450
Rp451
(I1
(I1
tp452
g32
I00
S'\x92\x0e\x93<'
p453
tp454
btp455
a((lp456
I4
ag23
(g24
(I0
tp457
g26
tp458
Rp459
(I1
(I1
tp460
g32
I00
S'\xeb\xd0\x86<'
p461
tp462
btp463
a((lp464
I6
ag23
(g24
(I0
tp465
g26
tp466
Rp467
(I1
(I1
tp468
g32
I00
S',\xb5s<'
p469
tp470
btp471
a((lp472
I7
ag23
(g24
(I0
tp473
g26
tp474
Rp475
(I1
(I1
tp476
g32
I00
S'\x15;G<'
p477
tp478
btp479
a((lp480
I2
aI2
ag23
(g24
(I0
tp481
g26
tp482
Rp483
(I1
(I1
tp484
g32
I00
S'\xae\x83F<'
p485
tp486
btp487
a((lp488
I9
ag23
(g24
(I0
tp489
g26
tp490
Rp491
(I1
(I1
tp492
g32
I00
S'\xda\xb8)<'
p493
tp494
btp495
asg1
(g5
S'\x06\x00\x00\x00\x00\x00\x00\x00'
p496
tp497
Rp498
(lp499
((lp500
g1
(g15
S'\x00\x00\x00 I\x1e\xd4?'
p501
tp502
Rp503
tp504
a((lp505
I0
ag23
(g24
(I0
tp506
g26
tp507
Rp508
(I1
(I1
tp509
g32
I00
S'S\x04\xeb='
p510
tp511
btp512
a((lp513
I0
ag23
(g24
(I0
tp514
g26
tp515
Rp516
(I1
(I1
tp517
g32
I00
S'![\xd9='
p518
tp519
btp520
a((lp521
I0
aI0
ag23
(g24
(I0
tp522
g26
tp523
Rp524
(I1
(I1
tp525
g32
I00
S'\xbfF\x1f='
p526
tp527
btp528
a((lp529
I5
ag23
(g24
(I0
tp530
g26
tp531
Rp532
(I1
(I1
tp533
g32
I00
S')/\xe4<'
p534
tp535
btp536
a((lp537
I9
ag23
(g24
(I0
tp538
g26
tp539
Rp540
(I1
(I1
tp541
g32
I00
S'w\xa5\xc0<'
p542
tp543
btp544
a((lp545
I2
ag23
(g24
(I0
tp546
g26
tp547
Rp548
(I1
(I1
tp549
g32
I00
S'\xaa\xa1\xbc<'
p550
tp551
btp552
a((lp553
I12
ag23
(g24
(I0
tp554
g26
tp555
Rp556
(I1
(I1
tp557
g32
I00
S'\x14\x88\xb4<'
p558
tp559
btp560
a((lp561
I11
ag23
(g24
(I0
tp562
g26
tp563
Rp564
(I1
(I1
tp565
g32
I00
S'\xbf\x94\xa7<'
p566
tp567
btp568
a((lp569
I7
ag23
(g24
(I0
tp570
g26
tp571
Rp572
(I1
(I1
tp573
g32
I00
S'\xd4d\x91<'
p574
tp575
btp576
a((lp577
I3
ag23
(g24
(I0
tp578
g26
tp579
Rp580
(I1
(I1
tp581
g32
I00
S'2\xaf\x90<'
p582
tp583
btp584
a((lp585
I10
ag23
(g24
(I0
tp586
g26
tp587
Rp588
(I1
(I1
tp589
g32
I00
S'eHr<'
p590
tp591
btp592
a((lp593
I13
ag23
(g24
(I0
tp594
g26
tp595
Rp596
(I1
(I1
tp597
g32
I00
S'\x96\x18n<'
p598
tp599
btp600
a((lp601
I6
ag23
(g24
(I0
tp602
g26
tp603
Rp604
(I1
(I1
tp605
g32
I00
S'\x0c\xb3\\<'
p606
tp607
btp608
a((lp609
I8
ag23
(g24
(I0
tp610
g26
tp611
Rp612
(I1
(I1
tp613
g32
I00
S']\x96X<'
p614
tp615
btp616
a((lp617
I1
ag23
(g24
(I0
tp618
g26
tp619
Rp620
(I1
(I1
tp621
g32
I00
S'\xde2S<'
p622
tp623
btp624
a((lp625
I4
ag23
(g24
(I0
tp626
g26
tp627
Rp628
(I1
(I1
tp629
g32
I00
S'@\xb3><'
p630
tp631
btp632
a((lp633
I5
aI0
ag23
(g24
(I0
tp634
g26
tp635
Rp636
(I1
(I1
tp637
g32
I00
S"\x126'<"
p638
tp639
btp640
asg1
(g5
S'\x07\x00\x00\x00\x00\x00\x00\x00'
p641
tp642
Rp643
(lp644
((lp645
g1
(g15
S'\x00\x00\x00@\xfd[\xd4?'
p646
tp647
Rp648
tp649
a((lp650
I13
ag23
(g24
(I0
tp651
g26
tp652
Rp653
(I1
(I1
tp654
g32
I00
S'\xb5G\xbf='
p655
tp656
btp657
a((lp658
I13
ag23
(g24
(I0
tp659
g26
tp660
Rp661
(I1
(I1
tp662
g32
I00
S'P\x16\xaf='
p663
tp664
btp665
a((lp666
I13
aI13
ag23
(g24
(I0
tp667
g26
tp668
Rp669
(I1
(I1
tp670
g32
I00
S'\x06\xe7\xce<'
p671
tp672
btp673
a((lp674
I11
ag23
(g24
(I0
tp675
g26
tp676
Rp677
(I1
(I1
tp678
g32
I00
S'\xe9\xea\xc7<'
p679
tp680
btp681
a((lp682
I8
ag23
(g24
(I0
tp683
g26
tp684
Rp685
(I1
(I1
tp686
g32
I00
S'\xb9"\xba<'
p687
tp688
btp689
a((lp690
I6
ag23
(g24
(I0
tp691
g26
tp692
Rp693
(I1
(I1
tp694
g32
I00
S'\x90\xb3\xb9<'
p695
tp696
btp697
a((lp698
I12
ag23
(g24
(I0
tp699
g26
tp700
Rp701
(I1
(I1
tp702
g32
I00
S'\xc8(\xb7<'
p703
tp704
btp705
a((lp706
I0
ag23
(g24
(I0
tp707
g26
tp708
Rp709
(I1
(I1
tp710
g32
I00
S'\x89Q\xae<'
p711
tp712
btp713
a((lp714
I10
ag23
(g24
(I0
tp715
g26
tp716
Rp717
(I1
(I1
tp718
g32
I00
S'\xd1?\xad<'
p719
tp720
btp721
a((lp722
I5
ag23
(g24
(I0
tp723
g26
tp724
Rp725
(I1
(I1
tp726
g32
I00
S'\xe1\xe4\x9e<'
p727
tp728
btp729
a((lp730
I9
ag23
(g24
(I0
tp731
g26
tp732
Rp733
(I1
(I1
tp734
g32
I00
S'\xfbT\x9e<'
p735
tp736
btp737
a((lp738
I2
ag23
(g24
(I0
tp739
g26
tp740
Rp741
(I1
(I1
tp742
g32
I00
S'\xe6\x98\x87<'
p743
tp744
btp745
a((lp746
I4
ag23
(g24
(I0
tp747
g26
tp748
Rp749
(I1
(I1
tp750
g32
I00
S'g\xdb\x86<'
p751
tp752
btp753
a((lp754
I7
ag23
(g24
(I0
tp755
g26
tp756
Rp757
(I1
(I1
tp758
g32
I00
S'\xe5\xc9\x7f<'
p759
tp760
btp761
a((lp762
I1
ag23
(g24
(I0
tp763
g26
tp764
Rp765
(I1
(I1
tp766
g32
I00
S'\xcc~\x7f<'
p767
tp768
btp769
a((lp770
I3
ag23
(g24
(I0
tp771
g26
tp772
Rp773
(I1
(I1
tp774
g32
I00
S'\x85\xabz<'
p775
tp776
btp777
asg1
(g5
S'\t\x00\x00\x00\x00\x00\x00\x00'
p778
tp779
Rp780
(lp781
((lp782
g1
(g15
S'\x00\x00\x00\xc0G\xd1\xd4?'
p783
tp784
Rp785
tp786
a((lp787
I9
ag23
(g24
(I0
tp788
g26
tp789
Rp790
(I1
(I1
tp791
g32
I00
S'\xe5!\xf3<'
p792
tp793
btp794
a((lp795
I5
ag23
(g24
(I0
tp796
g26
tp797
Rp798
(I1
(I1
tp799
g32
I00
S'Sq\xef<'
p800
tp801
btp802
a((lp803
I0
ag23
(g24
(I0
tp804
g26
tp805
Rp806
(I1
(I1
tp807
g32
I00
S'\xd5\x12\xe8<'
p808
tp809
btp810
a((lp811
I6
ag23
(g24
(I0
tp812
g26
tp813
Rp814
(I1
(I1
tp815
g32
I00
S'\xfc[\xda<'
p816
tp817
btp818
a((lp819
I10
ag23
(g24
(I0
tp820
g26
tp821
Rp822
(I1
(I1
tp823
g32
I00
S'\xb2k\xd7<'
p824
tp825
btp826
a((lp827
I2
ag23
(g24
(I0
tp828
g26
tp829
Rp830
(I1
(I1
tp831
g32
I00
S'.\xa3\xd5<'
p832
tp833
btp834
a((lp835
I7
ag23
(g24
(I0
tp836
g26
tp837
Rp838
(I1
(I1
tp839
g32
I00
S'd0\xce<'
p840
tp841
btp842
a((lp843
I3
ag23
(g24
(I0
tp844
g26
tp845
Rp846
(I1
(I1
tp847
g32
I00
S' V\xcc<'
p848
tp849
btp850
a((lp851
I1
ag23
(g24
(I0
tp852
g26
tp853
Rp854
(I1
(I1
tp855
g32
I00
S'\x92\xc2\xbb<'
p856
tp857
btp858
a((lp859
I11
ag23
(g24
(I0
tp860
g26
tp861
Rp862
(I1
(I1
tp863
g32
I00
S'\x90"\xaf<'
p864
tp865
btp866
a((lp867
I4
ag23
(g24
(I0
tp868
g26
tp869
Rp870
(I1
(I1
tp871
g32
I00
S'\xa29\xad<'
p872
tp873
btp874
a((lp875
I13
ag23
(g24
(I0
tp876
g26
tp877
Rp878
(I1
(I1
tp879
g32
I00
S'\x03\xa6\x9b<'
p880
tp881
btp882
a((lp883
I12
ag23
(g24
(I0
tp884
g26
tp885
Rp886
(I1
(I1
tp887
g32
I00
S'<\xa8\x8f<'
p888
tp889
btp890
a((lp891
I9
ag23
(g24
(I0
tp892
g26
tp893
Rp894
(I1
(I1
tp895
g32
I00
S'\x06@\x8b<'
p896
tp897
btp898
a((lp899
I0
ag23
(g24
(I0
tp900
g26
tp901
Rp902
(I1
(I1
tp903
g32
I00
S'\xec\x00\x88<'
p904
tp905
btp906
a((lp907
I5
ag23
(g24
(I0
tp908
g26
tp909
Rp910
(I1
(I1
tp911
g32
I00
S'\x02\xe1\x84<'
p912
tp913
btp914
a((lp915
I8
ag23
(g24
(I0
tp916
g26
tp917
Rp918
(I1
(I1
tp919
g32
I00
S'\x0e\xd1~<'
p920
tp921
btp922
a((lp923
I6
ag23
(g24
(I0
tp924
g26
tp925
Rp926
(I1
(I1
tp927
g32
I00
S"u'g<"
p928
tp929
btp930
a((lp931
I10
ag23
(g24
(I0
tp932
g26
tp933
Rp934
(I1
(I1
tp935
g32
I00
S'\x00\xe5`<'
p936
tp937
btp938
a((lp939
I2
ag23
(g24
(I0
tp940
g26
tp941
Rp942
(I1
(I1
tp943
g32
I00
S'\xb5\xfb^<'
p944
tp945
btp946
a((lp947
I3
ag23
(g24
(I0
tp948
g26
tp949
Rp950
(I1
(I1
tp951
g32
I00
S'\xfd\xdfV<'
p952
tp953
btp954
a((lp955
I7
ag23
(g24
(I0
tp956
g26
tp957
Rp958
(I1
(I1
tp959
g32
I00
S'\xdcOM<'
p960
tp961
btp962
a((lp963
I1
ag23
(g24
(I0
tp964
g26
tp965
Rp966
(I1
(I1
tp967
g32
I00
S'\x08\x158<'
p968
tp969
btp970
asg1
(g5
S'\x0b\x00\x00\x00\x00\x00\x00\x00'
p971
tp972
Rp973
(lp974
((lp975
g1
(g15
S'\x00\x00\x00 t\xd5\xd4?'
p976
tp977
Rp978
tp979
a((lp980
I9
ag23
(g24
(I0
tp981
g26
tp982
Rp983
(I1
(I1
tp984
g32
I00
S"\x14'%="
p985
tp986
btp987
a((lp988
I9
ag23
(g24
(I0
tp989
g26
tp990
Rp991
(I1
(I1
tp992
g32
I00
S'\xa3\xba\xf4<'
p993
tp994
btp995
a((lp996
I6
ag23
(g24
(I0
tp997
g26
tp998
Rp999
(I1
(I1
tp1000
g32
I00
S'<\xcb\xe0<'
p1001
tp1002
btp1003
a((lp1004
I3
ag23
(g24
(I0
tp1005
g26
tp1006
Rp1007
(I1
(I1
tp1008
g32
I00
S'\x91l\xdb<'
p1009
tp1010
btp1011
a((lp1012
I5
ag23
(g24
(I0
tp1013
g26
tp1014
Rp1015
(I1
(I1
tp1016
g32
I00
S'\x9c\n\xd2<'
p1017
tp1018
btp1019
a((lp1020
I1
ag23
(g24
(I0
tp1021
g26
tp1022
Rp1023
(I1
(I1
tp1024
g32
I00
S'\xea\xff\xc8<'
p1025
tp1026
btp1027
a((lp1028
I10
ag23
(g24
(I0
tp1029
g26
tp1030
Rp1031
(I1
(I1
tp1032
g32
I00
S'oO\xc1<'
p1033
tp1034
btp1035
a((lp1036
I11
ag23
(g24
(I0
tp1037
g26
tp1038
Rp1039
(I1
(I1
tp1040
g32
I00
S'\x10X\xbc<'
p1041
tp1042
btp1043
a((lp1044
I12
ag23
(g24
(I0
tp1045
g26
tp1046
Rp1047
(I1
(I1
tp1048
g32
I00
S'P;\xb9<'
p1049
tp1050
btp1051
a((lp1052
I0
ag23
(g24
(I0
tp1053
g26
tp1054
Rp1055
(I1
(I1
tp1056
g32
I00
S'\xc9\xfe\xb7<'
p1057
tp1058
btp1059
a((lp1060
I13
ag23
(g24
(I0
tp1061
g26
tp1062
Rp1063
(I1
(I1
tp1064
g32
I00
S'\x01\xb6\xb6<'
p1065
tp1066
btp1067
a((lp1068
I8
ag23
(g24
(I0
tp1069
g26
tp1070
Rp1071
(I1
(I1
tp1072
g32
I00
S'p\x89\xb2<'
p1073
tp1074
btp1075
a((lp1076
I7
ag23
(g24
(I0
tp1077
g26
tp1078
Rp1079
(I1
(I1
tp1080
g32
I00
S'$|\xaf<'
p1081
tp1082
btp1083
a((lp1084
I2
ag23
(g24
(I0
tp1085
g26
tp1086
Rp1087
(I1
(I1
tp1088
g32
I00
S'[\xc2\x8a<'
p1089
tp1090
btp1091
a((lp1092
I4
ag23
(g24
(I0
tp1093
g26
tp1094
Rp1095
(I1
(I1
tp1096
g32
I00
S'q\xe9\x82<'
p1097
tp1098
btp1099
a((lp1100
I6
ag23
(g24
(I0
tp1101
g26
tp1102
Rp1103
(I1
(I1
tp1104
g32
I00
S'\xb4\x0es<'
p1105
tp1106
btp1107
a((lp1108
I3
ag23
(g24
(I0
tp1109
g26
tp1110
Rp1111
(I1
(I1
tp1112
g32
I00
S'\\\xe9_<'
p1113
tp1114
btp1115
a((lp1116
I5
ag23
(g24
(I0
tp1117
g26
tp1118
Rp1119
(I1
(I1
tp1120
g32
I00
S'#fS<'
p1121
tp1122
btp1123
a((lp1124
I1
ag23
(g24
(I0
tp1125
g26
tp1126
Rp1127
(I1
(I1
tp1128
g32
I00
S'\xa0\x1cJ<'
p1129
tp1130
btp1131
a((lp1132
I10
ag23
(g24
(I0
tp1133
g26
tp1134
Rp1135
(I1
(I1
tp1136
g32
I00
S'\x91g=<'
p1137
tp1138
btp1139
a((lp1140
I11
ag23
(g24
(I0
tp1141
g26
tp1142
Rp1143
(I1
(I1
tp1144
g32
I00
S'\xbeo/<'
p1145
tp1146
btp1147
a((lp1148
I12
ag23
(g24
(I0
tp1149
g26
tp1150
Rp1151
(I1
(I1
tp1152
g32
I00
S'\xc5e&<'
p1153
tp1154
btp1155
asg1
(g5
S'\r\x00\x00\x00\x00\x00\x00\x00'
p1156
tp1157
Rp1158
(lp1159
((lp1160
g1
(g15
S'\x00\x00\x00\x80\xecf\xd4?'
p1161
tp1162
Rp1163
tp1164
a((lp1165
I7
ag23
(g24
(I0
tp1166
g26
tp1167
Rp1168
(I1
(I1
tp1169
g32
I00
S'\xbd(\xb8='
p1170
tp1171
btp1172
a((lp1173
I7
ag23
(g24
(I0
tp1174
g26
tp1175
Rp1176
(I1
(I1
tp1177
g32
I00
S'\xcf\xb0\xae='
p1178
tp1179
btp1180
a((lp1181
I11
ag23
(g24
(I0
tp1182
g26
tp1183
Rp1184
(I1
(I1
tp1185
g32
I00
S'\\\x13\xe7<'
p1186
tp1187
btp1188
a((lp1189
I10
ag23
(g24
(I0
tp1190
g26
tp1191
Rp1192
(I1
(I1
tp1193
g32
I00
S'\xee\xef\xdd<'
p1194
tp1195
btp1196
a((lp1197
I12
ag23
(g24
(I0
tp1198
g26
tp1199
Rp1200
(I1
(I1
tp1201
g32
I00
S"'\xd8\xca<"
p1202
tp1203
btp1204
a((lp1205
I7
aI7
ag23
(g24
(I0
tp1206
g26
tp1207
Rp1208
(I1
(I1
tp1209
g32
I00
S'\x80\x0c\xc8<'
p1210
tp1211
btp1212
a((lp1213
I5
ag23
(g24
(I0
tp1214
g26
tp1215
Rp1216
(I1
(I1
tp1217
g32
I00
S'j\xb8\xc4<'
p1218
tp1219
btp1220
a((lp1221
I2
ag23
(g24
(I0
tp1222
g26
tp1223
Rp1224
(I1
(I1
tp1225
g32
I00
S'\xedy\xb6<'
p1226
tp1227
btp1228
a((lp1229
I0
ag23
(g24
(I0
tp1230
g26
tp1231
Rp1232
(I1
(I1
tp1233
g32
I00
S'\x1a\xab\xa7<'
p1234
tp1235
btp1236
a((lp1237
I8
ag23
(g24
(I0
tp1238
g26
tp1239
Rp1240
(I1
(I1
tp1241
g32
I00
S'\x90~\x9c<'
p1242
tp1243
btp1244
a((lp1245
I9
ag23
(g24
(I0
tp1246
g26
tp1247
Rp1248
(I1
(I1
tp1249
g32
I00
S'X[\x96<'
p1250
tp1251
btp1252
a((lp1253
I3
ag23
(g24
(I0
tp1254
g26
tp1255
Rp1256
(I1
(I1
tp1257
g32
I00
S'\x0f-\x93<'
p1258
tp1259
btp1260
a((lp1261
I4
ag23
(g24
(I0
tp1262
g26
tp1263
Rp1264
(I1
(I1
tp1265
g32
I00
S'b\xaf{<'
p1266
tp1267
btp1268
a((lp1269
I6
ag23
(g24
(I0
tp1270
g26
tp1271
Rp1272
(I1
(I1
tp1273
g32
I00
S'\x84\xcbi<'
p1274
tp1275
btp1276
a((lp1277
I1
ag23
(g24
(I0
tp1278
g26
tp1279
Rp1280
(I1
(I1
tp1281
g32
I00
S'IP[<'
p1282
tp1283
btp1284
a((lp1285
I11
ag23
(g24
(I0
tp1286
g26
tp1287
Rp1288
(I1
(I1
tp1289
g32
I00
S"\xcb\xeb'<"
p1290
tp1291
btp1292
as.