(dp0
cnumpy.core.multiarray
scalar
p1
(cnumpy
dtype
p2
(S'i8'
p3
I0
I1
tp4
Rp5
(I3
S'<'
p6
NNNI-1
I-1
I0
tp7
bS'\x00\x00\x00\x00\x00\x00\x00\x00'
p8
tp9
Rp10
(lp11
((lp12
g1
(g2
(S'f8'
p13
I0
I1
tp14
Rp15
(I3
S'<'
p16
NNNI-1
I-1
I0
tp17
bS'\x00\x00\x00\xa0\xf8F\xd4?'
p18
tp19
Rp20
tp21
a((lp22
I17
acnumpy.core.multiarray
_reconstruct
p23
(cnumpy
ndarray
p24
(I0
tp25
S'b'
p26
tp27
Rp28
(I1
(I1
tp29
g2
(S'f4'
p30
I0
I1
tp31
Rp32
(I3
S'<'
p33
NNNI-1
I-1
I0
tp34
bI00
S'\n0a='
p35
tp36
btp37
a((lp38
I17
ag23
(g24
(I0
tp39
g26
tp40
Rp41
(I1
(I1
tp42
g32
I00
S'\xb6\x9dM='
p43
tp44
btp45
a((lp46
I0
ag23
(g24
(I0
tp47
g26
tp48
Rp49
(I1
(I1
tp50
g32
I00
S'\x89-G='
p51
tp52
btp53
a((lp54
I0
ag23
(g24
(I0
tp55
g26
tp56
Rp57
(I1
(I1
tp58
g32
I00
S'\xe9\xa1/='
p59
tp60
btp61
a((lp62
I3
ag23
(g24
(I0
tp63
g26
tp64
Rp65
(I1
(I1
tp66
g32
I00
S'I\xd0\xda<'
p67
tp68
btp69
a((lp70
I8
ag23
(g24
(I0
tp71
g26
tp72
Rp73
(I1
(I1
tp74
g32
I00
S'\xc9\xb2\xa9<'
p75
tp76
btp77
a((lp78
I13
ag23
(g24
(I0
tp79
g26
tp80
Rp81
(I1
(I1
tp82
g32
I00
S'\xc0l\xa8<'
p83
tp84
btp85
a((lp86
I4
ag23
(g24
(I0
tp87
g26
tp88
Rp89
(I1
(I1
tp90
g32
I00
S'\xbc7\x97<'
p91
tp92
btp93
a((lp94
I5
ag23
(g24
(I0
tp95
g26
tp96
Rp97
(I1
(I1
tp98
g32
I00
S'\xd7\xdf{<'
p99
tp100
btp101
a((lp102
I14
ag23
(g24
(I0
tp103
g26
tp104
Rp105
(I1
(I1
tp106
g32
I00
S'0\xc7z<'
p107
tp108
btp109
a((lp110
I1
ag23
(g24
(I0
tp111
g26
tp112
Rp113
(I1
(I1
tp114
g32
I00
S'\xb0Kl<'
p115
tp116
btp117
a((lp118
I16
ag23
(g24
(I0
tp119
g26
tp120
Rp121
(I1
(I1
tp122
g32
I00
S'(\xb5g<'
p123
tp124
btp125
a((lp126
I6
ag23
(g24
(I0
tp127
g26
tp128
Rp129
(I1
(I1
tp130
g32
I00
S'\xfc^d<'
p131
tp132
btp133
a((lp134
I7
ag23
(g24
(I0
tp135
g26
tp136
Rp137
(I1
(I1
tp138
g32
I00
S'\x95\x12J<'
p139
tp140
btp141
a((lp142
I10
ag23
(g24
(I0
tp143
g26
tp144
Rp145
(I1
(I1
tp146
g32
I00
S'\xb5\x08J<'
p147
tp148
btp149
a((lp150
I15
ag23
(g24
(I0
tp151
g26
tp152
Rp153
(I1
(I1
tp154
g32
I00
S'{\xa1F<'
p155
tp156
btp157
a((lp158
I3
ag23
(g24
(I0
tp159
g26
tp160
Rp161
(I1
(I1
tp162
g32
I00
S'%a><'
p163
tp164
btp165
a((lp166
I11
ag23
(g24
(I0
tp167
g26
tp168
Rp169
(I1
(I1
tp170
g32
I00
S' j9<'
p171
tp172
btp173
a((lp174
I9
ag23
(g24
(I0
tp175
g26
tp176
Rp177
(I1
(I1
tp178
g32
I00
S'E\xa22<'
p179
tp180
btp181
a((lp182
I12
ag23
(g24
(I0
tp183
g26
tp184
Rp185
(I1
(I1
tp186
g32
I00
S'\xc5\x1f+<'
p187
tp188
btp189
asg1
(g5
S'\x02\x00\x00\x00\x00\x00\x00\x00'
p190
tp191
Rp192
(lp193
((lp194
g1
(g15
S'\x00\x00\x00`Hf\xd4?'
p195
tp196
Rp197
tp198
a((lp199
I9
ag23
(g24
(I0
tp200
g26
tp201
Rp202
(I1
(I1
tp203
g32
I00
S's%\xa7='
p204
tp205
btp206
a((lp207
I9
ag23
(g24
(I0
tp208
g26
tp209
Rp210
(I1
(I1
tp211
g32
I00
S'\xbdM\x94='
p212
tp213
btp214
a((lp215
I4
ag23
(g24
(I0
tp216
g26
tp217
Rp218
(I1
(I1
tp219
g32
I00
S'\x96$\xd3<'
p220
tp221
btp222
a((lp223
I1
ag23
(g24
(I0
tp224
g26
tp225
Rp226
(I1
(I1
tp227
g32
I00
S'V0\xa0<'
p228
tp229
btp230
a((lp231
I9
aI9
ag23
(g24
(I0
tp232
g26
tp233
Rp234
(I1
(I1
tp235
g32
I00
S'\x9b\xfb\x98<'
p236
tp237
btp238
a((lp239
I15
ag23
(g24
(I0
tp240
g26
tp241
Rp242
(I1
(I1
tp243
g32
I00
S'\x95z\x98<'
p244
tp245
btp246
a((lp247
I14
ag23
(g24
(I0
tp248
g26
tp249
Rp250
(I1
(I1
tp251
g32
I00
S'\xf5\xd3\x91<'
p252
tp253
btp254
a((lp255
I17
ag23
(g24
(I0
tp256
g26
tp257
Rp258
(I1
(I1
tp259
g32
I00
S'\xf7\x06\x8c<'
p260
tp261
btp262
a((lp263
I0
ag23
(g24
(I0
tp264
g26
tp265
Rp266
(I1
(I1
tp267
g32
I00
S'\x9e\x8b\x89<'
p268
tp269
btp270
a((lp271
I7
ag23
(g24
(I0
tp272
g26
tp273
Rp274
(I1
(I1
tp275
g32
I00
S'\xad4\x86<'
p276
tp277
btp278
a((lp279
I16
ag23
(g24
(I0
tp280
g26
tp281
Rp282
(I1
(I1
tp283
g32
I00
S'E\xad\x85<'
p284
tp285
btp286
a((lp287
I6
ag23
(g24
(I0
tp288
g26
tp289
Rp290
(I1
(I1
tp291
g32
I00
S'r+\x84<'
p292
tp293
btp294
a((lp295
I10
ag23
(g24
(I0
tp296
g26
tp297
Rp298
(I1
(I1
tp299
g32
I00
S'\x19\xfd}<'
p300
tp301
btp302
a((lp303
I13
ag23
(g24
(I0
tp304
g26
tp305
Rp306
(I1
(I1
tp307
g32
I00
S'k\xfac<'
p308
tp309
btp310
a((lp311
I3
ag23
(g24
(I0
tp312
g26
tp313
Rp314
(I1
(I1
tp315
g32
I00
S'\x17\xa2b<'
p316
tp317
btp318
a((lp319
I8
ag23
(g24
(I0
tp320
g26
tp321
Rp322
(I1
(I1
tp323
g32
I00
S'\x08\x82\\<'
p324
tp325
btp326
a((lp327
I12
ag23
(g24
(I0
tp328
g26
tp329
Rp330
(I1
(I1
tp331
g32
I00
S'=\xcbL<'
p332
tp333
btp334
a((lp335
I4
ag23
(g24
(I0
tp336
g26
tp337
Rp338
(I1
(I1
tp339
g32
I00
S'&\x80H<'
p340
tp341
btp342
a((lp343
I11
ag23
(g24
(I0
tp344
g26
tp345
Rp346
(I1
(I1
tp347
g32
I00
S'\xaafD<'
p348
tp349
btp350
a((lp351
I5
ag23
(g24
(I0
tp352
g26
tp353
Rp354
(I1
(I1
tp355
g32
I00
S'\x05u.<'
p356
tp357
btp358
asg1
(g5
S'\x03\x00\x00\x00\x00\x00\x00\x00'
p359
tp360
Rp361
(lp362
((lp363
g1
(g15
S'\x00\x00\x00\x00\xcf\xca\xd4?'
p364
tp365
Rp366
tp367
a((lp368
I10
ag23
(g24
(I0
tp369
g26
tp370
Rp371
(I1
(I1
tp372
g32
I00
S'\xb8!\xdb<'
p373
tp374
btp375
a((lp376
I1
ag23
(g24
(I0
tp377
g26
tp378
Rp379
(I1
(I1
tp380
g32
I00
S'\x7fr\xc1<'
p381
tp382
btp383
a((lp384
I0
ag23
(g24
(I0
tp385
g26
tp386
Rp387
(I1
(I1
tp388
g32
I00
S'\x85)\xb3<'
p389
tp390
btp391
a((lp392
I16
ag23
(g24
(I0
tp393
g26
tp394
Rp395
(I1
(I1
tp396
g32
I00
S'M\xb4\xab<'
p397
tp398
btp399
a((lp400
I17
ag23
(g24
(I0
tp401
g26
tp402
Rp403
(I1
(I1
tp404
g32
I00
S'\x97\xc5\xa1<'
p405
tp406
btp407
a((lp408
I5
ag23
(g24
(I0
tp409
g26
tp410
Rp411
(I1
(I1
tp412
g32
I00
S'\xdeR\xa0<'
p413
tp414
btp415
a((lp416
I4
ag23
(g24
(I0
tp417
g26
tp418
Rp419
(I1
(I1
tp420
g32
I00
S'/g\x9e<'
p421
tp422
btp423
a((lp424
I9
ag23
(g24
(I0
tp425
g26
tp426
Rp427
(I1
(I1
tp428
g32
I00
S'A\xf8\x9d<'
p429
tp430
btp431
a((lp432
I7
ag23
(g24
(I0
tp433
g26
tp434
Rp435
(I1
(I1
tp436
g32
I00
S'$v\x9a<'
p437
tp438
btp439
a((lp440
I11
ag23
(g24
(I0
tp441
g26
tp442
Rp443
(I1
(I1
tp444
g32
I00
S'4\xfc\x98<'
p445
tp446
btp447
a((lp448
I15
ag23
(g24
(I0
tp449
g26
tp450
Rp451
(I1
(I1
tp452
g32
I00
S';\xc0\x96<'
p453
tp454
btp455
a((lp456
I10
ag23
(g24
(I0
tp457
g26
tp458
Rp459
(I1
(I1
tp460
g32
I00
S'^\x99\x90<'
p461
tp462
btp463
a((lp464
I3
ag23
(g24
(I0
tp465
g26
tp466
Rp467
(I1
(I1
tp468
g32
I00
S'MK\x8a<'
p469
tp470
btp471
a((lp472
I13
ag23
(g24
(I0
tp473
g26
tp474
Rp475
(I1
(I1
tp476
g32
I00
S'\x830\x8a<'
p477
tp478
btp479
a((lp480
I2
ag23
(g24
(I0
tp481
g26
tp482
Rp483
(I1
(I1
tp484
g32
I00
S'V\xad\x89<'
p485
tp486
btp487
a((lp488
I6
ag23
(g24
(I0
tp489
g26
tp490
Rp491
(I1
(I1
tp492
g32
I00
S'\xecft<'
p493
tp494
btp495
a((lp496
I14
ag23
(g24
(I0
tp497
g26
tp498
Rp499
(I1
(I1
tp500
g32
I00
S'\x8d\xeaf<'
p501
tp502
btp503
a((lp504
I8
ag23
(g24
(I0
tp505
g26
tp506
Rp507
(I1
(I1
tp508
g32
I00
S'o}d<'
p509
tp510
btp511
a((lp512
I1
ag23
(g24
(I0
tp513
g26
tp514
Rp515
(I1
(I1
tp516
g32
I00
S'k\x8e^<'
p517
tp518
btp519
a((lp520
I12
ag23
(g24
(I0
tp521
g26
tp522
Rp523
(I1
(I1
tp524
g32
I00
S'\xf7\x9aX<'
p525
tp526
btp527
a((lp528
I0
ag23
(g24
(I0
tp529
g26
tp530
Rp531
(I1
(I1
tp532
g32
I00
S'\xfb\xaeD<'
p533
tp534
btp535
a((lp536
I16
ag23
(g24
(I0
tp537
g26
tp538
Rp539
(I1
(I1
tp540
g32
I00
S'I\x87A<'
p541
tp542
btp543
a((lp544
I5
ag23
(g24
(I0
tp545
g26
tp546
Rp547
(I1
(I1
tp548
g32
I00
S'\x94\xab*<'
p549
tp550
btp551
a((lp552
I17
ag23
(g24
(I0
tp553
g26
tp554
Rp555
(I1
(I1
tp556
g32
I00
S'\xb2\xa4$<'
p557
tp558
btp559
a((lp560
I4
ag23
(g24
(I0
tp561
g26
tp562
Rp563
(I1
(I1
tp564
g32
I00
S'\x0c\x94$<'
p565
tp566
btp567
asg1
(g5
S'\x08\x00\x00\x00\x00\x00\x00\x00'
p568
tp569
Rp570
(lp571
((lp572
g1
(g15
S'\x00\x00\x00\xc0\xc3\x87\xd4?'
p573
tp574
Rp575
tp576
a((lp577
I16
ag23
(g24
(I0
tp578
g26
tp579
Rp580
(I1
(I1
tp581
g32
I00
S'\xcc2Z='
p582
tp583
btp584
a((lp585
I16
ag23
(g24
(I0
tp586
g26
tp587
Rp588
(I1
(I1
tp589
g32
I00
S'z\x15K='
p590
tp591
btp592
a((lp593
I17
ag23
(g24
(I0
tp594
g26
tp595
Rp596
(I1
(I1
tp597
g32
I00
S'\x9d\xe1\xc0<'
p598
tp599
btp600
a((lp601
I8
ag23
(g24
(I0
tp602
g26
tp603
Rp604
(I1
(I1
tp605
g32
I00
S'\x07\xd9\xb1<'
p606
tp607
btp608
a((lp609
I10
ag23
(g24
(I0
tp610
g26
tp611
Rp612
(I1
(I1
tp613
g32
I00
S'\xb1^\xa6<'
p614
tp615
btp616
a((lp617
I13
ag23
(g24
(I0
tp618
g26
tp619
Rp620
(I1
(I1
tp621
g32
I00
S'\xfc0\x9f<'
p622
tp623
btp624
a((lp625
I5
ag23
(g24
(I0
tp626
g26
tp627
Rp628
(I1
(I1
tp629
g32
I00
S'\xd9\xf8\x94<'
p630
tp631
btp632
a((lp633
I4
ag23
(g24
(I0
tp634
g26
tp635
Rp636
(I1
(I1
tp637
g32
I00
S'\xd4\x89\x91<'
p638
tp639
btp640
a((lp641
I1
ag23
(g24
(I0
tp642
g26
tp643
Rp644
(I1
(I1
tp645
g32
I00
S'\x0e\xc3\x90<'
p646
tp647
btp648
a((lp649
I14
ag23
(g24
(I0
tp650
g26
tp651
Rp652
(I1
(I1
tp653
g32
I00
S'a\x9c\x89<'
p654
tp655
btp656
a((lp657
I3
ag23
(g24
(I0
tp658
g26
tp659
Rp660
(I1
(I1
tp661
g32
I00
S'\xcaZ\x82<'
p662
tp663
btp664
a((lp665
I7
ag23
(g24
(I0
tp666
g26
tp667
Rp668
(I1
(I1
tp669
g32
I00
S'\x9f\x1f\x82<'
p670
tp671
btp672
a((lp673
I15
ag23
(g24
(I0
tp674
g26
tp675
Rp676
(I1
(I1
tp677
g32
I00
S'\xfa\x1d\x80<'
p678
tp679
btp680
a((lp681
I11
ag23
(g24
(I0
tp682
g26
tp683
Rp684
(I1
(I1
tp685
g32
I00
S'\x9bM|<'
p686
tp687
btp688
a((lp689
I12
ag23
(g24
(I0
tp690
g26
tp691
Rp692
(I1
(I1
tp693
g32
I00
S'Vai<'
p694
tp695
btp696
a((lp697
I2
ag23
(g24
(I0
tp698
g26
tp699
Rp700
(I1
(I1
tp701
g32
I00
S'\x87:i<'
p702
tp703
btp704
a((lp705
I0
ag23
(g24
(I0
tp706
g26
tp707
Rp708
(I1
(I1
tp709
g32
I00
S'\xc9Wa<'
p710
tp711
btp712
a((lp713
I6
ag23
(g24
(I0
tp714
g26
tp715
Rp716
(I1
(I1
tp717
g32
I00
S'\x96\x0b\\<'
p718
tp719
btp720
a((lp721
I9
ag23
(g24
(I0
tp722
g26
tp723
Rp724
(I1
(I1
tp725
g32
I00
S'P\x01Y<'
p726
tp727
btp728
a((lp729
I17
ag23
(g24
(I0
tp730
g26
tp731
Rp732
(I1
(I1
tp733
g32
I00
S'\x0e\xf4E<'
p734
tp735
btp736
a((lp737
I8
ag23
(g24
(I0
tp738
g26
tp739
Rp740
(I1
(I1
tp741
g32
I00
S'\x06\xbd*<'
p742
tp743
btp744
asg1
(g5
S'\t\x00\x00\x00\x00\x00\x00\x00'
p745
tp746
Rp747
(lp748
((lp749
g1
(g15
S'\x00\x00\x00 );\xd4?'
p750
tp751
Rp752
tp753
a((lp754
I7
ag23
(g24
(I0
tp755
g26
tp756
Rp757
(I1
(I1
tp758
g32
I00
S'K\xd5 ='
p759
tp760
btp761
a((lp762
I11
ag23
(g24
(I0
tp763
g26
tp764
Rp765
(I1
(I1
tp766
g32
I00
S"'2\x1b="
p767
tp768
btp769
a((lp770
I0
ag23
(g24
(I0
tp771
g26
tp772
Rp773
(I1
(I1
tp774
g32
I00
S'"\xfe\x10='
p775
tp776
btp777
a((lp778
I7
ag23
(g24
(I0
tp779
g26
tp780
Rp781
(I1
(I1
tp782
g32
I00
S'\xeet\n='
p783
tp784
btp785
a((lp786
I11
ag23
(g24
(I0
tp787
g26
tp788
Rp789
(I1
(I1
tp790
g32
I00
S'\x97{\xee<'
p791
tp792
btp793
a((lp794
I0
ag23
(g24
(I0
tp795
g26
tp796
Rp797
(I1
(I1
tp798
g32
I00
S'd\xc6\xd5<'
p799
tp800
btp801
a((lp802
I1
ag23
(g24
(I0
tp803
g26
tp804
Rp805
(I1
(I1
tp806
g32
I00
S'\x9a\xc8\xa6<'
p807
tp808
btp809
a((lp810
I13
ag23
(g24
(I0
tp811
g26
tp812
Rp813
(I1
(I1
tp814
g32
I00
S'\xd7\xa1\x9f<'
p815
tp816
btp817
a((lp818
I4
ag23
(g24
(I0
tp819
g26
tp820
Rp821
(I1
(I1
tp822
g32
I00
S'u\x13\x9d<'
p823
tp824
btp825
a((lp826
I14
ag23
(g24
(I0
tp827
g26
tp828
Rp829
(I1
(I1
tp830
g32
I00
S'R \x87<'
p831
tp832
btp833
a((lp834
I15
ag23
(g24
(I0
tp835
g26
tp836
Rp837
(I1
(I1
tp838
g32
I00
S'\xb6V\x83<'
p839
tp840
btp841
a((lp842
I6
ag23
(g24
(I0
tp843
g26
tp844
Rp845
(I1
(I1
tp846
g32
I00
S'\xda\xef\x82<'
p847
tp848
btp849
a((lp850
I3
ag23
(g24
(I0
tp851
g26
tp852
Rp853
(I1
(I1
tp854
g32
I00
S'\x80%w<'
p855
tp856
btp857
a((lp858
I9
ag23
(g24
(I0
tp859
g26
tp860
Rp861
(I1
(I1
tp862
g32
I00
S'$\xfbu<'
p863
tp864
btp865
a((lp866
I5
ag23
(g24
(I0
tp867
g26
tp868
Rp869
(I1
(I1
tp870
g32
I00
S'\xa5\x06m<'
p871
tp872
btp873
a((lp874
I10
ag23
(g24
(I0
tp875
g26
tp876
Rp877
(I1
(I1
tp878
g32
I00
S'W:d<'
p879
tp880
btp881
a((lp882
I8
ag23
(g24
(I0
tp883
g26
tp884
Rp885
(I1
(I1
tp886
g32
I00
S'A\xa2Z<'
p887
tp888
btp889
a((lp890
I17
ag23
(g24
(I0
tp891
g26
tp892
Rp893
(I1
(I1
tp894
g32
I00
S'\x18GQ<'
p895
tp896
btp897
a((lp898
I16
ag23
(g24
(I0
tp899
g26
tp900
Rp901
(I1
(I1
tp902
g32
I00
S'\x01+P<'
p903
tp904
btp905
a((lp906
I12
ag23
(g24
(I0
tp907
g26
tp908
Rp909
(I1
(I1
tp910
g32
I00
S'h\x92=<'
p911
tp912
btp913
a((lp914
I2
ag23
(g24
(I0
tp915
g26
tp916
Rp917
(I1
(I1
tp918
g32
I00
S'Yo$<'
p919
tp920
btp921
asg1
(g5
S'\x0b\x00\x00\x00\x00\x00\x00\x00'
p922
tp923
Rp924
(lp925
((lp926
g1
(g15
S'\x00\x00\x00\xe0\xa8\x83\xd4?'
p927
tp928
Rp929
tp930
a((lp931
I0
ag23
(g24
(I0
tp932
g26
tp933
Rp934
(I1
(I1
tp935
g32
I00
S'\x0eMu='
p936
tp937
btp938
a((lp939
I0
ag23
(g24
(I0
tp940
g26
tp941
Rp942
(I1
(I1
tp943
g32
I00
S'\xe9\xaeh='
p944
tp945
btp946
a((lp947
I4
ag23
(g24
(I0
tp948
g26
tp949
Rp950
(I1
(I1
tp951
g32
I00
S'\xac|\xdc<'
p952
tp953
btp954
a((lp955
I17
ag23
(g24
(I0
tp956
g26
tp957
Rp958
(I1
(I1
tp959
g32
I00
S'\xdct\xb3<'
p960
tp961
btp962
a((lp963
I3
ag23
(g24
(I0
tp964
g26
tp965
Rp966
(I1
(I1
tp967
g32
I00
S'\xa6l\xb0<'
p968
tp969
btp970
a((lp971
I12
ag23
(g24
(I0
tp972
g26
tp973
Rp974
(I1
(I1
tp975
g32
I00
S'\x1f\xd6\x9e<'
p976
tp977
btp978
a((lp979
I6
ag23
(g24
(I0
tp980
g26
tp981
Rp982
(I1
(I1
tp983
g32
I00
S'\xe6\xc2\x95<'
p984
tp985
btp986
a((lp987
I13
ag23
(g24
(I0
tp988
g26
tp989
Rp990
(I1
(I1
tp991
g32
I00
S'\x06\xa2\x90<'
p992
tp993
btp994
a((lp995
I8
ag23
(g24
(I0
tp996
g26
tp997
Rp998
(I1
(I1
tp999
g32
I00
S'\xfd\x92\x8e<'
p1000
tp1001
btp1002
a((lp1003
I11
ag23
(g24
(I0
tp1004
g26
tp1005
Rp1006
(I1
(I1
tp1007
g32
I00
S'{\xcd\x89<'
p1008
tp1009
btp1010
a((lp1011
I16
ag23
(g24
(I0
tp1012
g26
tp1013
Rp1014
(I1
(I1
tp1015
g32
I00
S'+\x0e\x89<'
p1016
tp1017
btp1018
a((lp1019
I5
ag23
(g24
(I0
tp1020
g26
tp1021
Rp1022
(I1
(I1
tp1023
g32
I00
S'\xeaN\x81<'
p1024
tp1025
btp1026
a((lp1027
I1
ag23
(g24
(I0
tp1028
g26
tp1029
Rp1030
(I1
(I1
tp1031
g32
I00
S'\xb1\xb0\x80<'
p1032
tp1033
btp1034
a((lp1035
I15
ag23
(g24
(I0
tp1036
g26
tp1037
Rp1038
(I1
(I1
tp1039
g32
I00
S'&\xa8|<'
p1040
tp1041
btp1042
a((lp1043
I9
ag23
(g24
(I0
tp1044
g26
tp1045
Rp1046
(I1
(I1
tp1047
g32
I00
S'x$p<'
p1048
tp1049
btp1050
a((lp1051
I4
ag23
(g24
(I0
tp1052
g26
tp1053
Rp1054
(I1
(I1
tp1055
g32
I00
S'h\x8fj<'
p1056
tp1057
btp1058
a((lp1059
I7
ag23
(g24
(I0
tp1060
g26
tp1061
Rp1062
(I1
(I1
tp1063
g32
I00
S'.\xb2_<'
p1064
tp1065
btp1066
a((lp1067
I14
ag23
(g24
(I0
tp1068
g26
tp1069
Rp1070
(I1
(I1
tp1071
g32
I00
S'\xf8aQ<'
p1072
tp1073
btp1074
a((lp1075
I0
aI0
ag23
(g24
(I0
tp1076
g26
tp1077
Rp1078
(I1
(I1
tp1079
g32
I00
S'H[0<'
p1080
tp1081
btp1082
a((lp1083
I10
ag23
(g24
(I0
tp1084
g26
tp1085
Rp1086
(I1
(I1
tp1087
g32
I00
S'(\xf9$<'
p1088
tp1089
btp1090
asg1
(g5
S'\x0c\x00\x00\x00\x00\x00\x00\x00'
p1091
tp1092
Rp1093
(lp1094
((lp1095
g1
(g15
S'\x00\x00\x00\xa0Z\xdb\xd4?'
p1096
tp1097
Rp1098
tp1099
a((lp1100
I4
ag23
(g24
(I0
tp1101
g26
tp1102
Rp1103
(I1
(I1
tp1104
g32
I00
S'^,\xbe<'
p1105
tp1106
btp1107
a((lp1108
I11
ag23
(g24
(I0
tp1109
g26
tp1110
Rp1111
(I1
(I1
tp1112
g32
I00
S'_\xf7\xbc<'
p1113
tp1114
btp1115
a((lp1116
I9
ag23
(g24
(I0
tp1117
g26
tp1118
Rp1119
(I1
(I1
tp1120
g32
I00
S'\xda\x99\xb9<'
p1121
tp1122
btp1123
a((lp1124
I0
ag23
(g24
(I0
tp1125
g26
tp1126
Rp1127
(I1
(I1
tp1128
g32
I00
S'\x87\xb9\xac<'
p1129
tp1130
btp1131
a((lp1132
I3
ag23
(g24
(I0
tp1133
g26
tp1134
Rp1135
(I1
(I1
tp1136
g32
I00
S'\x0e@\xa0<'
p1137
tp1138
btp1139
a((lp1140
I17
ag23
(g24
(I0
tp1141
g26
tp1142
Rp1143
(I1
(I1
tp1144
g32
I00
S'\x89\x04\x9e<'
p1145
tp1146
btp1147
a((lp1148
I13
ag23
(g24
(I0
tp1149
g26
tp1150
Rp1151
(I1
(I1
tp1152
g32
I00
S'\xab\xc4\x9a<'
p1153
tp1154
btp1155
a((lp1156
I2
ag23
(g24
(I0
tp1157
g26
tp1158
Rp1159
(I1
(I1
tp1160
g32
I00
S'\xd2>\x9a<'
p1161
tp1162
btp1163
a((lp1164
I14
ag23
(g24
(I0
tp1165
g26
tp1166
Rp1167
(I1
(I1
tp1168
g32
I00
S'\xd1\x17\x91<'
p1169
tp1170
btp1171
a((lp1172
I6
ag23
(g24
(I0
tp1173
g26
tp1174
Rp1175
(I1
(I1
tp1176
g32
I00
S'\x88!\x90<'
p1177
tp1178
btp1179
a((lp1180
I10
ag23
(g24
(I0
tp1181
g26
tp1182
Rp1183
(I1
(I1
tp1184
g32
I00
S'\xd1K\x8f<'
p1185
tp1186
btp1187
a((lp1188
I15
ag23
(g24
(I0
tp1189
g26
tp1190
Rp1191
(I1
(I1
tp1192
g32
I00
S'X\x9b\x8c<'
p1193
tp1194
btp1195
a((lp1196
I12
ag23
(g24
(I0
tp1197
g26
tp1198
Rp1199
(I1
(I1
tp1200
g32
I00
S'\xe4\x93\x8c<'
p1201
tp1202
btp1203
a((lp1204
I1
ag23
(g24
(I0
tp1205
g26
tp1206
Rp1207
(I1
(I1
tp1208
g32
I00
S'R"\x88<'
p1209
tp1210
btp1211
a((lp1212
I8
ag23
(g24
(I0
tp1213
g26
tp1214
Rp1215
(I1
(I1
tp1216
g32
I00
S'\xc2\x11\x86<'
p1217
tp1218
btp1219
a((lp1220
I7
ag23
(g24
(I0
tp1221
g26
tp1222
Rp1223
(I1
(I1
tp1224
g32
I00
S'd*\x82<'
p1225
tp1226
btp1227
a((lp1228
I5
ag23
(g24
(I0
tp1229
g26
tp1230
Rp1231
(I1
(I1
tp1232
g32
I00
S'\xadL\x81<'
p1233
tp1234
btp1235
a((lp1236
I16
ag23
(g24
(I0
tp1237
g26
tp1238
Rp1239
(I1
(I1
tp1240
g32
I00
S'\xb4\x95v<'
p1241
tp1242
btp1243
a((lp1244
I4
ag23
(g24
(I0
tp1245
g26
tp1246
Rp1247
(I1
(I1
tp1248
g32
I00
S'8\xa8^<'
p1249
tp1250
btp1251
a((lp1252
I9
ag23
(g24
(I0
tp1253
g26
tp1254
Rp1255
(I1
(I1
tp1256
g32
I00
S'\xf5\xf8\\<'
p1257
tp1258
btp1259
a((lp1260
I11
ag23
(g24
(I0
tp1261
g26
tp1262
Rp1263
(I1
(I1
tp1264
g32
I00
S'5\xa8[<'
p1265
tp1266
btp1267
a((lp1268
I0
ag23
(g24
(I0
tp1269
g26
tp1270
Rp1271
(I1
(I1
tp1272
g32
I00
S'W\x849<'
p1273
tp1274
btp1275
a((lp1276
I3
ag23
(g24
(I0
tp1277
g26
tp1278
Rp1279
(I1
(I1
tp1280
g32
I00
S'\xed\xd9%<'
p1281
tp1282
btp1283
asg1
(g5
S'\x11\x00\x00\x00\x00\x00\x00\x00'
p1284
tp1285
Rp1286
(lp1287
((lp1288
g1
(g15
S'\x00\x00\x00`\xdb\xce\xd4?'
p1289
tp1290
Rp1291
tp1292
a((lp1293
I11
ag23
(g24
(I0
tp1294
g26
tp1295
Rp1296
(I1
(I1
tp1297
g32
I00
S'\xc0:\x0c='
p1298
tp1299
btp1300
a((lp1301
I12
ag23
(g24
(I0
tp1302
g26
tp1303
Rp1304
(I1
(I1
tp1305
g32
I00
S'\x01\xf0\xe4<'
p1306
tp1307
btp1308
a((lp1309
I11
ag23
(g24
(I0
tp1310
g26
tp1311
Rp1312
(I1
(I1
tp1313
g32
I00
S'\x9d>\xe3<'
p1314
tp1315
btp1316
a((lp1317
I0
ag23
(g24
(I0
tp1318
g26
tp1319
Rp1320
(I1
(I1
tp1321
g32
I00
S'\xe6\xc4\xce<'
p1322
tp1323
btp1324
a((lp1325
I10
ag23
(g24
(I0
tp1326
g26
tp1327
Rp1328
(I1
(I1
tp1329
g32
I00
S'jw\x9f<'
p1330
tp1331
btp1332
a((lp1333
I15
ag23
(g24
(I0
tp1334
g26
tp1335
Rp1336
(I1
(I1
tp1337
g32
I00
S'\xa8\xb2\x95<'
p1338
tp1339
btp1340
a((lp1341
I13
ag23
(g24
(I0
tp1342
g26
tp1343
Rp1344
(I1
(I1
tp1345
g32
I00
S'&[\x94<'
p1346
tp1347
btp1348
a((lp1349
I12
ag23
(g24
(I0
tp1350
g26
tp1351
Rp1352
(I1
(I1
tp1353
g32
I00
S'\x02\x9e\x93<'
p1354
tp1355
btp1356
a((lp1357
I6
ag23
(g24
(I0
tp1358
g26
tp1359
Rp1360
(I1
(I1
tp1361
g32
I00
S'\xb2\xab\x92<'
p1362
tp1363
btp1364
a((lp1365
I4
ag23
(g24
(I0
tp1366
g26
tp1367
Rp1368
(I1
(I1
tp1369
g32
I00
S'\xb6M\x8c<'
p1370
tp1371
btp1372
a((lp1373
I1
ag23
(g24
(I0
tp1374
g26
tp1375
Rp1376
(I1
(I1
tp1377
g32
I00
S'V\x1f\x8c<'
p1378
tp1379
btp1380
a((lp1381
I14
ag23
(g24
(I0
tp1382
g26
tp1383
Rp1384
(I1
(I1
tp1385
g32
I00
S'\x02\xca\x89<'
p1386
tp1387
btp1388
a((lp1389
I5
ag23
(g24
(I0
tp1390
g26
tp1391
Rp1392
(I1
(I1
tp1393
g32
I00
S']\xce\x84<'
p1394
tp1395
btp1396
a((lp1397
I17
ag23
(g24
(I0
tp1398
g26
tp1399
Rp1400
(I1
(I1
tp1401
g32
I00
S'e-\x82<'
p1402
tp1403
btp1404
a((lp1405
I16
ag23
(g24
(I0
tp1406
g26
tp1407
Rp1408
(I1
(I1
tp1409
g32
I00
S'K+\x81<'
p1410
tp1411
btp1412
a((lp1413
I3
ag23
(g24
(I0
tp1414
g26
tp1415
Rp1416
(I1
(I1
tp1417
g32
I00
S'\xa8\xad|<'
p1418
tp1419
btp1420
a((lp1421
I0
ag23
(g24
(I0
tp1422
g26
tp1423
Rp1424
(I1
(I1
tp1425
g32
I00
S'\xf8\xb1y<'
p1426
tp1427
btp1428
a((lp1429
I9
ag23
(g24
(I0
tp1430
g26
tp1431
Rp1432
(I1
(I1
tp1433
g32
I00
S'\xdcIu<'
p1434
tp1435
btp1436
a((lp1437
I8
ag23
(g24
(I0
tp1438
g26
tp1439
Rp1440
(I1
(I1
tp1441
g32
I00
S'\xa8\xcct<'
p1442
tp1443
btp1444
a((lp1445
I7
ag23
(g24
(I0
tp1446
g26
tp1447
Rp1448
(I1
(I1
tp1449
g32
I00
S'\xbbQs<'
p1450
tp1451
btp1452
a((lp1453
I2
ag23
(g24
(I0
tp1454
g26
tp1455
Rp1456
(I1
(I1
tp1457
g32
I00
S'\xebK]<'
p1458
tp1459
btp1460
as.