(dp0
cnumpy.core.multiarray
scalar
p1
(cnumpy
dtype
p2
(S'i8'
p3
I0
I1
tp4
Rp5
(I3
S'<'
p6
NNNI-1
I-1
I0
tp7
bS'\x00\x00\x00\x00\x00\x00\x00\x00'
p8
tp9
Rp10
(lp11
((lp12
g1
(g2
(S'f8'
p13
I0
I1
tp14
Rp15
(I3
S'<'
p16
NNNI-1
I-1
I0
tp17
bS'\x00\x00\x00\x00\xa1\xf7\xd4?'
p18
tp19
Rp20
tp21
a((lp22
I8
acnumpy.core.multiarray
_reconstruct
p23
(cnumpy
ndarray
p24
(I0
tp25
S'b'
p26
tp27
Rp28
(I1
(I1
tp29
g2
(S'f4'
p30
I0
I1
tp31
Rp32
(I3
S'<'
p33
NNNI-1
I-1
I0
tp34
bI00
S'2 \x95<'
p35
tp36
btp37
a((lp38
I17
ag23
(g24
(I0
tp39
g26
tp40
Rp41
(I1
(I1
tp42
g32
I00
S'\x14\xba\x90<'
p43
tp44
btp45
a((lp46
I14
ag23
(g24
(I0
tp47
g26
tp48
Rp49
(I1
(I1
tp50
g32
I00
S'4\x9e\x8d<'
p51
tp52
btp53
a((lp54
I12
ag23
(g24
(I0
tp55
g26
tp56
Rp57
(I1
(I1
tp58
g32
I00
S'B\x1d\x89<'
p59
tp60
btp61
a((lp62
I2
ag23
(g24
(I0
tp63
g26
tp64
Rp65
(I1
(I1
tp66
g32
I00
S'5\x08\x88<'
p67
tp68
btp69
a((lp70
I9
ag23
(g24
(I0
tp71
g26
tp72
Rp73
(I1
(I1
tp74
g32
I00
S'G\x05\x88<'
p75
tp76
btp77
a((lp78
I15
ag23
(g24
(I0
tp79
g26
tp80
Rp81
(I1
(I1
tp82
g32
I00
S' \x1c\x81<'
p83
tp84
btp85
a((lp86
I3
ag23
(g24
(I0
tp87
g26
tp88
Rp89
(I1
(I1
tp90
g32
I00
S'sV\x80<'
p91
tp92
btp93
a((lp94
I13
ag23
(g24
(I0
tp95
g26
tp96
Rp97
(I1
(I1
tp98
g32
I00
S'\x97$\x80<'
p99
tp100
btp101
a((lp102
I1
ag23
(g24
(I0
tp103
g26
tp104
Rp105
(I1
(I1
tp106
g32
I00
S'\xcf \x80<'
p107
tp108
btp109
a((lp110
I6
ag23
(g24
(I0
tp111
g26
tp112
Rp113
(I1
(I1
tp114
g32
I00
S'`Y\x7f<'
p115
tp116
btp117
a((lp118
I21
ag23
(g24
(I0
tp119
g26
tp120
Rp121
(I1
(I1
tp122
g32
I00
S'Tfy<'
p123
tp124
btp125
a((lp126
I16
ag23
(g24
(I0
tp127
g26
tp128
Rp129
(I1
(I1
tp130
g32
I00
S'\xa2\xeau<'
p131
tp132
btp133
a((lp134
I7
ag23
(g24
(I0
tp135
g26
tp136
Rp137
(I1
(I1
tp138
g32
I00
S'\xe8Mt<'
p139
tp140
btp141
a((lp142
I11
ag23
(g24
(I0
tp143
g26
tp144
Rp145
(I1
(I1
tp146
g32
I00
S'\x08\x12k<'
p147
tp148
btp149
a((lp150
I18
ag23
(g24
(I0
tp151
g26
tp152
Rp153
(I1
(I1
tp154
g32
I00
S']Qj<'
p155
tp156
btp157
a((lp158
I4
ag23
(g24
(I0
tp159
g26
tp160
Rp161
(I1
(I1
tp162
g32
I00
S'\xbd\xb6e<'
p163
tp164
btp165
a((lp166
I5
ag23
(g24
(I0
tp167
g26
tp168
Rp169
(I1
(I1
tp170
g32
I00
S'<\xdba<'
p171
tp172
btp173
a((lp174
I20
ag23
(g24
(I0
tp175
g26
tp176
Rp177
(I1
(I1
tp178
g32
I00
S'+dS<'
p179
tp180
btp181
a((lp182
I10
ag23
(g24
(I0
tp183
g26
tp184
Rp185
(I1
(I1
tp186
g32
I00
S'\xb1{Q<'
p187
tp188
btp189
a((lp190
I0
ag23
(g24
(I0
tp191
g26
tp192
Rp193
(I1
(I1
tp194
g32
I00
S'\xff\xe8F<'
p195
tp196
btp197
a((lp198
I19
ag23
(g24
(I0
tp199
g26
tp200
Rp201
(I1
(I1
tp202
g32
I00
S'\xbd\x85F<'
p203
tp204
btp205
a((lp206
I8
ag23
(g24
(I0
tp207
g26
tp208
Rp209
(I1
(I1
tp210
g32
I00
S'\xfa\xe3%<'
p211
tp212
btp213
asg1
(g5
S'\x01\x00\x00\x00\x00\x00\x00\x00'
p214
tp215
Rp216
(lp217
((lp218
g1
(g15
S'\x00\x00\x00 \xe3\xda\xd4?'
p219
tp220
Rp221
tp222
a((lp223
I19
ag23
(g24
(I0
tp224
g26
tp225
Rp226
(I1
(I1
tp227
g32
I00
S'+\xae\xf3<'
p228
tp229
btp230
a((lp231
I19
ag23
(g24
(I0
tp232
g26
tp233
Rp234
(I1
(I1
tp235
g32
I00
S'\n\x89\xc2<'
p236
tp237
btp238
a((lp239
I12
ag23
(g24
(I0
tp240
g26
tp241
Rp242
(I1
(I1
tp243
g32
I00
S"'\x96\x99<"
p244
tp245
btp246
a((lp247
I0
ag23
(g24
(I0
tp248
g26
tp249
Rp250
(I1
(I1
tp251
g32
I00
S'\xd7\xcb\x91<'
p252
tp253
btp254
a((lp255
I6
ag23
(g24
(I0
tp256
g26
tp257
Rp258
(I1
(I1
tp259
g32
I00
S'\xf6\xba\x88<'
p260
tp261
btp262
a((lp263
I10
ag23
(g24
(I0
tp264
g26
tp265
Rp266
(I1
(I1
tp267
g32
I00
S'9{\x88<'
p268
tp269
btp270
a((lp271
I4
ag23
(g24
(I0
tp272
g26
tp273
Rp274
(I1
(I1
tp275
g32
I00
S'\xc3\x1b\x88<'
p276
tp277
btp278
a((lp279
I2
ag23
(g24
(I0
tp280
g26
tp281
Rp282
(I1
(I1
tp283
g32
I00
S'R\xdc\x84<'
p284
tp285
btp286
a((lp287
I1
ag23
(g24
(I0
tp288
g26
tp289
Rp290
(I1
(I1
tp291
g32
I00
S'B\xec\x81<'
p292
tp293
btp294
a((lp295
I20
ag23
(g24
(I0
tp296
g26
tp297
Rp298
(I1
(I1
tp299
g32
I00
S'>\xb1\x81<'
p300
tp301
btp302
a((lp303
I11
ag23
(g24
(I0
tp304
g26
tp305
Rp306
(I1
(I1
tp307
g32
I00
S'\xa7\xac\x80<'
p308
tp309
btp310
a((lp311
I21
ag23
(g24
(I0
tp312
g26
tp313
Rp314
(I1
(I1
tp315
g32
I00
S'y\x98\x80<'
p316
tp317
btp318
a((lp319
I17
ag23
(g24
(I0
tp320
g26
tp321
Rp322
(I1
(I1
tp323
g32
I00
S'\xd0\xd0x<'
p324
tp325
btp326
a((lp327
I18
ag23
(g24
(I0
tp328
g26
tp329
Rp330
(I1
(I1
tp331
g32
I00
S'\x86\xdbj<'
p332
tp333
btp334
a((lp335
I15
ag23
(g24
(I0
tp336
g26
tp337
Rp338
(I1
(I1
tp339
g32
I00
S'\xe6?j<'
p340
tp341
btp342
a((lp343
I3
ag23
(g24
(I0
tp344
g26
tp345
Rp346
(I1
(I1
tp347
g32
I00
S'\x96]\\<'
p348
tp349
btp350
a((lp351
I8
ag23
(g24
(I0
tp352
g26
tp353
Rp354
(I1
(I1
tp355
g32
I00
S'\x97\xccT<'
p356
tp357
btp358
a((lp359
I9
ag23
(g24
(I0
tp360
g26
tp361
Rp362
(I1
(I1
tp363
g32
I00
S'\xf7\x11J<'
p364
tp365
btp366
a((lp367
I14
ag23
(g24
(I0
tp368
g26
tp369
Rp370
(I1
(I1
tp371
g32
I00
S'\xf0\x85I<'
p372
tp373
btp374
a((lp375
I13
ag23
(g24
(I0
tp376
g26
tp377
Rp378
(I1
(I1
tp379
g32
I00
S'\x85\x1dA<'
p380
tp381
btp382
a((lp383
I7
ag23
(g24
(I0
tp384
g26
tp385
Rp386
(I1
(I1
tp387
g32
I00
S'\x1e\x00A<'
p388
tp389
btp390
a((lp391
I16
ag23
(g24
(I0
tp392
g26
tp393
Rp394
(I1
(I1
tp395
g32
I00
S'\xa7\xb1/<'
p396
tp397
btp398
asg1
(g5
S'\x05\x00\x00\x00\x00\x00\x00\x00'
p399
tp400
Rp401
(lp402
((lp403
g1
(g15
S'\x00\x00\x00\xc0\x9fH\xd4?'
p404
tp405
Rp406
tp407
a((lp408
I11
ag23
(g24
(I0
tp409
g26
tp410
Rp411
(I1
(I1
tp412
g32
I00
S'\xa3j)='
p413
tp414
btp415
a((lp416
I11
ag23
(g24
(I0
tp417
g26
tp418
Rp419
(I1
(I1
tp420
g32
I00
S'\x1d\x18 ='
p421
tp422
btp423
a((lp424
I19
ag23
(g24
(I0
tp425
g26
tp426
Rp427
(I1
(I1
tp428
g32
I00
S'\xf6\xbe\xba<'
p429
tp430
btp431
a((lp432
I2
ag23
(g24
(I0
tp433
g26
tp434
Rp435
(I1
(I1
tp436
g32
I00
S'\x92^\xba<'
p437
tp438
btp439
a((lp440
I12
ag23
(g24
(I0
tp441
g26
tp442
Rp443
(I1
(I1
tp444
g32
I00
S'\x84\xfe\x87<'
p445
tp446
btp447
a((lp448
I3
ag23
(g24
(I0
tp449
g26
tp450
Rp451
(I1
(I1
tp452
g32
I00
S'K\x00\x82<'
p453
tp454
btp455
a((lp456
I17
ag23
(g24
(I0
tp457
g26
tp458
Rp459
(I1
(I1
tp460
g32
I00
S'\xee\xe3\x81<'
p461
tp462
btp463
a((lp464
I13
ag23
(g24
(I0
tp465
g26
tp466
Rp467
(I1
(I1
tp468
g32
I00
S'\xec\xfd|<'
p469
tp470
btp471
a((lp472
I19
ag23
(g24
(I0
tp473
g26
tp474
Rp475
(I1
(I1
tp476
g32
I00
S'\xd9n|<'
p477
tp478
btp479
a((lp480
I16
ag23
(g24
(I0
tp481
g26
tp482
Rp483
(I1
(I1
tp484
g32
I00
S'T\x90x<'
p485
tp486
btp487
a((lp488
I5
ag23
(g24
(I0
tp489
g26
tp490
Rp491
(I1
(I1
tp492
g32
I00
S'R\xdcs<'
p493
tp494
btp495
a((lp496
I18
ag23
(g24
(I0
tp497
g26
tp498
Rp499
(I1
(I1
tp500
g32
I00
S'_\xd4q<'
p501
tp502
btp503
a((lp504
I14
ag23
(g24
(I0
tp505
g26
tp506
Rp507
(I1
(I1
tp508
g32
I00
S'$En<'
p509
tp510
btp511
a((lp512
I4
ag23
(g24
(I0
tp513
g26
tp514
Rp515
(I1
(I1
tp516
g32
I00
S'$\xa1`<'
p517
tp518
btp519
a((lp520
I20
ag23
(g24
(I0
tp521
g26
tp522
Rp523
(I1
(I1
tp524
g32
I00
S'\xd3\xbc]<'
p525
tp526
btp527
a((lp528
I0
ag23
(g24
(I0
tp529
g26
tp530
Rp531
(I1
(I1
tp532
g32
I00
S'\xd9\x9c[<'
p533
tp534
btp535
a((lp536
I2
ag23
(g24
(I0
tp537
g26
tp538
Rp539
(I1
(I1
tp540
g32
I00
S'\x92\xe0Z<'
p541
tp542
btp543
a((lp544
I1
ag23
(g24
(I0
tp545
g26
tp546
Rp547
(I1
(I1
tp548
g32
I00
S'\xd7\xedY<'
p549
tp550
btp551
a((lp552
I21
ag23
(g24
(I0
tp553
g26
tp554
Rp555
(I1
(I1
tp556
g32
I00
S'\x10\x7fP<'
p557
tp558
btp559
a((lp560
I15
ag23
(g24
(I0
tp561
g26
tp562
Rp563
(I1
(I1
tp564
g32
I00
S'p\x1bO<'
p565
tp566
btp567
a((lp568
I6
ag23
(g24
(I0
tp569
g26
tp570
Rp571
(I1
(I1
tp572
g32
I00
S'Sw><'
p573
tp574
btp575
a((lp576
I9
ag23
(g24
(I0
tp577
g26
tp578
Rp579
(I1
(I1
tp580
g32
I00
S'28)<'
p581
tp582
btp583
a((lp584
I7
ag23
(g24
(I0
tp585
g26
tp586
Rp587
(I1
(I1
tp588
g32
I00
S'{\xfb%<'
p589
tp590
btp591
asg1
(g5
S'\x07\x00\x00\x00\x00\x00\x00\x00'
p592
tp593
Rp594
(lp595
((lp596
g1
(g15
S'\x00\x00\x00\xc0.]\xd4?'
p597
tp598
Rp599
tp600
a((lp601
I16
ag23
(g24
(I0
tp602
g26
tp603
Rp604
(I1
(I1
tp605
g32
I00
S'\x93\xeb\x13='
p606
tp607
btp608
a((lp609
I16
ag23
(g24
(I0
tp610
g26
tp611
Rp612
(I1
(I1
tp613
g32
I00
S'\x84J\x0c='
p614
tp615
btp616
a((lp617
I0
ag23
(g24
(I0
tp618
g26
tp619
Rp620
(I1
(I1
tp621
g32
I00
S'\xb8$\xd3<'
p622
tp623
btp624
a((lp625
I5
ag23
(g24
(I0
tp626
g26
tp627
Rp628
(I1
(I1
tp629
g32
I00
S'\x9b\x82\xa9<'
p630
tp631
btp632
a((lp633
I14
ag23
(g24
(I0
tp634
g26
tp635
Rp636
(I1
(I1
tp637
g32
I00
S'\xb0\xe2\xa3<'
p638
tp639
btp640
a((lp641
I17
ag23
(g24
(I0
tp642
g26
tp643
Rp644
(I1
(I1
tp645
g32
I00
S'\xad\xfc\x91<'
p646
tp647
btp648
a((lp649
I0
ag23
(g24
(I0
tp650
g26
tp651
Rp652
(I1
(I1
tp653
g32
I00
S'\xb0\xa9\x8f<'
p654
tp655
btp656
a((lp657
I9
ag23
(g24
(I0
tp658
g26
tp659
Rp660
(I1
(I1
tp661
g32
I00
S'\xc0\x08\x8c<'
p662
tp663
btp664
a((lp665
I4
ag23
(g24
(I0
tp666
g26
tp667
Rp668
(I1
(I1
tp669
g32
I00
S'\xbd\x84n<'
p670
tp671
btp672
a((lp673
I2
ag23
(g24
(I0
tp674
g26
tp675
Rp676
(I1
(I1
tp677
g32
I00
S'\xe0*m<'
p678
tp679
btp680
a((lp681
I6
ag23
(g24
(I0
tp682
g26
tp683
Rp684
(I1
(I1
tp685
g32
I00
S'\xb3\xc5l<'
p686
tp687
btp688
a((lp689
I3
ag23
(g24
(I0
tp690
g26
tp691
Rp692
(I1
(I1
tp693
g32
I00
S'a\xe3i<'
p694
tp695
btp696
a((lp697
I13
ag23
(g24
(I0
tp698
g26
tp699
Rp700
(I1
(I1
tp701
g32
I00
S'O~g<'
p702
tp703
btp704
a((lp705
I18
ag23
(g24
(I0
tp706
g26
tp707
Rp708
(I1
(I1
tp709
g32
I00
S'.Nc<'
p710
tp711
btp712
a((lp713
I11
ag23
(g24
(I0
tp714
g26
tp715
Rp716
(I1
(I1
tp717
g32
I00
S'\xd1\xb8b<'
p718
tp719
btp720
a((lp721
I15
ag23
(g24
(I0
tp722
g26
tp723
Rp724
(I1
(I1
tp725
g32
I00
S'\xe4\x00[<'
p726
tp727
btp728
a((lp729
I12
ag23
(g24
(I0
tp730
g26
tp731
Rp732
(I1
(I1
tp733
g32
I00
S'\xcfyS<'
p734
tp735
btp736
a((lp737
I5
ag23
(g24
(I0
tp738
g26
tp739
Rp740
(I1
(I1
tp741
g32
I00
S'\xa48C<'
p742
tp743
btp744
a((lp745
I19
ag23
(g24
(I0
tp746
g26
tp747
Rp748
(I1
(I1
tp749
g32
I00
S'\x1f\xdc<<'
p750
tp751
btp752
a((lp753
I8
ag23
(g24
(I0
tp754
g26
tp755
Rp756
(I1
(I1
tp757
g32
I00
S'\x93/:<'
p758
tp759
btp760
a((lp761
I14
ag23
(g24
(I0
tp762
g26
tp763
Rp764
(I1
(I1
tp765
g32
I00
S'\xd8I4<'
p766
tp767
btp768
a((lp769
I21
ag23
(g24
(I0
tp770
g26
tp771
Rp772
(I1
(I1
tp773
g32
I00
S'$@0<'
p774
tp775
btp776
a((lp777
I20
ag23
(g24
(I0
tp778
g26
tp779
Rp780
(I1
(I1
tp781
g32
I00
S"\xa2w'<"
p782
tp783
btp784
a((lp785
I1
ag23
(g24
(I0
tp786
g26
tp787
Rp788
(I1
(I1
tp789
g32
I00
S"\xafK'<"
p790
tp791
btp792
a((lp793
I7
ag23
(g24
(I0
tp794
g26
tp795
Rp796
(I1
(I1
tp797
g32
I00
S'\xa1\x1a$<'
p798
tp799
btp800
asg1
(g5
S'\x08\x00\x00\x00\x00\x00\x00\x00'
p801
tp802
Rp803
(lp804
((lp805
g1
(g15
S'\x00\x00\x00 =\xb9\xd4?'
p806
tp807
Rp808
tp809
a((lp810
I8
ag23
(g24
(I0
tp811
g26
tp812
Rp813
(I1
(I1
tp814
g32
I00
S'\x98\x86\r='
p815
tp816
btp817
a((lp818
I21
ag23
(g24
(I0
tp819
g26
tp820
Rp821
(I1
(I1
tp822
g32
I00
S'\xa3\x05\x05='
p823
tp824
btp825
a((lp826
I8
ag23
(g24
(I0
tp827
g26
tp828
Rp829
(I1
(I1
tp830
g32
I00
S'%\x04\xfe<'
p831
tp832
btp833
a((lp834
I21
ag23
(g24
(I0
tp835
g26
tp836
Rp837
(I1
(I1
tp838
g32
I00
S'P6\xe0<'
p839
tp840
btp841
a((lp842
I13
ag23
(g24
(I0
tp843
g26
tp844
Rp845
(I1
(I1
tp846
g32
I00
S'\xc5\xcc\x9a<'
p847
tp848
btp849
a((lp850
I10
ag23
(g24
(I0
tp851
g26
tp852
Rp853
(I1
(I1
tp854
g32
I00
S'8\xcc\x96<'
p855
tp856
btp857
a((lp858
I9
ag23
(g24
(I0
tp859
g26
tp860
Rp861
(I1
(I1
tp862
g32
I00
S'\xf6c\x85<'
p863
tp864
btp865
a((lp866
I15
ag23
(g24
(I0
tp867
g26
tp868
Rp869
(I1
(I1
tp870
g32
I00
S'\x08\xc4y<'
p871
tp872
btp873
a((lp874
I4
ag23
(g24
(I0
tp875
g26
tp876
Rp877
(I1
(I1
tp878
g32
I00
S'\xc8\x9du<'
p879
tp880
btp881
a((lp882
I20
ag23
(g24
(I0
tp883
g26
tp884
Rp885
(I1
(I1
tp886
g32
I00
S'TUu<'
p887
tp888
btp889
a((lp890
I3
ag23
(g24
(I0
tp891
g26
tp892
Rp893
(I1
(I1
tp894
g32
I00
S'Ars<'
p895
tp896
btp897
a((lp898
I5
ag23
(g24
(I0
tp899
g26
tp900
Rp901
(I1
(I1
tp902
g32
I00
S'\xbd\xc9j<'
p903
tp904
btp905
a((lp906
I1
ag23
(g24
(I0
tp907
g26
tp908
Rp909
(I1
(I1
tp910
g32
I00
S'\xcd\x9d`<'
p911
tp912
btp913
a((lp914
I19
ag23
(g24
(I0
tp915
g26
tp916
Rp917
(I1
(I1
tp918
g32
I00
S"\x80'U<"
p919
tp920
btp921
a((lp922
I2
ag23
(g24
(I0
tp923
g26
tp924
Rp925
(I1
(I1
tp926
g32
I00
S'\xb8\xb6P<'
p927
tp928
btp929
a((lp930
I7
ag23
(g24
(I0
tp931
g26
tp932
Rp933
(I1
(I1
tp934
g32
I00
S'\xc1\xd2L<'
p935
tp936
btp937
a((lp938
I16
ag23
(g24
(I0
tp939
g26
tp940
Rp941
(I1
(I1
tp942
g32
I00
S'\xab4J<'
p943
tp944
btp945
a((lp946
I17
ag23
(g24
(I0
tp947
g26
tp948
Rp949
(I1
(I1
tp950
g32
I00
S'\xf4MF<'
p951
tp952
btp953
a((lp954
I6
ag23
(g24
(I0
tp955
g26
tp956
Rp957
(I1
(I1
tp958
g32
I00
S'\x05=D<'
p959
tp960
btp961
a((lp962
I12
ag23
(g24
(I0
tp963
g26
tp964
Rp965
(I1
(I1
tp966
g32
I00
S'\\\xf36<'
p967
tp968
btp969
a((lp970
I14
ag23
(g24
(I0
tp971
g26
tp972
Rp973
(I1
(I1
tp974
g32
I00
S'N\x8d6<'
p975
tp976
btp977
a((lp978
I18
ag23
(g24
(I0
tp979
g26
tp980
Rp981
(I1
(I1
tp982
g32
I00
S'PN+<'
p983
tp984
btp985
a((lp986
I0
ag23
(g24
(I0
tp987
g26
tp988
Rp989
(I1
(I1
tp990
g32
I00
S'\xbe,*<'
p991
tp992
btp993
asg1
(g5
S'\t\x00\x00\x00\x00\x00\x00\x00'
p994
tp995
Rp996
(lp997
((lp998
g1
(g15
S'\x00\x00\x00\xa0\x05\xd1\xd4?'
p999
tp1000
Rp1001
tp1002
a((lp1003
I5
ag23
(g24
(I0
tp1004
g26
tp1005
Rp1006
(I1
(I1
tp1007
g32
I00
S'\xd6\xff\xdd<'
p1008
tp1009
btp1010
a((lp1011
I5
ag23
(g24
(I0
tp1012
g26
tp1013
Rp1014
(I1
(I1
tp1015
g32
I00
S'g\x91\xb5<'
p1016
tp1017
btp1018
a((lp1019
I11
ag23
(g24
(I0
tp1020
g26
tp1021
Rp1022
(I1
(I1
tp1023
g32
I00
S'\xfd\x0f\xb2<'
p1024
tp1025
btp1026
a((lp1027
I2
ag23
(g24
(I0
tp1028
g26
tp1029
Rp1030
(I1
(I1
tp1031
g32
I00
S'k\xd5\x9a<'
p1032
tp1033
btp1034
a((lp1035
I19
ag23
(g24
(I0
tp1036
g26
tp1037
Rp1038
(I1
(I1
tp1039
g32
I00
S'\x0c\xd8\x92<'
p1040
tp1041
btp1042
a((lp1043
I10
ag23
(g24
(I0
tp1044
g26
tp1045
Rp1046
(I1
(I1
tp1047
g32
I00
S'\xd6T\x89<'
p1048
tp1049
btp1050
a((lp1051
I4
ag23
(g24
(I0
tp1052
g26
tp1053
Rp1054
(I1
(I1
tp1055
g32
I00
S'\xae\x05\x89<'
p1056
tp1057
btp1058
a((lp1059
I13
ag23
(g24
(I0
tp1060
g26
tp1061
Rp1062
(I1
(I1
tp1063
g32
I00
S'9\xb9\x88<'
p1064
tp1065
btp1066
a((lp1067
I8
ag23
(g24
(I0
tp1068
g26
tp1069
Rp1070
(I1
(I1
tp1071
g32
I00
S'zuy<'
p1072
tp1073
btp1074
a((lp1075
I18
ag23
(g24
(I0
tp1076
g26
tp1077
Rp1078
(I1
(I1
tp1079
g32
I00
S'\xe5`t<'
p1080
tp1081
btp1082
a((lp1083
I12
ag23
(g24
(I0
tp1084
g26
tp1085
Rp1086
(I1
(I1
tp1087
g32
I00
S'\xb8\xedg<'
p1088
tp1089
btp1090
a((lp1091
I6
ag23
(g24
(I0
tp1092
g26
tp1093
Rp1094
(I1
(I1
tp1095
g32
I00
S'EOg<'
p1096
tp1097
btp1098
a((lp1099
I15
ag23
(g24
(I0
tp1100
g26
tp1101
Rp1102
(I1
(I1
tp1103
g32
I00
S'\xda\xf9f<'
p1104
tp1105
btp1106
a((lp1107
I3
ag23
(g24
(I0
tp1108
g26
tp1109
Rp1110
(I1
(I1
tp1111
g32
I00
S'4\xe4f<'
p1112
tp1113
btp1114
a((lp1115
I17
ag23
(g24
(I0
tp1116
g26
tp1117
Rp1118
(I1
(I1
tp1119
g32
I00
S'\xee\x99e<'
p1120
tp1121
btp1122
a((lp1123
I11
ag23
(g24
(I0
tp1124
g26
tp1125
Rp1126
(I1
(I1
tp1127
g32
I00
S'Mob<'
p1128
tp1129
btp1130
a((lp1131
I1
ag23
(g24
(I0
tp1132
g26
tp1133
Rp1134
(I1
(I1
tp1135
g32
I00
S'\xfc\x8ea<'
p1136
tp1137
btp1138
a((lp1139
I0
ag23
(g24
(I0
tp1140
g26
tp1141
Rp1142
(I1
(I1
tp1143
g32
I00
S'\x91\xfdQ<'
p1144
tp1145
btp1146
a((lp1147
I14
ag23
(g24
(I0
tp1148
g26
tp1149
Rp1150
(I1
(I1
tp1151
g32
I00
S'\x7f0H<'
p1152
tp1153
btp1154
a((lp1155
I20
ag23
(g24
(I0
tp1156
g26
tp1157
Rp1158
(I1
(I1
tp1159
g32
I00
S'?DD<'
p1160
tp1161
btp1162
a((lp1163
I9
ag23
(g24
(I0
tp1164
g26
tp1165
Rp1166
(I1
(I1
tp1167
g32
I00
S'\xe4\x1dD<'
p1168
tp1169
btp1170
a((lp1171
I16
ag23
(g24
(I0
tp1172
g26
tp1173
Rp1174
(I1
(I1
tp1175
g32
I00
S'\x95\xa5B<'
p1176
tp1177
btp1178
a((lp1179
I7
ag23
(g24
(I0
tp1180
g26
tp1181
Rp1182
(I1
(I1
tp1183
g32
I00
S'WB><'
p1184
tp1185
btp1186
a((lp1187
I21
ag23
(g24
(I0
tp1188
g26
tp1189
Rp1190
(I1
(I1
tp1191
g32
I00
S'\xb3\x1a5<'
p1192
tp1193
btp1194
a((lp1195
I2
ag23
(g24
(I0
tp1196
g26
tp1197
Rp1198
(I1
(I1
tp1199
g32
I00
S'\xe9\xa92<'
p1200
tp1201
btp1202
asg1
(g5
S'\n\x00\x00\x00\x00\x00\x00\x00'
p1203
tp1204
Rp1205
(lp1206
((lp1207
g1
(g15
S'\x00\x00\x00 0\xcf\xd4?'
p1208
tp1209
Rp1210
tp1211
a((lp1212
I19
ag23
(g24
(I0
tp1213
g26
tp1214
Rp1215
(I1
(I1
tp1216
g32
I00
S'\xe9;\xa9<'
p1217
tp1218
btp1219
a((lp1220
I21
ag23
(g24
(I0
tp1221
g26
tp1222
Rp1223
(I1
(I1
tp1224
g32
I00
S'\x81\xf9\xa7<'
p1225
tp1226
btp1227
a((lp1228
I2
ag23
(g24
(I0
tp1229
g26
tp1230
Rp1231
(I1
(I1
tp1232
g32
I00
S'\x97P\x9d<'
p1233
tp1234
btp1235
a((lp1236
I8
ag23
(g24
(I0
tp1237
g26
tp1238
Rp1239
(I1
(I1
tp1240
g32
I00
S'\xd4}\x99<'
p1241
tp1242
btp1243
a((lp1244
I20
ag23
(g24
(I0
tp1245
g26
tp1246
Rp1247
(I1
(I1
tp1248
g32
I00
S'\xce\x9c\x8d<'
p1249
tp1250
btp1251
a((lp1252
I4
ag23
(g24
(I0
tp1253
g26
tp1254
Rp1255
(I1
(I1
tp1256
g32
I00
S'\x1e\x85\x86<'
p1257
tp1258
btp1259
a((lp1260
I6
ag23
(g24
(I0
tp1261
g26
tp1262
Rp1263
(I1
(I1
tp1264
g32
I00
S'}\x84\x84<'
p1265
tp1266
btp1267
a((lp1268
I10
ag23
(g24
(I0
tp1269
g26
tp1270
Rp1271
(I1
(I1
tp1272
g32
I00
S'\xb6\xbd\x7f<'
p1273
tp1274
btp1275
a((lp1276
I15
ag23
(g24
(I0
tp1277
g26
tp1278
Rp1279
(I1
(I1
tp1280
g32
I00
S'\x19y~<'
p1281
tp1282
btp1283
a((lp1284
I3
ag23
(g24
(I0
tp1285
g26
tp1286
Rp1287
(I1
(I1
tp1288
g32
I00
S':?s<'
p1289
tp1290
btp1291
a((lp1292
I9
ag23
(g24
(I0
tp1293
g26
tp1294
Rp1295
(I1
(I1
tp1296
g32
I00
S'\xca\xe5m<'
p1297
tp1298
btp1299
a((lp1300
I5
ag23
(g24
(I0
tp1301
g26
tp1302
Rp1303
(I1
(I1
tp1304
g32
I00
S'\xedcl<'
p1305
tp1306
btp1307
a((lp1308
I12
ag23
(g24
(I0
tp1309
g26
tp1310
Rp1311
(I1
(I1
tp1312
g32
I00
S':\xb6f<'
p1313
tp1314
btp1315
a((lp1316
I0
ag23
(g24
(I0
tp1317
g26
tp1318
Rp1319
(I1
(I1
tp1320
g32
I00
S'\xd1\x8ce<'
p1321
tp1322
btp1323
a((lp1324
I11
ag23
(g24
(I0
tp1325
g26
tp1326
Rp1327
(I1
(I1
tp1328
g32
I00
S'6qd<'
p1329
tp1330
btp1331
a((lp1332
I7
ag23
(g24
(I0
tp1333
g26
tp1334
Rp1335
(I1
(I1
tp1336
g32
I00
S'C?]<'
p1337
tp1338
btp1339
a((lp1340
I13
ag23
(g24
(I0
tp1341
g26
tp1342
Rp1343
(I1
(I1
tp1344
g32
I00
S'\x9c4\\<'
p1345
tp1346
btp1347
a((lp1348
I21
ag23
(g24
(I0
tp1349
g26
tp1350
Rp1351
(I1
(I1
tp1352
g32
I00
S'\xc2\x12X<'
p1353
tp1354
btp1355
a((lp1356
I16
ag23
(g24
(I0
tp1357
g26
tp1358
Rp1359
(I1
(I1
tp1360
g32
I00
S'\x13NW<'
p1361
tp1362
btp1363
a((lp1364
I18
ag23
(g24
(I0
tp1365
g26
tp1366
Rp1367
(I1
(I1
tp1368
g32
I00
S'\x85fP<'
p1369
tp1370
btp1371
a((lp1372
I19
ag23
(g24
(I0
tp1373
g26
tp1374
Rp1375
(I1
(I1
tp1376
g32
I00
S'\x1d\xfeN<'
p1377
tp1378
btp1379
a((lp1380
I17
ag23
(g24
(I0
tp1381
g26
tp1382
Rp1383
(I1
(I1
tp1384
g32
I00
S'\xc1\xe1B<'
p1385
tp1386
btp1387
a((lp1388
I1
ag23
(g24
(I0
tp1389
g26
tp1390
Rp1391
(I1
(I1
tp1392
g32
I00
S'@-A<'
p1393
tp1394
btp1395
a((lp1396
I14
ag23
(g24
(I0
tp1397
g26
tp1398
Rp1399
(I1
(I1
tp1400
g32
I00
S'\x9c\xe1<<'
p1401
tp1402
btp1403
a((lp1404
I2
ag23
(g24
(I0
tp1405
g26
tp1406
Rp1407
(I1
(I1
tp1408
g32
I00
S'\xc8\xfc5<'
p1409
tp1410
btp1411
a((lp1412
I8
ag23
(g24
(I0
tp1413
g26
tp1414
Rp1415
(I1
(I1
tp1416
g32
I00
S'\xf0\xae2<'
p1417
tp1418
btp1419
asg1
(g5
S'\x0b\x00\x00\x00\x00\x00\x00\x00'
p1420
tp1421
Rp1422
(lp1423
((lp1424
g1
(g15
S'\x00\x00\x00 \x8f\xb9\xd4?'
p1425
tp1426
Rp1427
tp1428
a((lp1429
I11
ag23
(g24
(I0
tp1430
g26
tp1431
Rp1432
(I1
(I1
tp1433
g32
I00
S'\xac\x8d\xb8<'
p1434
tp1435
btp1436
a((lp1437
I2
ag23
(g24
(I0
tp1438
g26
tp1439
Rp1440
(I1
(I1
tp1441
g32
I00
S'\xa9O\xa8<'
p1442
tp1443
btp1444
a((lp1445
I18
ag23
(g24
(I0
tp1446
g26
tp1447
Rp1448
(I1
(I1
tp1449
g32
I00
S'\xef\x9b\x9d<'
p1450
tp1451
btp1452
a((lp1453
I5
ag23
(g24
(I0
tp1454
g26
tp1455
Rp1456
(I1
(I1
tp1457
g32
I00
S'\xcc\xf6\x90<'
p1458
tp1459
btp1460
a((lp1461
I19
ag23
(g24
(I0
tp1462
g26
tp1463
Rp1464
(I1
(I1
tp1465
g32
I00
S'uA\x8f<'
p1466
tp1467
btp1468
a((lp1469
I13
ag23
(g24
(I0
tp1470
g26
tp1471
Rp1472
(I1
(I1
tp1473
g32
I00
S'\x881\x8a<'
p1474
tp1475
btp1476
a((lp1477
I4
ag23
(g24
(I0
tp1478
g26
tp1479
Rp1480
(I1
(I1
tp1481
g32
I00
S'L\xfb\x88<'
p1482
tp1483
btp1484
a((lp1485
I11
ag23
(g24
(I0
tp1486
g26
tp1487
Rp1488
(I1
(I1
tp1489
g32
I00
S'?\xfe\x80<'
p1490
tp1491
btp1492
a((lp1493
I1
ag23
(g24
(I0
tp1494
g26
tp1495
Rp1496
(I1
(I1
tp1497
g32
I00
S's\xf1|<'
p1498
tp1499
btp1500
a((lp1501
I15
ag23
(g24
(I0
tp1502
g26
tp1503
Rp1504
(I1
(I1
tp1505
g32
I00
S'\xe8fx<'
p1506
tp1507
btp1508
a((lp1509
I14
ag23
(g24
(I0
tp1510
g26
tp1511
Rp1512
(I1
(I1
tp1513
g32
I00
S'\xe1\x8ew<'
p1514
tp1515
btp1516
a((lp1517
I3
ag23
(g24
(I0
tp1518
g26
tp1519
Rp1520
(I1
(I1
tp1521
g32
I00
S'dyw<'
p1522
tp1523
btp1524
a((lp1525
I16
ag23
(g24
(I0
tp1526
g26
tp1527
Rp1528
(I1
(I1
tp1529
g32
I00
S';6l<'
p1530
tp1531
btp1532
a((lp1533
I20
ag23
(g24
(I0
tp1534
g26
tp1535
Rp1536
(I1
(I1
tp1537
g32
I00
S'd\xdec<'
p1538
tp1539
btp1540
a((lp1541
I12
ag23
(g24
(I0
tp1542
g26
tp1543
Rp1544
(I1
(I1
tp1545
g32
I00
S'\x03\x8e`<'
p1546
tp1547
btp1548
a((lp1549
I10
ag23
(g24
(I0
tp1550
g26
tp1551
Rp1552
(I1
(I1
tp1553
g32
I00
S'\x8bO[<'
p1554
tp1555
btp1556
a((lp1557
I0
ag23
(g24
(I0
tp1558
g26
tp1559
Rp1560
(I1
(I1
tp1561
g32
I00
S'\x885X<'
p1562
tp1563
btp1564
a((lp1565
I6
ag23
(g24
(I0
tp1566
g26
tp1567
Rp1568
(I1
(I1
tp1569
g32
I00
S'\x15\xb6S<'
p1570
tp1571
btp1572
a((lp1573
I2
ag23
(g24
(I0
tp1574
g26
tp1575
Rp1576
(I1
(I1
tp1577
g32
I00
S'(KQ<'
p1578
tp1579
btp1580
a((lp1581
I8
ag23
(g24
(I0
tp1582
g26
tp1583
Rp1584
(I1
(I1
tp1585
g32
I00
S'\x0e\xe8P<'
p1586
tp1587
btp1588
a((lp1589
I7
ag23
(g24
(I0
tp1590
g26
tp1591
Rp1592
(I1
(I1
tp1593
g32
I00
S'\xc1rF<'
p1594
tp1595
btp1596
a((lp1597
I17
ag23
(g24
(I0
tp1598
g26
tp1599
Rp1600
(I1
(I1
tp1601
g32
I00
S'\xe6\xcbB<'
p1602
tp1603
btp1604
a((lp1605
I21
ag23
(g24
(I0
tp1606
g26
tp1607
Rp1608
(I1
(I1
tp1609
g32
I00
S'/H?<'
p1610
tp1611
btp1612
a((lp1613
I18
ag23
(g24
(I0
tp1614
g26
tp1615
Rp1616
(I1
(I1
tp1617
g32
I00
S'\xbf\xfe<<'
p1618
tp1619
btp1620
a((lp1621
I9
ag23
(g24
(I0
tp1622
g26
tp1623
Rp1624
(I1
(I1
tp1625
g32
I00
S'!\xc3;<'
p1626
tp1627
btp1628
asg1
(g5
S'\x0c\x00\x00\x00\x00\x00\x00\x00'
p1629
tp1630
Rp1631
(lp1632
((lp1633
g1
(g15
S'\x00\x00\x00\x80\x87\xe6\xd4?'
p1634
tp1635
Rp1636
tp1637
a((lp1638
I8
ag23
(g24
(I0
tp1639
g26
tp1640
Rp1641
(I1
(I1
tp1642
g32
I00
S'9m\xdb<'
p1643
tp1644
btp1645
a((lp1646
I0
ag23
(g24
(I0
tp1647
g26
tp1648
Rp1649
(I1
(I1
tp1650
g32
I00
S'W\x16\xac<'
p1651
tp1652
btp1653
a((lp1654
I17
ag23
(g24
(I0
tp1655
g26
tp1656
Rp1657
(I1
(I1
tp1658
g32
I00
S'8o\xa5<'
p1659
tp1660
btp1661
a((lp1662
I8
ag23
(g24
(I0
tp1663
g26
tp1664
Rp1665
(I1
(I1
tp1666
g32
I00
S'\xc3\xdc\xa1<'
p1667
tp1668
btp1669
a((lp1670
I12
ag23
(g24
(I0
tp1671
g26
tp1672
Rp1673
(I1
(I1
tp1674
g32
I00
S'Yb\x8a<'
p1675
tp1676
btp1677
a((lp1678
I13
ag23
(g24
(I0
tp1679
g26
tp1680
Rp1681
(I1
(I1
tp1682
g32
I00
S'\x8b\x00\x89<'
p1683
tp1684
btp1685
a((lp1686
I9
ag23
(g24
(I0
tp1687
g26
tp1688
Rp1689
(I1
(I1
tp1690
g32
I00
S'u\x84\x80<'
p1691
tp1692
btp1693
a((lp1694
I11
ag23
(g24
(I0
tp1695
g26
tp1696
Rp1697
(I1
(I1
tp1698
g32
I00
S'\xefgy<'
p1699
tp1700
btp1701
a((lp1702
I5
ag23
(g24
(I0
tp1703
g26
tp1704
Rp1705
(I1
(I1
tp1706
g32
I00
S',\xe1q<'
p1707
tp1708
btp1709
a((lp1710
I10
ag23
(g24
(I0
tp1711
g26
tp1712
Rp1713
(I1
(I1
tp1714
g32
I00
S'\x05rq<'
p1715
tp1716
btp1717
a((lp1718
I18
ag23
(g24
(I0
tp1719
g26
tp1720
Rp1721
(I1
(I1
tp1722
g32
I00
S'\xa2Cq<'
p1723
tp1724
btp1725
a((lp1726
I4
ag23
(g24
(I0
tp1727
g26
tp1728
Rp1729
(I1
(I1
tp1730
g32
I00
S'\x11Rn<'
p1731
tp1732
btp1733
a((lp1734
I16
ag23
(g24
(I0
tp1735
g26
tp1736
Rp1737
(I1
(I1
tp1738
g32
I00
S'\xa1\xb4d<'
p1739
tp1740
btp1741
a((lp1742
I6
ag23
(g24
(I0
tp1743
g26
tp1744
Rp1745
(I1
(I1
tp1746
g32
I00
S'\xd3\x8ab<'
p1747
tp1748
btp1749
a((lp1750
I14
ag23
(g24
(I0
tp1751
g26
tp1752
Rp1753
(I1
(I1
tp1754
g32
I00
S'\x83\xc4`<'
p1755
tp1756
btp1757
a((lp1758
I1
ag23
(g24
(I0
tp1759
g26
tp1760
Rp1761
(I1
(I1
tp1762
g32
I00
S'\x1e\x89`<'
p1763
tp1764
btp1765
a((lp1766
I19
ag23
(g24
(I0
tp1767
g26
tp1768
Rp1769
(I1
(I1
tp1770
g32
I00
S'\xbd\x80^<'
p1771
tp1772
btp1773
a((lp1774
I3
ag23
(g24
(I0
tp1775
g26
tp1776
Rp1777
(I1
(I1
tp1778
g32
I00
S'\x12H\\<'
p1779
tp1780
btp1781
a((lp1782
I20
ag23
(g24
(I0
tp1783
g26
tp1784
Rp1785
(I1
(I1
tp1786
g32
I00
S'\x7f\x06W<'
p1787
tp1788
btp1789
a((lp1790
I2
ag23
(g24
(I0
tp1791
g26
tp1792
Rp1793
(I1
(I1
tp1794
g32
I00
S'TKV<'
p1795
tp1796
btp1797
a((lp1798
I0
ag23
(g24
(I0
tp1799
g26
tp1800
Rp1801
(I1
(I1
tp1802
g32
I00
S'I\x91U<'
p1803
tp1804
btp1805
a((lp1806
I21
ag23
(g24
(I0
tp1807
g26
tp1808
Rp1809
(I1
(I1
tp1810
g32
I00
S'\x1d\xcbI<'
p1811
tp1812
btp1813
a((lp1814
I17
ag23
(g24
(I0
tp1815
g26
tp1816
Rp1817
(I1
(I1
tp1818
g32
I00
S':\x97A<'
p1819
tp1820
btp1821
a((lp1822
I7
ag23
(g24
(I0
tp1823
g26
tp1824
Rp1825
(I1
(I1
tp1826
g32
I00
S'\xbb\xa7><'
p1827
tp1828
btp1829
a((lp1830
I15
ag23
(g24
(I0
tp1831
g26
tp1832
Rp1833
(I1
(I1
tp1834
g32
I00
S'\xb1L+<'
p1835
tp1836
btp1837
asg1
(g5
S'\x10\x00\x00\x00\x00\x00\x00\x00'
p1838
tp1839
Rp1840
(lp1841
((lp1842
g1
(g15
S'\x00\x00\x00`(\xe1\xd4?'
p1843
tp1844
Rp1845
tp1846
a((lp1847
I10
ag23
(g24
(I0
tp1848
g26
tp1849
Rp1850
(I1
(I1
tp1851
g32
I00
S'\xf6\x9d\xcb<'
p1852
tp1853
btp1854
a((lp1855
I14
ag23
(g24
(I0
tp1856
g26
tp1857
Rp1858
(I1
(I1
tp1859
g32
I00
S'yc\xb9<'
p1860
tp1861
btp1862
a((lp1863
I7
ag23
(g24
(I0
tp1864
g26
tp1865
Rp1866
(I1
(I1
tp1867
g32
I00
S'J]\xb1<'
p1868
tp1869
btp1870
a((lp1871
I10
ag23
(g24
(I0
tp1872
g26
tp1873
Rp1874
(I1
(I1
tp1875
g32
I00
S'C\xc2\x93<'
p1876
tp1877
btp1878
a((lp1879
I17
ag23
(g24
(I0
tp1880
g26
tp1881
Rp1882
(I1
(I1
tp1883
g32
I00
S'(\x15\x86<'
p1884
tp1885
btp1886
a((lp1887
I11
ag23
(g24
(I0
tp1888
g26
tp1889
Rp1890
(I1
(I1
tp1891
g32
I00
S'\x97Q\x85<'
p1892
tp1893
btp1894
a((lp1895
I2
ag23
(g24
(I0
tp1896
g26
tp1897
Rp1898
(I1
(I1
tp1899
g32
I00
S'\xf4\xed\x82<'
p1900
tp1901
btp1902
a((lp1903
I0
ag23
(g24
(I0
tp1904
g26
tp1905
Rp1906
(I1
(I1
tp1907
g32
I00
S'\x1a\x8b\x82<'
p1908
tp1909
btp1910
a((lp1911
I6
ag23
(g24
(I0
tp1912
g26
tp1913
Rp1914
(I1
(I1
tp1915
g32
I00
S'\x10\x15\x82<'
p1916
tp1917
btp1918
a((lp1919
I9
ag23
(g24
(I0
tp1920
g26
tp1921
Rp1922
(I1
(I1
tp1923
g32
I00
S'\xaa\xf0|<'
p1924
tp1925
btp1926
a((lp1927
I15
ag23
(g24
(I0
tp1928
g26
tp1929
Rp1930
(I1
(I1
tp1931
g32
I00
S'o\xccy<'
p1932
tp1933
btp1934
a((lp1935
I4
ag23
(g24
(I0
tp1936
g26
tp1937
Rp1938
(I1
(I1
tp1939
g32
I00
S'\xe4fy<'
p1940
tp1941
btp1942
a((lp1943
I5
ag23
(g24
(I0
tp1944
g26
tp1945
Rp1946
(I1
(I1
tp1947
g32
I00
S'\xc0Ft<'
p1948
tp1949
btp1950
a((lp1951
I14
ag23
(g24
(I0
tp1952
g26
tp1953
Rp1954
(I1
(I1
tp1955
g32
I00
S'\xa0\xe9r<'
p1956
tp1957
btp1958
a((lp1959
I13
ag23
(g24
(I0
tp1960
g26
tp1961
Rp1962
(I1
(I1
tp1963
g32
I00
S'\xae\x0ep<'
p1964
tp1965
btp1966
a((lp1967
I7
ag23
(g24
(I0
tp1968
g26
tp1969
Rp1970
(I1
(I1
tp1971
g32
I00
S'\xf7[m<'
p1972
tp1973
btp1974
a((lp1975
I18
ag23
(g24
(I0
tp1976
g26
tp1977
Rp1978
(I1
(I1
tp1979
g32
I00
S'\xfd\x86b<'
p1980
tp1981
btp1982
a((lp1983
I12
ag23
(g24
(I0
tp1984
g26
tp1985
Rp1986
(I1
(I1
tp1987
g32
I00
S'\x1c\xb5`<'
p1988
tp1989
btp1990
a((lp1991
I3
ag23
(g24
(I0
tp1992
g26
tp1993
Rp1994
(I1
(I1
tp1995
g32
I00
S'\xb2xK<'
p1996
tp1997
btp1998
a((lp1999
I8
ag23
(g24
(I0
tp2000
g26
tp2001
Rp2002
(I1
(I1
tp2003
g32
I00
S'!!F<'
p2004
tp2005
btp2006
a((lp2007
I1
ag23
(g24
(I0
tp2008
g26
tp2009
Rp2010
(I1
(I1
tp2011
g32
I00
S'\xa0:C<'
p2012
tp2013
btp2014
a((lp2015
I19
ag23
(g24
(I0
tp2016
g26
tp2017
Rp2018
(I1
(I1
tp2019
g32
I00
S'\xb3%C<'
p2020
tp2021
btp2022
a((lp2023
I20
ag23
(g24
(I0
tp2024
g26
tp2025
Rp2026
(I1
(I1
tp2027
g32
I00
S'(\x10><'
p2028
tp2029
btp2030
a((lp2031
I16
ag23
(g24
(I0
tp2032
g26
tp2033
Rp2034
(I1
(I1
tp2035
g32
I00
S'\xfd85<'
p2036
tp2037
btp2038
a((lp2039
I21
ag23
(g24
(I0
tp2040
g26
tp2041
Rp2042
(I1
(I1
tp2043
g32
I00
S'D\xa1+<'
p2044
tp2045
btp2046
asg1
(g5
S'\x12\x00\x00\x00\x00\x00\x00\x00'
p2047
tp2048
Rp2049
(lp2050
((lp2051
g1
(g15
S'\x00\x00\x00@"k\xd4?'
p2052
tp2053
Rp2054
tp2055
a((lp2056
I5
ag23
(g24
(I0
tp2057
g26
tp2058
Rp2059
(I1
(I1
tp2060
g32
I00
S'\xd8)G='
p2061
tp2062
btp2063
a((lp2064
I5
ag23
(g24
(I0
tp2065
g26
tp2066
Rp2067
(I1
(I1
tp2068
g32
I00
S'\x9f\xd2:='
p2069
tp2070
btp2071
a((lp2072
I11
ag23
(g24
(I0
tp2073
g26
tp2074
Rp2075
(I1
(I1
tp2076
g32
I00
S'\x88B\xd6<'
p2077
tp2078
btp2079
a((lp2080
I2
ag23
(g24
(I0
tp2081
g26
tp2082
Rp2083
(I1
(I1
tp2084
g32
I00
S'K\xf3\xd4<'
p2085
tp2086
btp2087
a((lp2088
I19
ag23
(g24
(I0
tp2089
g26
tp2090
Rp2091
(I1
(I1
tp2092
g32
I00
S'\xa1^\x9c<'
p2093
tp2094
btp2095
a((lp2096
I4
ag23
(g24
(I0
tp2097
g26
tp2098
Rp2099
(I1
(I1
tp2100
g32
I00
S'M*\x91<'
p2101
tp2102
btp2103
a((lp2104
I11
ag23
(g24
(I0
tp2105
g26
tp2106
Rp2107
(I1
(I1
tp2108
g32
I00
S',\xad\x87<'
p2109
tp2110
btp2111
a((lp2112
I2
ag23
(g24
(I0
tp2113
g26
tp2114
Rp2115
(I1
(I1
tp2116
g32
I00
S'\x87d\x84<'
p2117
tp2118
btp2119
a((lp2120
I3
ag23
(g24
(I0
tp2121
g26
tp2122
Rp2123
(I1
(I1
tp2124
g32
I00
S'\x04\x0f\x82<'
p2125
tp2126
btp2127
a((lp2128
I12
ag23
(g24
(I0
tp2129
g26
tp2130
Rp2131
(I1
(I1
tp2132
g32
I00
S'q\xeat<'
p2133
tp2134
btp2135
a((lp2136
I13
ag23
(g24
(I0
tp2137
g26
tp2138
Rp2139
(I1
(I1
tp2140
g32
I00
S',\x8ej<'
p2141
tp2142
btp2143
a((lp2144
I20
ag23
(g24
(I0
tp2145
g26
tp2146
Rp2147
(I1
(I1
tp2148
g32
I00
S'Djc<'
p2149
tp2150
btp2151
a((lp2152
I18
ag23
(g24
(I0
tp2153
g26
tp2154
Rp2155
(I1
(I1
tp2156
g32
I00
S'\xa0\xe8a<'
p2157
tp2158
btp2159
a((lp2160
I0
ag23
(g24
(I0
tp2161
g26
tp2162
Rp2163
(I1
(I1
tp2164
g32
I00
S'Z\xe2]<'
p2165
tp2166
btp2167
a((lp2168
I16
ag23
(g24
(I0
tp2169
g26
tp2170
Rp2171
(I1
(I1
tp2172
g32
I00
S'\x93lU<'
p2173
tp2174
btp2175
a((lp2176
I15
ag23
(g24
(I0
tp2177
g26
tp2178
Rp2179
(I1
(I1
tp2180
g32
I00
S'\x85\xb2M<'
p2181
tp2182
btp2183
a((lp2184
I1
ag23
(g24
(I0
tp2185
g26
tp2186
Rp2187
(I1
(I1
tp2188
g32
I00
S'=\x1bM<'
p2189
tp2190
btp2191
a((lp2192
I6
ag23
(g24
(I0
tp2193
g26
tp2194
Rp2195
(I1
(I1
tp2196
g32
I00
S'\x85HH<'
p2197
tp2198
btp2199
a((lp2200
I14
ag23
(g24
(I0
tp2201
g26
tp2202
Rp2203
(I1
(I1
tp2204
g32
I00
S'm\x85A<'
p2205
tp2206
btp2207
a((lp2208
I9
ag23
(g24
(I0
tp2209
g26
tp2210
Rp2211
(I1
(I1
tp2212
g32
I00
S'\xde\x02;<'
p2213
tp2214
btp2215
a((lp2216
I10
ag23
(g24
(I0
tp2217
g26
tp2218
Rp2219
(I1
(I1
tp2220
g32
I00
S'\x9a2%<'
p2221
tp2222
btp2223
asg1
(g5
S'\x13\x00\x00\x00\x00\x00\x00\x00'
p2224
tp2225
Rp2226
(lp2227
((lp2228
g1
(g15
S'\x00\x00\x00\x80\x86\x10\xd4?'
p2229
tp2230
Rp2231
tp2232
a((lp2233
I5
ag23
(g24
(I0
tp2234
g26
tp2235
Rp2236
(I1
(I1
tp2237
g32
I00
S'\xc4\x83\x94='
p2238
tp2239
btp2240
a((lp2241
I5
ag23
(g24
(I0
tp2242
g26
tp2243
Rp2244
(I1
(I1
tp2245
g32
I00
S'\xa5\x13v='
p2246
tp2247
btp2248
a((lp2249
I13
ag23
(g24
(I0
tp2250
g26
tp2251
Rp2252
(I1
(I1
tp2253
g32
I00
S'\xf1\x0b\xbd<'
p2254
tp2255
btp2256
a((lp2257
I11
ag23
(g24
(I0
tp2258
g26
tp2259
Rp2260
(I1
(I1
tp2261
g32
I00
S'\xbb:\xb2<'
p2262
tp2263
btp2264
a((lp2265
I2
ag23
(g24
(I0
tp2266
g26
tp2267
Rp2268
(I1
(I1
tp2269
g32
I00
S'\xa9o\xad<'
p2270
tp2271
btp2272
a((lp2273
I16
ag23
(g24
(I0
tp2274
g26
tp2275
Rp2276
(I1
(I1
tp2277
g32
I00
S'\xbf\x0f\x99<'
p2278
tp2279
btp2280
a((lp2281
I18
ag23
(g24
(I0
tp2282
g26
tp2283
Rp2284
(I1
(I1
tp2285
g32
I00
S'\x11~s<'
p2286
tp2287
btp2288
a((lp2289
I4
ag23
(g24
(I0
tp2290
g26
tp2291
Rp2292
(I1
(I1
tp2293
g32
I00
S':5m<'
p2294
tp2295
btp2296
a((lp2297
I17
ag23
(g24
(I0
tp2298
g26
tp2299
Rp2300
(I1
(I1
tp2301
g32
I00
S'\xe4\xe5k<'
p2302
tp2303
btp2304
a((lp2305
I5
aI5
ag23
(g24
(I0
tp2306
g26
tp2307
Rp2308
(I1
(I1
tp2309
g32
I00
S'\xd1\xd2d<'
p2310
tp2311
btp2312
a((lp2313
I12
ag23
(g24
(I0
tp2314
g26
tp2315
Rp2316
(I1
(I1
tp2317
g32
I00
S']`W<'
p2318
tp2319
btp2320
a((lp2321
I15
ag23
(g24
(I0
tp2322
g26
tp2323
Rp2324
(I1
(I1
tp2325
g32
I00
S'\x01\xe9R<'
p2326
tp2327
btp2328
a((lp2329
I8
ag23
(g24
(I0
tp2330
g26
tp2331
Rp2332
(I1
(I1
tp2333
g32
I00
S'/oK<'
p2334
tp2335
btp2336
a((lp2337
I19
ag23
(g24
(I0
tp2338
g26
tp2339
Rp2340
(I1
(I1
tp2341
g32
I00
S'\xd2\x99F<'
p2342
tp2343
btp2344
a((lp2345
I6
ag23
(g24
(I0
tp2346
g26
tp2347
Rp2348
(I1
(I1
tp2349
g32
I00
S'\xd3\x1fD<'
p2350
tp2351
btp2352
a((lp2353
I9
ag23
(g24
(I0
tp2354
g26
tp2355
Rp2356
(I1
(I1
tp2357
g32
I00
S'Z\x91><'
p2358
tp2359
btp2360
a((lp2361
I0
ag23
(g24
(I0
tp2362
g26
tp2363
Rp2364
(I1
(I1
tp2365
g32
I00
S's\xac:<'
p2366
tp2367
btp2368
a((lp2369
I3
ag23
(g24
(I0
tp2370
g26
tp2371
Rp2372
(I1
(I1
tp2373
g32
I00
S'y\xb37<'
p2374
tp2375
btp2376
a((lp2377
I11
ag23
(g24
(I0
tp2378
g26
tp2379
Rp2380
(I1
(I1
tp2381
g32
I00
S'\xca<7<'
p2382
tp2383
btp2384
a((lp2385
I13
ag23
(g24
(I0
tp2386
g26
tp2387
Rp2388
(I1
(I1
tp2389
g32
I00
S'\xc6\xa83<'
p2390
tp2391
btp2392
a((lp2393
I1
ag23
(g24
(I0
tp2394
g26
tp2395
Rp2396
(I1
(I1
tp2397
g32
I00
S'\x89\xc0$<'
p2398
tp2399
btp2400
asg1
(g5
S'\x14\x00\x00\x00\x00\x00\x00\x00'
p2401
tp2402
Rp2403
(lp2404
((lp2405
g1
(g15
S'\x00\x00\x00\xc0\xd1\xc7\xd4?'
p2406
tp2407
Rp2408
tp2409
a((lp2410
I21
ag23
(g24
(I0
tp2411
g26
tp2412
Rp2413
(I1
(I1
tp2414
g32
I00
S'W.\xa1<'
p2415
tp2416
btp2417
a((lp2418
I16
ag23
(g24
(I0
tp2419
g26
tp2420
Rp2421
(I1
(I1
tp2422
g32
I00
S'\xd0\x87\x9d<'
p2423
tp2424
btp2425
a((lp2426
I3
ag23
(g24
(I0
tp2427
g26
tp2428
Rp2429
(I1
(I1
tp2430
g32
I00
S'\xbf\xc3\x90<'
p2431
tp2432
btp2433
a((lp2434
I18
ag23
(g24
(I0
tp2435
g26
tp2436
Rp2437
(I1
(I1
tp2438
g32
I00
S'V[\x8f<'
p2439
tp2440
btp2441
a((lp2442
I17
ag23
(g24
(I0
tp2443
g26
tp2444
Rp2445
(I1
(I1
tp2446
g32
I00
S'\x87\xd2\x8e<'
p2447
tp2448
btp2449
a((lp2450
I5
ag23
(g24
(I0
tp2451
g26
tp2452
Rp2453
(I1
(I1
tp2454
g32
I00
S'\x90\xe4\x88<'
p2455
tp2456
btp2457
a((lp2458
I2
ag23
(g24
(I0
tp2459
g26
tp2460
Rp2461
(I1
(I1
tp2462
g32
I00
S'hS\x81<'
p2463
tp2464
btp2465
a((lp2466
I6
ag23
(g24
(I0
tp2467
g26
tp2468
Rp2469
(I1
(I1
tp2470
g32
I00
S'\xd5\xce\x80<'
p2471
tp2472
btp2473
a((lp2474
I1
ag23
(g24
(I0
tp2475
g26
tp2476
Rp2477
(I1
(I1
tp2478
g32
I00
S'"\xca{<'
p2479
tp2480
btp2481
a((lp2482
I8
ag23
(g24
(I0
tp2483
g26
tp2484
Rp2485
(I1
(I1
tp2486
g32
I00
S'\xff\x0fx<'
p2487
tp2488
btp2489
a((lp2490
I0
ag23
(g24
(I0
tp2491
g26
tp2492
Rp2493
(I1
(I1
tp2494
g32
I00
S'x\xf5u<'
p2495
tp2496
btp2497
a((lp2498
I4
ag23
(g24
(I0
tp2499
g26
tp2500
Rp2501
(I1
(I1
tp2502
g32
I00
S'\xd8ao<'
p2503
tp2504
btp2505
a((lp2506
I13
ag23
(g24
(I0
tp2507
g26
tp2508
Rp2509
(I1
(I1
tp2510
g32
I00
S'\xf6\xdbm<'
p2511
tp2512
btp2513
a((lp2514
I7
ag23
(g24
(I0
tp2515
g26
tp2516
Rp2517
(I1
(I1
tp2518
g32
I00
S'\xf6Jj<'
p2519
tp2520
btp2521
a((lp2522
I14
ag23
(g24
(I0
tp2523
g26
tp2524
Rp2525
(I1
(I1
tp2526
g32
I00
S'\xa8ld<'
p2527
tp2528
btp2529
a((lp2530
I19
ag23
(g24
(I0
tp2531
g26
tp2532
Rp2533
(I1
(I1
tp2534
g32
I00
S'\x10\xd0a<'
p2535
tp2536
btp2537
a((lp2538
I20
ag23
(g24
(I0
tp2539
g26
tp2540
Rp2541
(I1
(I1
tp2542
g32
I00
S'\x13\xe3\\<'
p2543
tp2544
btp2545
a((lp2546
I11
ag23
(g24
(I0
tp2547
g26
tp2548
Rp2549
(I1
(I1
tp2550
g32
I00
S'\x877Y<'
p2551
tp2552
btp2553
a((lp2554
I9
ag23
(g24
(I0
tp2555
g26
tp2556
Rp2557
(I1
(I1
tp2558
g32
I00
S'\n-W<'
p2559
tp2560
btp2561
a((lp2562
I12
ag23
(g24
(I0
tp2563
g26
tp2564
Rp2565
(I1
(I1
tp2566
g32
I00
S'z\xa2S<'
p2567
tp2568
btp2569
a((lp2570
I15
ag23
(g24
(I0
tp2571
g26
tp2572
Rp2573
(I1
(I1
tp2574
g32
I00
S'i\xa5O<'
p2575
tp2576
btp2577
a((lp2578
I16
ag23
(g24
(I0
tp2579
g26
tp2580
Rp2581
(I1
(I1
tp2582
g32
I00
S'\x87_?<'
p2583
tp2584
btp2585
a((lp2586
I21
ag23
(g24
(I0
tp2587
g26
tp2588
Rp2589
(I1
(I1
tp2590
g32
I00
S'\xaes><'
p2591
tp2592
btp2593
a((lp2594
I10
ag23
(g24
(I0
tp2595
g26
tp2596
Rp2597
(I1
(I1
tp2598
g32
I00
S'J\x1f7<'
p2599
tp2600
btp2601
a((lp2602
I3
ag23
(g24
(I0
tp2603
g26
tp2604
Rp2605
(I1
(I1
tp2606
g32
I00
S'(\xd6&<'
p2607
tp2608
btp2609
asg1
(g5
S'\x15\x00\x00\x00\x00\x00\x00\x00'
p2610
tp2611
Rp2612
(lp2613
((lp2614
g1
(g15
S'\x00\x00\x00\xa0^k\xd4?'
p2615
tp2616
Rp2617
tp2618
a((lp2619
I8
ag23
(g24
(I0
tp2620
g26
tp2621
Rp2622
(I1
(I1
tp2623
g32
I00
S'\xbcE\xac='
p2624
tp2625
btp2626
a((lp2627
I8
ag23
(g24
(I0
tp2628
g26
tp2629
Rp2630
(I1
(I1
tp2631
g32
I00
S'\xa7\x04\x89='
p2632
tp2633
btp2634
a((lp2635
I8
aI8
ag23
(g24
(I0
tp2636
g26
tp2637
Rp2638
(I1
(I1
tp2639
g32
I00
S'\xb2\xe0\x91<'
p2640
tp2641
btp2642
a((lp2643
I4
ag23
(g24
(I0
tp2644
g26
tp2645
Rp2646
(I1
(I1
tp2647
g32
I00
S'\x9dv\x91<'
p2648
tp2649
btp2650
a((lp2651
I18
ag23
(g24
(I0
tp2652
g26
tp2653
Rp2654
(I1
(I1
tp2655
g32
I00
S'z+\x84<'
p2656
tp2657
btp2658
a((lp2659
I5
ag23
(g24
(I0
tp2660
g26
tp2661
Rp2662
(I1
(I1
tp2663
g32
I00
S']\x80y<'
p2664
tp2665
btp2666
a((lp2667
I13
ag23
(g24
(I0
tp2668
g26
tp2669
Rp2670
(I1
(I1
tp2671
g32
I00
S'\xb3\xddw<'
p2672
tp2673
btp2674
a((lp2675
I17
ag23
(g24
(I0
tp2676
g26
tp2677
Rp2678
(I1
(I1
tp2679
g32
I00
S'\xaafq<'
p2680
tp2681
btp2682
a((lp2683
I12
ag23
(g24
(I0
tp2684
g26
tp2685
Rp2686
(I1
(I1
tp2687
g32
I00
S'\x0c>n<'
p2688
tp2689
btp2690
a((lp2691
I7
ag23
(g24
(I0
tp2692
g26
tp2693
Rp2694
(I1
(I1
tp2695
g32
I00
S'\x13\x0fl<'
p2696
tp2697
btp2698
a((lp2699
I1
ag23
(g24
(I0
tp2700
g26
tp2701
Rp2702
(I1
(I1
tp2703
g32
I00
S'\\4f<'
p2704
tp2705
btp2706
a((lp2707
I0
ag23
(g24
(I0
tp2708
g26
tp2709
Rp2710
(I1
(I1
tp2711
g32
I00
S'\xed\xf3e<'
p2712
tp2713
btp2714
a((lp2715
I3
ag23
(g24
(I0
tp2716
g26
tp2717
Rp2718
(I1
(I1
tp2719
g32
I00
S'E\xadc<'
p2720
tp2721
btp2722
a((lp2723
I19
ag23
(g24
(I0
tp2724
g26
tp2725
Rp2726
(I1
(I1
tp2727
g32
I00
S'd\xc8[<'
p2728
tp2729
btp2730
a((lp2731
I2
ag23
(g24
(I0
tp2732
g26
tp2733
Rp2734
(I1
(I1
tp2735
g32
I00
S'\xce\xd1Y<'
p2736
tp2737
btp2738
a((lp2739
I11
ag23
(g24
(I0
tp2740
g26
tp2741
Rp2742
(I1
(I1
tp2743
g32
I00
S'1\xb7W<'
p2744
tp2745
btp2746
a((lp2747
I10
ag23
(g24
(I0
tp2748
g26
tp2749
Rp2750
(I1
(I1
tp2751
g32
I00
S'O\x94I<'
p2752
tp2753
btp2754
a((lp2755
I15
ag23
(g24
(I0
tp2756
g26
tp2757
Rp2758
(I1
(I1
tp2759
g32
I00
S'\x94\xf4E<'
p2760
tp2761
btp2762
a((lp2763
I16
ag23
(g24
(I0
tp2764
g26
tp2765
Rp2766
(I1
(I1
tp2767
g32
I00
S'\xef(D<'
p2768
tp2769
btp2770
a((lp2771
I14
ag23
(g24
(I0
tp2772
g26
tp2773
Rp2774
(I1
(I1
tp2775
g32
I00
S'\xa42?<'
p2776
tp2777
btp2778
a((lp2779
I6
ag23
(g24
(I0
tp2780
g26
tp2781
Rp2782
(I1
(I1
tp2783
g32
I00
S'\x10\x032<'
p2784
tp2785
btp2786
as.