(dp0
cnumpy.core.multiarray
scalar
p1
(cnumpy
dtype
p2
(S'i8'
p3
I0
I1
tp4
Rp5
(I3
S'<'
p6
NNNI-1
I-1
I0
tp7
bS'\x00\x00\x00\x00\x00\x00\x00\x00'
p8
tp9
Rp10
(lp11
((lp12
g1
(g2
(S'f8'
p13
I0
I1
tp14
Rp15
(I3
S'<'
p16
NNNI-1
I-1
I0
tp17
bS'\x00\x00\x00 \xaeV\xd1?'
p18
tp19
Rp20
tp21
a((lp22
I17
acnumpy.core.multiarray
_reconstruct
p23
(cnumpy
ndarray
p24
(I0
tp25
S'b'
p26
tp27
Rp28
(I1
(I1
tp29
g2
(S'f4'
p30
I0
I1
tp31
Rp32
(I3
S'<'
p33
NNNI-1
I-1
I0
tp34
bI00
S'\xd5\xff\x1e>'
p35
tp36
btp37
a((lp38
I17
ag23
(g24
(I0
tp39
g26
tp40
Rp41
(I1
(I1
tp42
g32
I00
S'\xde\xc8\x0b>'
p43
tp44
btp45
a((lp46
I17
aI17
ag23
(g24
(I0
tp47
g26
tp48
Rp49
(I1
(I1
tp50
g32
I00
S'\xec\xf8\x9e='
p51
tp52
btp53
a((lp54
I8
ag23
(g24
(I0
tp55
g26
tp56
Rp57
(I1
(I1
tp58
g32
I00
S'U\xa0\x99<'
p59
tp60
btp61
a((lp62
I13
ag23
(g24
(I0
tp63
g26
tp64
Rp65
(I1
(I1
tp66
g32
I00
S'dr\x89<'
p67
tp68
btp69
a((lp70
I0
ag23
(g24
(I0
tp71
g26
tp72
Rp73
(I1
(I1
tp74
g32
I00
S'\x9a8w<'
p75
tp76
btp77
a((lp78
I19
ag23
(g24
(I0
tp79
g26
tp80
Rp81
(I1
(I1
tp82
g32
I00
S'\xee>U<'
p83
tp84
btp85
a((lp86
I3
ag23
(g24
(I0
tp87
g26
tp88
Rp89
(I1
(I1
tp90
g32
I00
S'\xfdrT<'
p91
tp92
btp93
a((lp94
I12
ag23
(g24
(I0
tp95
g26
tp96
Rp97
(I1
(I1
tp98
g32
I00
S'm\x10Q<'
p99
tp100
btp101
a((lp102
I1
ag23
(g24
(I0
tp103
g26
tp104
Rp105
(I1
(I1
tp106
g32
I00
S'\x96:=<'
p107
tp108
btp109
a((lp110
I21
ag23
(g24
(I0
tp111
g26
tp112
Rp113
(I1
(I1
tp114
g32
I00
S'\xb4_7<'
p115
tp116
btp117
a((lp118
I11
ag23
(g24
(I0
tp119
g26
tp120
Rp121
(I1
(I1
tp122
g32
I00
S'\x9e\xa86<'
p123
tp124
btp125
a((lp126
I8
aI17
ag23
(g24
(I0
tp127
g26
tp128
Rp129
(I1
(I1
tp130
g32
I00
S'\xca\xb6.<'
p131
tp132
btp133
asg1
(g5
S'\x02\x00\x00\x00\x00\x00\x00\x00'
p134
tp135
Rp136
(lp137
((lp138
g1
(g15
S'\x00\x00\x00 \xa3\x8f\xd3?'
p139
tp140
Rp141
tp142
a((lp143
I9
ag23
(g24
(I0
tp144
g26
tp145
Rp146
(I1
(I1
tp147
g32
I00
S'\xbe\x8b\xf7='
p148
tp149
btp150
a((lp151
I9
ag23
(g24
(I0
tp152
g26
tp153
Rp154
(I1
(I1
tp155
g32
I00
S'\xe1\xdd\xb4='
p156
tp157
btp158
a((lp159
I9
aI9
ag23
(g24
(I0
tp160
g26
tp161
Rp162
(I1
(I1
tp163
g32
I00
S'u\xc2\x11='
p164
tp165
btp166
a((lp167
I2
ag23
(g24
(I0
tp168
g26
tp169
Rp170
(I1
(I1
tp171
g32
I00
S'\xa3+\xb3<'
p172
tp173
btp174
a((lp175
I5
ag23
(g24
(I0
tp176
g26
tp177
Rp178
(I1
(I1
tp179
g32
I00
S'\xe2\x94\x89<'
p180
tp181
btp182
a((lp183
I21
ag23
(g24
(I0
tp184
g26
tp185
Rp186
(I1
(I1
tp187
g32
I00
S'\x9b\x00h<'
p188
tp189
btp190
a((lp191
I10
ag23
(g24
(I0
tp192
g26
tp193
Rp194
(I1
(I1
tp195
g32
I00
S'k\xdbf<'
p196
tp197
btp198
a((lp199
I14
ag23
(g24
(I0
tp200
g26
tp201
Rp202
(I1
(I1
tp203
g32
I00
S'V[e<'
p204
tp205
btp206
a((lp207
I1
ag23
(g24
(I0
tp208
g26
tp209
Rp210
(I1
(I1
tp211
g32
I00
S'\x8c\x9fd<'
p212
tp213
btp214
a((lp215
I20
ag23
(g24
(I0
tp216
g26
tp217
Rp218
(I1
(I1
tp219
g32
I00
S'Yod<'
p220
tp221
btp222
a((lp223
I11
ag23
(g24
(I0
tp224
g26
tp225
Rp226
(I1
(I1
tp227
g32
I00
S'K\x82X<'
p228
tp229
btp230
a((lp231
I8
ag23
(g24
(I0
tp232
g26
tp233
Rp234
(I1
(I1
tp235
g32
I00
S'\xbe\xa0K<'
p236
tp237
btp238
a((lp239
I15
ag23
(g24
(I0
tp240
g26
tp241
Rp242
(I1
(I1
tp243
g32
I00
S'\x91bJ<'
p244
tp245
btp246
a((lp247
I18
ag23
(g24
(I0
tp248
g26
tp249
Rp250
(I1
(I1
tp251
g32
I00
S'\xe4DI<'
p252
tp253
btp254
a((lp255
I13
ag23
(g24
(I0
tp256
g26
tp257
Rp258
(I1
(I1
tp259
g32
I00
S'\xa3\x16<<'
p260
tp261
btp262
a((lp263
I16
ag23
(g24
(I0
tp264
g26
tp265
Rp266
(I1
(I1
tp267
g32
I00
S'\x16\xa64<'
p268
tp269
btp270
asg1
(g5
S'\x03\x00\x00\x00\x00\x00\x00\x00'
p271
tp272
Rp273
(lp274
((lp275
g1
(g15
S'\x00\x00\x00 c\xb3\xd2?'
p276
tp277
Rp278
tp279
a((lp280
I0
ag23
(g24
(I0
tp281
g26
tp282
Rp283
(I1
(I1
tp284
g32
I00
S'\xe9\xd5\xb0='
p285
tp286
btp287
a((lp288
I0
ag23
(g24
(I0
tp289
g26
tp290
Rp291
(I1
(I1
tp292
g32
I00
S'Wu|='
p293
tp294
btp295
a((lp296
I17
ag23
(g24
(I0
tp297
g26
tp298
Rp299
(I1
(I1
tp300
g32
I00
S'[\x1a\x10='
p301
tp302
btp303
a((lp304
I17
ag23
(g24
(I0
tp305
g26
tp306
Rp307
(I1
(I1
tp308
g32
I00
S'\xe9\x91\xeb<'
p309
tp310
btp311
a((lp312
I12
ag23
(g24
(I0
tp313
g26
tp314
Rp315
(I1
(I1
tp316
g32
I00
S']\r\x9b<'
p317
tp318
btp319
a((lp320
I0
aI0
ag23
(g24
(I0
tp321
g26
tp322
Rp323
(I1
(I1
tp324
g32
I00
S'L}\x93<'
p325
tp326
btp327
a((lp328
I7
ag23
(g24
(I0
tp329
g26
tp330
Rp331
(I1
(I1
tp332
g32
I00
S'\xce\xb4\x86<'
p333
tp334
btp335
a((lp336
I1
ag23
(g24
(I0
tp337
g26
tp338
Rp339
(I1
(I1
tp340
g32
I00
S'5\xc8\x81<'
p341
tp342
btp343
a((lp344
I20
ag23
(g24
(I0
tp345
g26
tp346
Rp347
(I1
(I1
tp348
g32
I00
S'\xce,}<'
p349
tp350
btp351
a((lp352
I8
ag23
(g24
(I0
tp353
g26
tp354
Rp355
(I1
(I1
tp356
g32
I00
S'LHq<'
p357
tp358
btp359
a((lp360
I19
ag23
(g24
(I0
tp361
g26
tp362
Rp363
(I1
(I1
tp364
g32
I00
S'mAh<'
p365
tp366
btp367
a((lp368
I3
ag23
(g24
(I0
tp369
g26
tp370
Rp371
(I1
(I1
tp372
g32
I00
S'r\xe0f<'
p373
tp374
btp375
a((lp376
I18
ag23
(g24
(I0
tp377
g26
tp378
Rp379
(I1
(I1
tp380
g32
I00
S'nP@<'
p381
tp382
btp383
a((lp384
I21
ag23
(g24
(I0
tp385
g26
tp386
Rp387
(I1
(I1
tp388
g32
I00
S'fX3<'
p389
tp390
btp391
a((lp392
I6
ag23
(g24
(I0
tp393
g26
tp394
Rp395
(I1
(I1
tp396
g32
I00
S'E\x001<'
p397
tp398
btp399
a((lp400
I16
ag23
(g24
(I0
tp401
g26
tp402
Rp403
(I1
(I1
tp404
g32
I00
S'\xd4R0<'
p405
tp406
btp407
a((lp408
I2
ag23
(g24
(I0
tp409
g26
tp410
Rp411
(I1
(I1
tp412
g32
I00
S'\xb8M*<'
p413
tp414
btp415
a((lp416
I17
aI0
ag23
(g24
(I0
tp417
g26
tp418
Rp419
(I1
(I1
tp420
g32
I00
S'\xa5_(<'
p421
tp422
btp423
a((lp424
I9
ag23
(g24
(I0
tp425
g26
tp426
Rp427
(I1
(I1
tp428
g32
I00
S'\xedF$<'
p429
tp430
btp431
asg1
(g5
S'\x04\x00\x00\x00\x00\x00\x00\x00'
p432
tp433
Rp434
(lp435
((lp436
g1
(g15
S'\x00\x00\x00@\xa6\xdc\xd3?'
p437
tp438
Rp439
tp440
a((lp441
I9
ag23
(g24
(I0
tp442
g26
tp443
Rp444
(I1
(I1
tp445
g32
I00
S'\xf9B\xb6<'
p446
tp447
btp448
a((lp449
I20
ag23
(g24
(I0
tp450
g26
tp451
Rp452
(I1
(I1
tp453
g32
I00
S'\xe6=\xac<'
p454
tp455
btp456
a((lp457
I6
ag23
(g24
(I0
tp458
g26
tp459
Rp460
(I1
(I1
tp461
g32
I00
S'\xf6\xc9\x99<'
p462
tp463
btp464
a((lp465
I11
ag23
(g24
(I0
tp466
g26
tp467
Rp468
(I1
(I1
tp469
g32
I00
S'\x11\xa8\x97<'
p470
tp471
btp472
a((lp473
I9
ag23
(g24
(I0
tp474
g26
tp475
Rp476
(I1
(I1
tp477
g32
I00
S'\x11\x87\x96<'
p478
tp479
btp480
a((lp481
I2
ag23
(g24
(I0
tp482
g26
tp483
Rp484
(I1
(I1
tp485
g32
I00
S'\x92\xaf\x86<'
p486
tp487
btp488
a((lp489
I18
ag23
(g24
(I0
tp490
g26
tp491
Rp492
(I1
(I1
tp493
g32
I00
S'\xe6g\x83<'
p494
tp495
btp496
a((lp497
I20
ag23
(g24
(I0
tp498
g26
tp499
Rp500
(I1
(I1
tp501
g32
I00
S'\x84\xfb}<'
p502
tp503
btp504
a((lp505
I0
ag23
(g24
(I0
tp506
g26
tp507
Rp508
(I1
(I1
tp509
g32
I00
S']\xf9|<'
p510
tp511
btp512
a((lp513
I10
ag23
(g24
(I0
tp514
g26
tp515
Rp516
(I1
(I1
tp517
g32
I00
S'\x99>t<'
p518
tp519
btp520
a((lp521
I1
ag23
(g24
(I0
tp522
g26
tp523
Rp524
(I1
(I1
tp525
g32
I00
S'V!o<'
p526
tp527
btp528
a((lp529
I4
ag23
(g24
(I0
tp530
g26
tp531
Rp532
(I1
(I1
tp533
g32
I00
S'\x13dm<'
p534
tp535
btp536
a((lp537
I14
ag23
(g24
(I0
tp538
g26
tp539
Rp540
(I1
(I1
tp541
g32
I00
S'\x14\x87h<'
p542
tp543
btp544
a((lp545
I16
ag23
(g24
(I0
tp546
g26
tp547
Rp548
(I1
(I1
tp549
g32
I00
S'\xe0\xffe<'
p550
tp551
btp552
a((lp553
I21
ag23
(g24
(I0
tp554
g26
tp555
Rp556
(I1
(I1
tp557
g32
I00
S'0;]<'
p558
tp559
btp560
a((lp561
I15
ag23
(g24
(I0
tp562
g26
tp563
Rp564
(I1
(I1
tp565
g32
I00
S'A\xf2Y<'
p566
tp567
btp568
a((lp569
I19
ag23
(g24
(I0
tp570
g26
tp571
Rp572
(I1
(I1
tp573
g32
I00
S'\xb5\x94Y<'
p574
tp575
btp576
a((lp577
I6
ag23
(g24
(I0
tp578
g26
tp579
Rp580
(I1
(I1
tp581
g32
I00
S'\x0fUV<'
p582
tp583
btp584
a((lp585
I12
ag23
(g24
(I0
tp586
g26
tp587
Rp588
(I1
(I1
tp589
g32
I00
S'\xab\xe7S<'
p590
tp591
btp592
a((lp593
I7
ag23
(g24
(I0
tp594
g26
tp595
Rp596
(I1
(I1
tp597
g32
I00
S',UJ<'
p598
tp599
btp600
a((lp601
I8
ag23
(g24
(I0
tp602
g26
tp603
Rp604
(I1
(I1
tp605
g32
I00
S'\xf2\xfdF<'
p606
tp607
btp608
a((lp609
I5
ag23
(g24
(I0
tp610
g26
tp611
Rp612
(I1
(I1
tp613
g32
I00
S'O\xbaC<'
p614
tp615
btp616
a((lp617
I11
ag23
(g24
(I0
tp618
g26
tp619
Rp620
(I1
(I1
tp621
g32
I00
S'\x99SB<'
p622
tp623
btp624
a((lp625
I17
ag23
(g24
(I0
tp626
g26
tp627
Rp628
(I1
(I1
tp629
g32
I00
S'\xb5\xbc><'
p630
tp631
btp632
a((lp633
I3
ag23
(g24
(I0
tp634
g26
tp635
Rp636
(I1
(I1
tp637
g32
I00
S'\x11\xe1;<'
p638
tp639
btp640
a((lp641
I13
ag23
(g24
(I0
tp642
g26
tp643
Rp644
(I1
(I1
tp645
g32
I00
S'p\xf1:<'
p646
tp647
btp648
asg1
(g5
S'\x06\x00\x00\x00\x00\x00\x00\x00'
p649
tp650
Rp651
(lp652
((lp653
g1
(g15
S'\x00\x00\x00@I\xba\xcd?'
p654
tp655
Rp656
tp657
a((lp658
I11
ag23
(g24
(I0
tp659
g26
tp660
Rp661
(I1
(I1
tp662
g32
I00
S'\xcd\x1c?>'
p663
tp664
btp665
a((lp666
I11
ag23
(g24
(I0
tp667
g26
tp668
Rp669
(I1
(I1
tp670
g32
I00
S'\xe5\x890>'
p671
tp672
btp673
a((lp674
I11
aI11
ag23
(g24
(I0
tp675
g26
tp676
Rp677
(I1
(I1
tp678
g32
I00
S'\x04F\x02>'
p679
tp680
btp681
a((lp682
I20
ag23
(g24
(I0
tp683
g26
tp684
Rp685
(I1
(I1
tp686
g32
I00
S'\x1a\xee\x81<'
p687
tp688
btp689
a((lp690
I20
aI11
ag23
(g24
(I0
tp691
g26
tp692
Rp693
(I1
(I1
tp694
g32
I00
S'T\xc2?<'
p695
tp696
btp697
a((lp698
I6
ag23
(g24
(I0
tp699
g26
tp700
Rp701
(I1
(I1
tp702
g32
I00
S'W\xba(<'
p703
tp704
btp705
asg1
(g5
S'\t\x00\x00\x00\x00\x00\x00\x00'
p706
tp707
Rp708
(lp709
((lp710
g1
(g15
S'\x00\x00\x00\x00\x8a_\xd3?'
p711
tp712
Rp713
tp714
a((lp715
I2
ag23
(g24
(I0
tp716
g26
tp717
Rp718
(I1
(I1
tp719
g32
I00
S'z$\xfd='
p720
tp721
btp722
a((lp723
I2
ag23
(g24
(I0
tp724
g26
tp725
Rp726
(I1
(I1
tp727
g32
I00
S'n\x95\xb0='
p728
tp729
btp730
a((lp731
I2
aI2
ag23
(g24
(I0
tp732
g26
tp733
Rp734
(I1
(I1
tp735
g32
I00
S';\xd2\x13='
p736
tp737
btp738
a((lp739
I5
ag23
(g24
(I0
tp740
g26
tp741
Rp742
(I1
(I1
tp743
g32
I00
S'\xf6\xb3\xa0<'
p744
tp745
btp746
a((lp747
I19
ag23
(g24
(I0
tp748
g26
tp749
Rp750
(I1
(I1
tp751
g32
I00
S'y\xf4\x94<'
p752
tp753
btp754
a((lp755
I13
ag23
(g24
(I0
tp756
g26
tp757
Rp758
(I1
(I1
tp759
g32
I00
S'\x16\xf1\x87<'
p760
tp761
btp762
a((lp763
I7
ag23
(g24
(I0
tp764
g26
tp765
Rp766
(I1
(I1
tp767
g32
I00
S'\xf9T\x85<'
p768
tp769
btp770
a((lp771
I21
ag23
(g24
(I0
tp772
g26
tp773
Rp774
(I1
(I1
tp775
g32
I00
S'(yq<'
p776
tp777
btp778
a((lp779
I10
ag23
(g24
(I0
tp780
g26
tp781
Rp782
(I1
(I1
tp783
g32
I00
S'\xf66^<'
p784
tp785
btp786
a((lp787
I9
ag23
(g24
(I0
tp788
g26
tp789
Rp790
(I1
(I1
tp791
g32
I00
S'5\x98U<'
p792
tp793
btp794
a((lp795
I1
ag23
(g24
(I0
tp796
g26
tp797
Rp798
(I1
(I1
tp799
g32
I00
S'\xa4&O<'
p800
tp801
btp802
a((lp803
I16
ag23
(g24
(I0
tp804
g26
tp805
Rp806
(I1
(I1
tp807
g32
I00
S'\xff\xbeK<'
p808
tp809
btp810
a((lp811
I4
ag23
(g24
(I0
tp812
g26
tp813
Rp814
(I1
(I1
tp815
g32
I00
S'\x8e0D<'
p816
tp817
btp818
a((lp819
I3
ag23
(g24
(I0
tp820
g26
tp821
Rp822
(I1
(I1
tp823
g32
I00
S'\xad~B<'
p824
tp825
btp826
a((lp827
I14
ag23
(g24
(I0
tp828
g26
tp829
Rp830
(I1
(I1
tp831
g32
I00
S'\x1ey9<'
p832
tp833
btp834
a((lp835
I18
ag23
(g24
(I0
tp836
g26
tp837
Rp838
(I1
(I1
tp839
g32
I00
S'\xa7\xf98<'
p840
tp841
btp842
a((lp843
I15
ag23
(g24
(I0
tp844
g26
tp845
Rp846
(I1
(I1
tp847
g32
I00
S'R\x824<'
p848
tp849
btp850
a((lp851
I8
ag23
(g24
(I0
tp852
g26
tp853
Rp854
(I1
(I1
tp855
g32
I00
S'I\xad.<'
p856
tp857
btp858
asg1
(g5
S'\x0b\x00\x00\x00\x00\x00\x00\x00'
p859
tp860
Rp861
(lp862
((lp863
g1
(g15
S'\x00\x00\x00\xc0\xa0\xa9\xcd?'
p864
tp865
Rp866
tp867
a((lp868
I6
ag23
(g24
(I0
tp869
g26
tp870
Rp871
(I1
(I1
tp872
g32
I00
S'\xbb5A>'
p873
tp874
btp875
a((lp876
I6
ag23
(g24
(I0
tp877
g26
tp878
Rp879
(I1
(I1
tp880
g32
I00
S'Sm6>'
p881
tp882
btp883
a((lp884
I6
aI6
ag23
(g24
(I0
tp885
g26
tp886
Rp887
(I1
(I1
tp888
g32
I00
S'\xad\x92\t>'
p889
tp890
btp891
a((lp892
I20
ag23
(g24
(I0
tp893
g26
tp894
Rp895
(I1
(I1
tp896
g32
I00
S'\xeb\xb6C<'
p897
tp898
btp899
a((lp900
I1
ag23
(g24
(I0
tp901
g26
tp902
Rp903
(I1
(I1
tp904
g32
I00
S"\x946'<"
p905
tp906
btp907
asg1
(g5
S'\r\x00\x00\x00\x00\x00\x00\x00'
p908
tp909
Rp910
(lp911
((lp912
g1
(g15
S'\x00\x00\x00\x80w+\xd2?'
p913
tp914
Rp915
tp916
a((lp917
I0
ag23
(g24
(I0
tp918
g26
tp919
Rp920
(I1
(I1
tp921
g32
I00
S'\xe3\xd8\t>'
p922
tp923
btp924
a((lp925
I0
ag23
(g24
(I0
tp926
g26
tp927
Rp928
(I1
(I1
tp929
g32
I00
S'\xd9\xc6\xbd='
p930
tp931
btp932
a((lp933
I0
aI0
ag23
(g24
(I0
tp934
g26
tp935
Rp936
(I1
(I1
tp937
g32
I00
S'|\xdf1='
p938
tp939
btp940
a((lp941
I20
ag23
(g24
(I0
tp942
g26
tp943
Rp944
(I1
(I1
tp945
g32
I00
S'\xbfb\xa6<'
p946
tp947
btp948
a((lp949
I12
ag23
(g24
(I0
tp950
g26
tp951
Rp952
(I1
(I1
tp953
g32
I00
S'H\x08\x9e<'
p954
tp955
btp956
a((lp957
I19
ag23
(g24
(I0
tp958
g26
tp959
Rp960
(I1
(I1
tp961
g32
I00
S'\xe31\x9a<'
p962
tp963
btp964
a((lp965
I17
ag23
(g24
(I0
tp966
g26
tp967
Rp968
(I1
(I1
tp969
g32
I00
S'l.\x90<'
p970
tp971
btp972
a((lp973
I7
ag23
(g24
(I0
tp974
g26
tp975
Rp976
(I1
(I1
tp977
g32
I00
S'\x97\xaf\x81<'
p978
tp979
btp980
a((lp981
I1
ag23
(g24
(I0
tp982
g26
tp983
Rp984
(I1
(I1
tp985
g32
I00
S'Mp\x7f<'
p986
tp987
btp988
a((lp989
I2
ag23
(g24
(I0
tp990
g26
tp991
Rp992
(I1
(I1
tp993
g32
I00
S'O\xb2=<'
p994
tp995
btp996
a((lp997
I3
ag23
(g24
(I0
tp998
g26
tp999
Rp1000
(I1
(I1
tp1001
g32
I00
S'\x03\x8c+<'
p1002
tp1003
btp1004
a((lp1005
I8
ag23
(g24
(I0
tp1006
g26
tp1007
Rp1008
(I1
(I1
tp1009
g32
I00
S'W\x8a&<'
p1010
tp1011
btp1012
a((lp1013
I6
ag23
(g24
(I0
tp1014
g26
tp1015
Rp1016
(I1
(I1
tp1017
g32
I00
S'G\xb8$<'
p1018
tp1019
btp1020
a((lp1021
I21
ag23
(g24
(I0
tp1022
g26
tp1023
Rp1024
(I1
(I1
tp1025
g32
I00
S'\x00d$<'
p1026
tp1027
btp1028
asg1
(g5
S'\x0e\x00\x00\x00\x00\x00\x00\x00'
p1029
tp1030
Rp1031
(lp1032
((lp1033
g1
(g15
S'\x00\x00\x00\xe0\xecJ\xd2?'
p1034
tp1035
Rp1036
tp1037
a((lp1038
I6
ag23
(g24
(I0
tp1039
g26
tp1040
Rp1041
(I1
(I1
tp1042
g32
I00
S'\xfd\xa6\x95='
p1043
tp1044
btp1045
a((lp1046
I6
ag23
(g24
(I0
tp1047
g26
tp1048
Rp1049
(I1
(I1
tp1050
g32
I00
S'aFT='
p1051
tp1052
btp1053
a((lp1054
I11
ag23
(g24
(I0
tp1055
g26
tp1056
Rp1057
(I1
(I1
tp1058
g32
I00
S'K\xe1-='
p1059
tp1060
btp1061
a((lp1062
I11
ag23
(g24
(I0
tp1063
g26
tp1064
Rp1065
(I1
(I1
tp1066
g32
I00
S'\x1b\x06#='
p1067
tp1068
btp1069
a((lp1070
I1
ag23
(g24
(I0
tp1071
g26
tp1072
Rp1073
(I1
(I1
tp1074
g32
I00
S'\x1b.\x8a<'
p1075
tp1076
btp1077
a((lp1078
I19
ag23
(g24
(I0
tp1079
g26
tp1080
Rp1081
(I1
(I1
tp1082
g32
I00
S'g{\x86<'
p1083
tp1084
btp1085
a((lp1086
I2
ag23
(g24
(I0
tp1087
g26
tp1088
Rp1089
(I1
(I1
tp1090
g32
I00
S'\xbedy<'
p1091
tp1092
btp1093
a((lp1094
I0
ag23
(g24
(I0
tp1095
g26
tp1096
Rp1097
(I1
(I1
tp1098
g32
I00
S'\xd2\x01d<'
p1099
tp1100
btp1101
a((lp1102
I21
ag23
(g24
(I0
tp1103
g26
tp1104
Rp1105
(I1
(I1
tp1106
g32
I00
S'X\x8cU<'
p1107
tp1108
btp1109
a((lp1110
I10
ag23
(g24
(I0
tp1111
g26
tp1112
Rp1113
(I1
(I1
tp1114
g32
I00
S'&\x1bT<'
p1115
tp1116
btp1117
a((lp1118
I6
aI6
ag23
(g24
(I0
tp1119
g26
tp1120
Rp1121
(I1
(I1
tp1122
g32
I00
S'\x87rR<'
p1123
tp1124
btp1125
a((lp1126
I5
ag23
(g24
(I0
tp1127
g26
tp1128
Rp1129
(I1
(I1
tp1130
g32
I00
S'\x96\xc8B<'
p1131
tp1132
btp1133
a((lp1134
I12
ag23
(g24
(I0
tp1135
g26
tp1136
Rp1137
(I1
(I1
tp1138
g32
I00
S'|\xd3A<'
p1139
tp1140
btp1141
a((lp1142
I18
ag23
(g24
(I0
tp1143
g26
tp1144
Rp1145
(I1
(I1
tp1146
g32
I00
S'hH;<'
p1147
tp1148
btp1149
a((lp1150
I3
ag23
(g24
(I0
tp1151
g26
tp1152
Rp1153
(I1
(I1
tp1154
g32
I00
S'\x12\x814<'
p1155
tp1156
btp1157
a((lp1158
I17
ag23
(g24
(I0
tp1159
g26
tp1160
Rp1161
(I1
(I1
tp1162
g32
I00
S'\xe103<'
p1163
tp1164
btp1165
a((lp1166
I20
ag23
(g24
(I0
tp1167
g26
tp1168
Rp1169
(I1
(I1
tp1170
g32
I00
S'\xf7\x852<'
p1171
tp1172
btp1173
a((lp1174
I16
ag23
(g24
(I0
tp1175
g26
tp1176
Rp1177
(I1
(I1
tp1178
g32
I00
S'\xf03*<'
p1179
tp1180
btp1181
a((lp1182
I8
ag23
(g24
(I0
tp1183
g26
tp1184
Rp1185
(I1
(I1
tp1186
g32
I00
S'\xa4y%<'
p1187
tp1188
btp1189
asg1
(g5
S'\x0f\x00\x00\x00\x00\x00\x00\x00'
p1190
tp1191
Rp1192
(lp1193
((lp1194
g1
(g15
S'\x00\x00\x00 %5\xd4?'
p1195
tp1196
Rp1197
tp1198
a((lp1199
I0
ag23
(g24
(I0
tp1200
g26
tp1201
Rp1202
(I1
(I1
tp1203
g32
I00
S'q=\xad<'
p1204
tp1205
btp1206
a((lp1207
I17
ag23
(g24
(I0
tp1208
g26
tp1209
Rp1210
(I1
(I1
tp1211
g32
I00
S'\xf8T\xab<'
p1212
tp1213
btp1214
a((lp1215
I13
ag23
(g24
(I0
tp1216
g26
tp1217
Rp1218
(I1
(I1
tp1219
g32
I00
S'0\xfd\xa0<'
p1220
tp1221
btp1222
a((lp1223
I12
ag23
(g24
(I0
tp1224
g26
tp1225
Rp1226
(I1
(I1
tp1227
g32
I00
S'5\xea\xa0<'
p1228
tp1229
btp1230
a((lp1231
I7
ag23
(g24
(I0
tp1232
g26
tp1233
Rp1234
(I1
(I1
tp1235
g32
I00
S'\xcd\x1d\x92<'
p1236
tp1237
btp1238
a((lp1239
I19
ag23
(g24
(I0
tp1240
g26
tp1241
Rp1242
(I1
(I1
tp1243
g32
I00
S'p\xf3\x8c<'
p1244
tp1245
btp1246
a((lp1247
I21
ag23
(g24
(I0
tp1248
g26
tp1249
Rp1250
(I1
(I1
tp1251
g32
I00
S'\xad\xcb\x88<'
p1252
tp1253
btp1254
a((lp1255
I5
ag23
(g24
(I0
tp1256
g26
tp1257
Rp1258
(I1
(I1
tp1259
g32
I00
S' n\x87<'
p1260
tp1261
btp1262
a((lp1263
I17
ag23
(g24
(I0
tp1264
g26
tp1265
Rp1266
(I1
(I1
tp1267
g32
I00
S'L\x19~<'
p1268
tp1269
btp1270
a((lp1271
I1
ag23
(g24
(I0
tp1272
g26
tp1273
Rp1274
(I1
(I1
tp1275
g32
I00
S'\x1e,|<'
p1276
tp1277
btp1278
a((lp1279
I0
ag23
(g24
(I0
tp1280
g26
tp1281
Rp1282
(I1
(I1
tp1283
g32
I00
S'eF{<'
p1284
tp1285
btp1286
a((lp1287
I13
ag23
(g24
(I0
tp1288
g26
tp1289
Rp1290
(I1
(I1
tp1291
g32
I00
S'\xebU`<'
p1292
tp1293
btp1294
a((lp1295
I2
ag23
(g24
(I0
tp1296
g26
tp1297
Rp1298
(I1
(I1
tp1299
g32
I00
S'?t^<'
p1300
tp1301
btp1302
a((lp1303
I20
ag23
(g24
(I0
tp1304
g26
tp1305
Rp1306
(I1
(I1
tp1307
g32
I00
S'\xbb\xda[<'
p1308
tp1309
btp1310
a((lp1311
I11
ag23
(g24
(I0
tp1312
g26
tp1313
Rp1314
(I1
(I1
tp1315
g32
I00
S"\xe6'V<"
p1316
tp1317
btp1318
a((lp1319
I6
ag23
(g24
(I0
tp1320
g26
tp1321
Rp1322
(I1
(I1
tp1323
g32
I00
S'/\xfcU<'
p1324
tp1325
btp1326
a((lp1327
I8
ag23
(g24
(I0
tp1328
g26
tp1329
Rp1330
(I1
(I1
tp1331
g32
I00
S'\x17\x1bU<'
p1332
tp1333
btp1334
a((lp1335
I15
ag23
(g24
(I0
tp1336
g26
tp1337
Rp1338
(I1
(I1
tp1339
g32
I00
S'\xf8\xb8T<'
p1340
tp1341
btp1342
a((lp1343
I9
ag23
(g24
(I0
tp1344
g26
tp1345
Rp1346
(I1
(I1
tp1347
g32
I00
S'M\xffP<'
p1348
tp1349
btp1350
a((lp1351
I10
ag23
(g24
(I0
tp1352
g26
tp1353
Rp1354
(I1
(I1
tp1355
g32
I00
S'\x02<I<'
p1356
tp1357
btp1358
a((lp1359
I12
ag23
(g24
(I0
tp1360
g26
tp1361
Rp1362
(I1
(I1
tp1363
g32
I00
S'\xc8\xdeG<'
p1364
tp1365
btp1366
a((lp1367
I16
ag23
(g24
(I0
tp1368
g26
tp1369
Rp1370
(I1
(I1
tp1371
g32
I00
S'\x8d[D<'
p1372
tp1373
btp1374
a((lp1375
I14
ag23
(g24
(I0
tp1376
g26
tp1377
Rp1378
(I1
(I1
tp1379
g32
I00
S'\xcd\xe7C<'
p1380
tp1381
btp1382
a((lp1383
I3
ag23
(g24
(I0
tp1384
g26
tp1385
Rp1386
(I1
(I1
tp1387
g32
I00
S'\xccsA<'
p1388
tp1389
btp1390
a((lp1391
I4
ag23
(g24
(I0
tp1392
g26
tp1393
Rp1394
(I1
(I1
tp1395
g32
I00
S'u\x105<'
p1396
tp1397
btp1398
a((lp1399
I18
ag23
(g24
(I0
tp1400
g26
tp1401
Rp1402
(I1
(I1
tp1403
g32
I00
S'\xf0\x053<'
p1404
tp1405
btp1406
a((lp1407
I7
ag23
(g24
(I0
tp1408
g26
tp1409
Rp1410
(I1
(I1
tp1411
g32
I00
S'D\xed1<'
p1412
tp1413
btp1414
a((lp1415
I19
ag23
(g24
(I0
tp1416
g26
tp1417
Rp1418
(I1
(I1
tp1419
g32
I00
S'\xc3\xed*<'
p1420
tp1421
btp1422
asg1
(g5
S'\x11\x00\x00\x00\x00\x00\x00\x00'
p1423
tp1424
Rp1425
(lp1426
((lp1427
g1
(g15
S'\x00\x00\x00@po\xd0?'
p1428
tp1429
Rp1430
tp1431
a((lp1432
I0
ag23
(g24
(I0
tp1433
g26
tp1434
Rp1435
(I1
(I1
tp1436
g32
I00
S".\xe3'>"
p1437
tp1438
btp1439
a((lp1440
I0
ag23
(g24
(I0
tp1441
g26
tp1442
Rp1443
(I1
(I1
tp1444
g32
I00
S'\xf2@ >'
p1445
tp1446
btp1447
a((lp1448
I0
aI0
ag23
(g24
(I0
tp1449
g26
tp1450
Rp1451
(I1
(I1
tp1452
g32
I00
S'V\xe2\xc8='
p1453
tp1454
btp1455
a((lp1456
I7
ag23
(g24
(I0
tp1457
g26
tp1458
Rp1459
(I1
(I1
tp1460
g32
I00
S']\x81\x83<'
p1461
tp1462
btp1463
a((lp1464
I17
ag23
(g24
(I0
tp1465
g26
tp1466
Rp1467
(I1
(I1
tp1468
g32
I00
S'\xba\x0b}<'
p1469
tp1470
btp1471
a((lp1472
I19
ag23
(g24
(I0
tp1473
g26
tp1474
Rp1475
(I1
(I1
tp1476
g32
I00
S'\xd4[\\<'
p1477
tp1478
btp1479
a((lp1480
I13
ag23
(g24
(I0
tp1481
g26
tp1482
Rp1483
(I1
(I1
tp1484
g32
I00
S'\xff"=<'
p1485
tp1486
btp1487
a((lp1488
I8
ag23
(g24
(I0
tp1489
g26
tp1490
Rp1491
(I1
(I1
tp1492
g32
I00
S'\xfa,1<'
p1493
tp1494
btp1495
a((lp1496
I4
ag23
(g24
(I0
tp1497
g26
tp1498
Rp1499
(I1
(I1
tp1500
g32
I00
S'\x1bq,<'
p1501
tp1502
btp1503
a((lp1504
I3
ag23
(g24
(I0
tp1505
g26
tp1506
Rp1507
(I1
(I1
tp1508
g32
I00
S'\xa06&<'
p1509
tp1510
btp1511
a((lp1512
I7
aI0
ag23
(g24
(I0
tp1513
g26
tp1514
Rp1515
(I1
(I1
tp1516
g32
I00
S'\xd3\xd8$<'
p1517
tp1518
btp1519
asg1
(g5
S'\x14\x00\x00\x00\x00\x00\x00\x00'
p1520
tp1521
Rp1522
(lp1523
((lp1524
g1
(g15
S'\x00\x00\x00\xc0\xbdF\xcf?'
p1525
tp1526
Rp1527
tp1528
a((lp1529
I6
ag23
(g24
(I0
tp1530
g26
tp1531
Rp1532
(I1
(I1
tp1533
g32
I00
S'\x14D\xd5='
p1534
tp1535
btp1536
a((lp1537
I6
ag23
(g24
(I0
tp1538
g26
tp1539
Rp1540
(I1
(I1
tp1541
g32
I00
S'\xbc\xc5\x97='
p1542
tp1543
btp1544
a((lp1545
I11
ag23
(g24
(I0
tp1546
g26
tp1547
Rp1548
(I1
(I1
tp1549
g32
I00
S'1\xaet='
p1550
tp1551
btp1552
a((lp1553
I11
ag23
(g24
(I0
tp1554
g26
tp1555
Rp1556
(I1
(I1
tp1557
g32
I00
S'\x82\x1bQ='
p1558
tp1559
btp1560
a((lp1561
I6
aI6
ag23
(g24
(I0
tp1562
g26
tp1563
Rp1564
(I1
(I1
tp1565
g32
I00
S'pk\xed<'
p1566
tp1567
btp1568
a((lp1569
I11
aI6
ag23
(g24
(I0
tp1570
g26
tp1571
Rp1572
(I1
(I1
tp1573
g32
I00
S'\t\x8e\xa3<'
p1574
tp1575
btp1576
a((lp1577
I6
aI11
ag23
(g24
(I0
tp1578
g26
tp1579
Rp1580
(I1
(I1
tp1581
g32
I00
S'02\x88<'
p1582
tp1583
btp1584
a((lp1585
I21
ag23
(g24
(I0
tp1586
g26
tp1587
Rp1588
(I1
(I1
tp1589
g32
I00
S'\x86\\\x84<'
p1590
tp1591
btp1592
a((lp1593
I1
ag23
(g24
(I0
tp1594
g26
tp1595
Rp1596
(I1
(I1
tp1597
g32
I00
S'\xdc\xbb[<'
p1598
tp1599
btp1600
a((lp1601
I13
ag23
(g24
(I0
tp1602
g26
tp1603
Rp1604
(I1
(I1
tp1605
g32
I00
S'Y\nU<'
p1606
tp1607
btp1608
a((lp1609
I19
ag23
(g24
(I0
tp1610
g26
tp1611
Rp1612
(I1
(I1
tp1613
g32
I00
S'\t\xfc;<'
p1614
tp1615
btp1616
a((lp1617
I11
aI11
ag23
(g24
(I0
tp1618
g26
tp1619
Rp1620
(I1
(I1
tp1621
g32
I00
S'\x95\xa5;<'
p1622
tp1623
btp1624
a((lp1625
I12
ag23
(g24
(I0
tp1626
g26
tp1627
Rp1628
(I1
(I1
tp1629
g32
I00
S'`\xe43<'
p1630
tp1631
btp1632
a((lp1633
I10
ag23
(g24
(I0
tp1634
g26
tp1635
Rp1636
(I1
(I1
tp1637
g32
I00
S'>R1<'
p1638
tp1639
btp1640
a((lp1641
I20
ag23
(g24
(I0
tp1642
g26
tp1643
Rp1644
(I1
(I1
tp1645
g32
I00
S'\x91\x011<'
p1646
tp1647
btp1648
a((lp1649
I16
ag23
(g24
(I0
tp1650
g26
tp1651
Rp1652
(I1
(I1
tp1653
g32
I00
S'A%(<'
p1654
tp1655
btp1656
as.