(dp0
cnumpy.core.multiarray
scalar
p1
(cnumpy
dtype
p2
(S'i8'
p3
I0
I1
tp4
Rp5
(I3
S'<'
p6
NNNI-1
I-1
I0
tp7
bS'\x00\x00\x00\x00\x00\x00\x00\x00'
p8
tp9
Rp10
(lp11
((lp12
g1
(g2
(S'f8'
p13
I0
I1
tp14
Rp15
(I3
S'<'
p16
NNNI-1
I-1
I0
tp17
bS'\x00\x00\x00 O\xb0\xd2?'
p18
tp19
Rp20
tp21
a((lp22
I4
acnumpy.core.multiarray
_reconstruct
p23
(cnumpy
ndarray
p24
(I0
tp25
S'b'
p26
tp27
Rp28
(I1
(I1
tp29
g2
(S'f4'
p30
I0
I1
tp31
Rp32
(I3
S'<'
p33
NNNI-1
I-1
I0
tp34
bI00
S'\x83\x91a>'
p35
tp36
btp37
a((lp38
I4
ag23
(g24
(I0
tp39
g26
tp40
Rp41
(I1
(I1
tp42
g32
I00
S'\x07<\x1b>'
p43
tp44
btp45
a((lp46
I4
aI4
ag23
(g24
(I0
tp47
g26
tp48
Rp49
(I1
(I1
tp50
g32
I00
S'\xdc\n\xe9='
p51
tp52
btp53
a((lp54
I2
ag23
(g24
(I0
tp55
g26
tp56
Rp57
(I1
(I1
tp58
g32
I00
S"\xe3'f="
p59
tp60
btp61
a((lp62
I2
aI4
ag23
(g24
(I0
tp63
g26
tp64
Rp65
(I1
(I1
tp66
g32
I00
S'%\xc8\xed<'
p67
tp68
btp69
a((lp70
I3
ag23
(g24
(I0
tp71
g26
tp72
Rp73
(I1
(I1
tp74
g32
I00
S'\xd7G\xb1<'
p75
tp76
btp77
a((lp78
I0
ag23
(g24
(I0
tp79
g26
tp80
Rp81
(I1
(I1
tp82
g32
I00
S'$S\xa5<'
p83
tp84
btp85
a((lp86
I1
ag23
(g24
(I0
tp87
g26
tp88
Rp89
(I1
(I1
tp90
g32
I00
S'\xc7\x0c\x81<'
p91
tp92
btp93
a((lp94
I5
ag23
(g24
(I0
tp95
g26
tp96
Rp97
(I1
(I1
tp98
g32
I00
S'\x1e\xb17<'
p99
tp100
btp101
a((lp102
I3
aI4
ag23
(g24
(I0
tp103
g26
tp104
Rp105
(I1
(I1
tp106
g32
I00
S"\x97'7<"
p107
tp108
btp109
a((lp110
I2
ag23
(g24
(I0
tp111
g26
tp112
Rp113
(I1
(I1
tp114
g32
I00
S'\x1f\xf64<'
p115
tp116
btp117
a((lp118
I0
aI4
ag23
(g24
(I0
tp119
g26
tp120
Rp121
(I1
(I1
tp122
g32
I00
S'y\xcd*<'
p123
tp124
btp125
asg1
(g5
S'\x01\x00\x00\x00\x00\x00\x00\x00'
p126
tp127
Rp128
(lp129
((lp130
g1
(g15
S'\x00\x00\x00\xe0YS\xd3?'
p131
tp132
Rp133
tp134
a((lp135
I3
ag23
(g24
(I0
tp136
g26
tp137
Rp138
(I1
(I1
tp139
g32
I00
S'\x00\x00+>'
p140
tp141
btp142
a((lp143
I3
ag23
(g24
(I0
tp144
g26
tp145
Rp146
(I1
(I1
tp147
g32
I00
S'\xe4\x1f\xfd='
p148
tp149
btp150
a((lp151
I5
ag23
(g24
(I0
tp152
g26
tp153
Rp154
(I1
(I1
tp155
g32
I00
S'G8\xad='
p156
tp157
btp158
a((lp159
I3
aI3
ag23
(g24
(I0
tp160
g26
tp161
Rp162
(I1
(I1
tp163
g32
I00
S'G\xbb\x8b='
p164
tp165
btp166
a((lp167
I5
aI3
ag23
(g24
(I0
tp168
g26
tp169
Rp170
(I1
(I1
tp171
g32
I00
S'\xa5\x8b\r='
p172
tp173
btp174
a((lp175
I5
ag23
(g24
(I0
tp176
g26
tp177
Rp178
(I1
(I1
tp179
g32
I00
S'\xf0|\x06='
p180
tp181
btp182
a((lp183
I4
ag23
(g24
(I0
tp184
g26
tp185
Rp186
(I1
(I1
tp187
g32
I00
S'\xbb\xf6\x02='
p188
tp189
btp190
a((lp191
I0
ag23
(g24
(I0
tp192
g26
tp193
Rp194
(I1
(I1
tp195
g32
I00
S'\xbbt\xca<'
p196
tp197
btp198
a((lp199
I1
ag23
(g24
(I0
tp200
g26
tp201
Rp202
(I1
(I1
tp203
g32
I00
S'\x1e\xb5\x97<'
p204
tp205
btp206
a((lp207
I3
aI5
ag23
(g24
(I0
tp208
g26
tp209
Rp210
(I1
(I1
tp211
g32
I00
S'f{\x94<'
p212
tp213
btp214
a((lp215
I2
ag23
(g24
(I0
tp216
g26
tp217
Rp218
(I1
(I1
tp219
g32
I00
S'\x14\x05\x88<'
p220
tp221
btp222
a((lp223
I4
aI3
ag23
(g24
(I0
tp224
g26
tp225
Rp226
(I1
(I1
tp227
g32
I00
S'M\x08V<'
p228
tp229
btp230
a((lp231
I0
aI3
ag23
(g24
(I0
tp232
g26
tp233
Rp234
(I1
(I1
tp235
g32
I00
S'\x84o%<'
p236
tp237
btp238
asg1
(g5
S'\x02\x00\x00\x00\x00\x00\x00\x00'
p239
tp240
Rp241
(lp242
((lp243
g1
(g15
S'\x00\x00\x00\x00\x98p\xd1?'
p244
tp245
Rp246
tp247
a((lp248
I0
ag23
(g24
(I0
tp249
g26
tp250
Rp251
(I1
(I1
tp252
g32
I00
S'\x9b\xf2~>'
p253
tp254
btp255
a((lp256
I0
ag23
(g24
(I0
tp257
g26
tp258
Rp259
(I1
(I1
tp260
g32
I00
S'\xc8\\)>'
p261
tp262
btp263
a((lp264
I0
aI0
ag23
(g24
(I0
tp265
g26
tp266
Rp267
(I1
(I1
tp268
g32
I00
S'\x8da\x16>'
p269
tp270
btp271
a((lp272
I4
ag23
(g24
(I0
tp273
g26
tp274
Rp275
(I1
(I1
tp276
g32
I00
S'?\x1b)='
p277
tp278
btp279
a((lp280
I4
aI0
ag23
(g24
(I0
tp281
g26
tp282
Rp283
(I1
(I1
tp284
g32
I00
S'\xbd~\xc7<'
p285
tp286
btp287
a((lp288
I2
ag23
(g24
(I0
tp289
g26
tp290
Rp291
(I1
(I1
tp292
g32
I00
S'\xbf\x02\x8e<'
p293
tp294
btp295
a((lp296
I1
ag23
(g24
(I0
tp297
g26
tp298
Rp299
(I1
(I1
tp300
g32
I00
S'3\x7f\x84<'
p301
tp302
btp303
a((lp304
I5
ag23
(g24
(I0
tp305
g26
tp306
Rp307
(I1
(I1
tp308
g32
I00
S'\x7fZ@<'
p309
tp310
btp311
a((lp312
I2
aI0
ag23
(g24
(I0
tp313
g26
tp314
Rp315
(I1
(I1
tp316
g32
I00
S"\xbe\x87'<"
p317
tp318
btp319
asg1
(g5
S'\x03\x00\x00\x00\x00\x00\x00\x00'
p320
tp321
Rp322
(lp323
((lp324
g1
(g15
S'\x00\x00\x00@[i\xd3?'
p325
tp326
Rp327
tp328
a((lp329
I1
ag23
(g24
(I0
tp330
g26
tp331
Rp332
(I1
(I1
tp333
g32
I00
S'\xd5uZ>'
p334
tp335
btp336
a((lp337
I1
ag23
(g24
(I0
tp338
g26
tp339
Rp340
(I1
(I1
tp341
g32
I00
S'c\x89\x15>'
p342
tp343
btp344
a((lp345
I1
aI1
ag23
(g24
(I0
tp346
g26
tp347
Rp348
(I1
(I1
tp349
g32
I00
S'j\xe5\xd6='
p350
tp351
btp352
a((lp353
I5
ag23
(g24
(I0
tp354
g26
tp355
Rp356
(I1
(I1
tp357
g32
I00
S'<Yt='
p358
tp359
btp360
a((lp361
I5
aI1
ag23
(g24
(I0
tp362
g26
tp363
Rp364
(I1
(I1
tp365
g32
I00
S'\xb0\\\xf0<'
p366
tp367
btp368
a((lp369
I0
ag23
(g24
(I0
tp370
g26
tp371
Rp372
(I1
(I1
tp373
g32
I00
S'\xe2\xee\xb0<'
p374
tp375
btp376
a((lp377
I3
ag23
(g24
(I0
tp378
g26
tp379
Rp380
(I1
(I1
tp381
g32
I00
S'1X\xa8<'
p382
tp383
btp384
a((lp385
I4
ag23
(g24
(I0
tp386
g26
tp387
Rp388
(I1
(I1
tp389
g32
I00
S'\xe2$\xa6<'
p390
tp391
btp392
a((lp393
I2
ag23
(g24
(I0
tp394
g26
tp395
Rp396
(I1
(I1
tp397
g32
I00
S'1\xb7I<'
p398
tp399
btp400
a((lp401
I0
aI1
ag23
(g24
(I0
tp402
g26
tp403
Rp404
(I1
(I1
tp405
g32
I00
S'\xe8\x0b.<'
p406
tp407
btp408
a((lp409
I5
ag23
(g24
(I0
tp410
g26
tp411
Rp412
(I1
(I1
tp413
g32
I00
S'=\x81,<'
p414
tp415
btp416
a((lp417
I3
aI1
ag23
(g24
(I0
tp418
g26
tp419
Rp420
(I1
(I1
tp421
g32
I00
S'\x17\x99%<'
p422
tp423
btp424
asg1
(g5
S'\x04\x00\x00\x00\x00\x00\x00\x00'
p425
tp426
Rp427
(lp428
((lp429
g1
(g15
S'\x00\x00\x00 <\x1d\xd2?'
p430
tp431
Rp432
tp433
a((lp434
I0
ag23
(g24
(I0
tp435
g26
tp436
Rp437
(I1
(I1
tp438
g32
I00
S'\x8e\xd4T>'
p439
tp440
btp441
a((lp442
I0
ag23
(g24
(I0
tp443
g26
tp444
Rp445
(I1
(I1
tp446
g32
I00
S'\xf5\xca\x1c>'
p447
tp448
btp449
a((lp450
I0
aI0
ag23
(g24
(I0
tp451
g26
tp452
Rp453
(I1
(I1
tp454
g32
I00
S'o\xfe\xe0='
p455
tp456
btp457
a((lp458
I2
ag23
(g24
(I0
tp459
g26
tp460
Rp461
(I1
(I1
tp462
g32
I00
S'Y\x81\x83='
p463
tp464
btp465
a((lp466
I2
aI0
ag23
(g24
(I0
tp467
g26
tp468
Rp469
(I1
(I1
tp470
g32
I00
S'a\x05\x0b='
p471
tp472
btp473
a((lp474
I4
ag23
(g24
(I0
tp475
g26
tp476
Rp477
(I1
(I1
tp478
g32
I00
S'<\x95\xc4<'
p479
tp480
btp481
a((lp482
I1
ag23
(g24
(I0
tp483
g26
tp484
Rp485
(I1
(I1
tp486
g32
I00
S'}\xc8\x91<'
p487
tp488
btp489
a((lp490
I3
ag23
(g24
(I0
tp491
g26
tp492
Rp493
(I1
(I1
tp494
g32
I00
S'\xc7\x16k<'
p495
tp496
btp497
a((lp498
I2
ag23
(g24
(I0
tp499
g26
tp500
Rp501
(I1
(I1
tp502
g32
I00
S';.j<'
p503
tp504
btp505
a((lp506
I5
ag23
(g24
(I0
tp507
g26
tp508
Rp509
(I1
(I1
tp510
g32
I00
S'\xe6\xdfh<'
p511
tp512
btp513
a((lp514
I4
aI0
ag23
(g24
(I0
tp515
g26
tp516
Rp517
(I1
(I1
tp518
g32
I00
S'g\xd1O<'
p519
tp520
btp521
a((lp522
I0
aI2
ag23
(g24
(I0
tp523
g26
tp524
Rp525
(I1
(I1
tp526
g32
I00
S'\x91\x05(<'
p527
tp528
btp529
asg1
(g5
S'\x05\x00\x00\x00\x00\x00\x00\x00'
p530
tp531
Rp532
(lp533
((lp534
g1
(g15
S'\x00\x00\x00@f\xbf\xd2?'
p535
tp536
Rp537
tp538
a((lp539
I3
ag23
(g24
(I0
tp540
g26
tp541
Rp542
(I1
(I1
tp543
g32
I00
S';\x90X>'
p544
tp545
btp546
a((lp547
I3
ag23
(g24
(I0
tp548
g26
tp549
Rp550
(I1
(I1
tp551
g32
I00
S'P\xdc\x17>'
p552
tp553
btp554
a((lp555
I3
aI3
ag23
(g24
(I0
tp556
g26
tp557
Rp558
(I1
(I1
tp559
g32
I00
S',I\xdb='
p560
tp561
btp562
a((lp563
I1
ag23
(g24
(I0
tp564
g26
tp565
Rp566
(I1
(I1
tp567
g32
I00
S'\xc7\x12\x83='
p568
tp569
btp570
a((lp571
I1
aI3
ag23
(g24
(I0
tp572
g26
tp573
Rp574
(I1
(I1
tp575
g32
I00
S'\x99\xb8\x04='
p576
tp577
btp578
a((lp579
I4
ag23
(g24
(I0
tp580
g26
tp581
Rp582
(I1
(I1
tp583
g32
I00
S'j\xef\xb1<'
p584
tp585
btp586
a((lp587
I5
ag23
(g24
(I0
tp588
g26
tp589
Rp590
(I1
(I1
tp591
g32
I00
S'\x87\x8d\xa8<'
p592
tp593
btp594
a((lp595
I2
ag23
(g24
(I0
tp596
g26
tp597
Rp598
(I1
(I1
tp599
g32
I00
S'8\xef\x91<'
p600
tp601
btp602
a((lp603
I1
ag23
(g24
(I0
tp604
g26
tp605
Rp606
(I1
(I1
tp607
g32
I00
S'w\x91O<'
p608
tp609
btp610
a((lp611
I0
ag23
(g24
(I0
tp612
g26
tp613
Rp614
(I1
(I1
tp615
g32
I00
S'\xd87<<'
p616
tp617
btp618
a((lp619
I4
aI3
ag23
(g24
(I0
tp620
g26
tp621
Rp622
(I1
(I1
tp623
g32
I00
S'\r,4<'
p624
tp625
btp626
a((lp627
I5
aI3
ag23
(g24
(I0
tp628
g26
tp629
Rp630
(I1
(I1
tp631
g32
I00
S'\xf7\xab*<'
p632
tp633
btp634
as.