(lp0
(dp1
cnumpy.core.multiarray
scalar
p2
(cnumpy
dtype
p3
(S'i8'
p4
I0
I1
tp5
Rp6
(I3
S'<'
p7
NNNI-1
I-1
I0
tp8
bS'\x00\x00\x00\x00\x00\x00\x00\x00'
p9
tp10
Rp11
(lp12
(lp13
cnumpy.core.multiarray
_reconstruct
p14
(cnumpy
ndarray
p15
(I0
tp16
S'b'
p17
tp18
Rp19
(I1
(I1
tp20
g3
(S'f4'
p21
I0
I1
tp22
Rp23
(I3
S'<'
p24
NNNI-1
I-1
I0
tp25
bI00
S'\x16B\x9b<'
p26
tp27
bag14
(g15
(I0
tp28
g17
tp29
Rp30
(I1
(I1
tp31
g23
I00
S'S\xb26='
p32
tp33
bag14
(g15
(I0
tp34
g17
tp35
Rp36
(I1
(I1
tp37
g23
I00
S'\xc5;\xa4<'
p38
tp39
bag14
(g15
(I0
tp40
g17
tp41
Rp42
(I1
(I1
tp43
g23
I00
S'\xaa*\xd4<'
p44
tp45
bag14
(g15
(I0
tp46
g17
tp47
Rp48
(I1
(I1
tp49
g23
I00
S'Dd\xf2<'
p50
tp51
bag14
(g15
(I0
tp52
g17
tp53
Rp54
(I1
(I1
tp55
g23
I00
S'\xc5\xd1/='
p56
tp57
bag14
(g15
(I0
tp58
g17
tp59
Rp60
(I1
(I1
tp61
g23
I00
S'\xab/\xda<'
p62
tp63
bag14
(g15
(I0
tp64
g17
tp65
Rp66
(I1
(I1
tp67
g23
I00
S'\xf3\xcd\xe3<'
p68
tp69
bag14
(g15
(I0
tp70
g17
tp71
Rp72
(I1
(I1
tp73
g23
I00
S'n\x8bF='
p74
tp75
bag14
(g15
(I0
tp76
g17
tp77
Rp78
(I1
(I1
tp79
g23
I00
S'=\xc1\x9c='
p80
tp81
bag14
(g15
(I0
tp82
g17
tp83
Rp84
(I1
(I1
tp85
g23
I00
S'\xa2\x92\x10='
p86
tp87
bag14
(g15
(I0
tp88
g17
tp89
Rp90
(I1
(I1
tp91
g23
I00
S'\n\x8cs<'
p92
tp93
bag14
(g15
(I0
tp94
g17
tp95
Rp96
(I1
(I1
tp97
g23
I00
S'(y\xb6<'
p98
tp99
bag14
(g15
(I0
tp100
g17
tp101
Rp102
(I1
(I1
tp103
g23
I00
S'k$\x94>'
p104
tp105
bag14
(g15
(I0
tp106
g17
tp107
Rp108
(I1
(I1
tp109
g23
I00
S'\x8e\x18J='
p110
tp111
bag14
(g15
(I0
tp112
g17
tp113
Rp114
(I1
(I1
tp115
g23
I00
S'<\x1d@='
p116
tp117
bag14
(g15
(I0
tp118
g17
tp119
Rp120
(I1
(I1
tp121
g23
I00
S'\xe7\x93\xe3<'
p122
tp123
bag14
(g15
(I0
tp124
g17
tp125
Rp126
(I1
(I1
tp127
g23
I00
S'\xa39\xf5<'
p128
tp129
bag14
(g15
(I0
tp130
g17
tp131
Rp132
(I1
(I1
tp133
g23
I00
S'M\xa3v='
p134
tp135
bag14
(g15
(I0
tp136
g17
tp137
Rp138
(I1
(I1
tp139
g23
I00
S'\x02\xba\xb7<'
p140
tp141
bag14
(g15
(I0
tp142
g17
tp143
Rp144
(I1
(I1
tp145
g23
I00
S'\x8c\xc7\x95<'
p146
tp147
bag14
(g15
(I0
tp148
g17
tp149
Rp150
(I1
(I1
tp151
g23
I00
S'$%\xb3<'
p152
tp153
baa(lp154
g14
(g15
(I0
tp155
g17
tp156
Rp157
(I1
(I1
tp158
g23
I00
S'\x98\xd6S;'
p159
tp160
bag14
(g15
(I0
tp161
g17
tp162
Rp163
(I1
(I1
tp164
g23
I00
S'\xc1\xe1h<'
p165
tp166
bag14
(g15
(I0
tp167
g17
tp168
Rp169
(I1
(I1
tp170
g23
I00
S'\xc1\x0cP;'
p171
tp172
bag14
(g15
(I0
tp173
g17
tp174
Rp175
(I1
(I1
tp176
g23
I00
S'\xe8\xad\xbc;'
p177
tp178
bag14
(g15
(I0
tp179
g17
tp180
Rp181
(I1
(I1
tp182
g23
I00
S'\x1e6\xe5;'
p183
tp184
bag14
(g15
(I0
tp185
g17
tp186
Rp187
(I1
(I1
tp188
g23
I00
S'T\xd0s<'
p189
tp190
bag14
(g15
(I0
tp191
g17
tp192
Rp193
(I1
(I1
tp194
g23
I00
S'\xfe[\xbb;'
p195
tp196
bag14
(g15
(I0
tp197
g17
tp198
Rp199
(I1
(I1
tp200
g23
I00
S'\x10<\xdb;'
p201
tp202
bag14
(g15
(I0
tp203
g17
tp204
Rp205
(I1
(I1
tp206
g23
I00
S'\x7f\r\x9d<'
p207
tp208
bag14
(g15
(I0
tp209
g17
tp210
Rp211
(I1
(I1
tp212
g23
I00
S',\x14P='
p213
tp214
bag14
(g15
(I0
tp215
g17
tp216
Rp217
(I1
(I1
tp218
g23
I00
S'\xf0[<<'
p219
tp220
bag14
(g15
(I0
tp221
g17
tp222
Rp223
(I1
(I1
tp224
g23
I00
S'\xfa\xc7\xfc:'
p225
tp226
bag14
(g15
(I0
tp227
g17
tp228
Rp229
(I1
(I1
tp230
g23
I00
S'\x06jz;'
p231
tp232
bag14
(g15
(I0
tp233
g17
tp234
Rp235
(I1
(I1
tp236
g23
I00
S'VEB?'
p237
tp238
bag14
(g15
(I0
tp239
g17
tp240
Rp241
(I1
(I1
tp242
g23
I00
S'\xc8\xc7\x9d<'
p243
tp244
bag14
(g15
(I0
tp245
g17
tp246
Rp247
(I1
(I1
tp248
g23
I00
S'\x9d@\x8f<'
p249
tp250
bag14
(g15
(I0
tp251
g17
tp252
Rp253
(I1
(I1
tp254
g23
I00
S'\xf0g\xb9;'
p255
tp256
bag14
(g15
(I0
tp257
g17
tp258
Rp259
(I1
(I1
tp260
g23
I00
S'\x8eN\xff;'
p261
tp262
bag14
(g15
(I0
tp263
g17
tp264
Rp265
(I1
(I1
tp266
g23
I00
S' \x95\x01='
p267
tp268
bag14
(g15
(I0
tp269
g17
tp270
Rp271
(I1
(I1
tp272
g23
I00
S'\xb9\x92\x8d;'
p273
tp274
bag14
(g15
(I0
tp275
g17
tp276
Rp277
(I1
(I1
tp278
g23
I00
S'\xca21;'
p279
tp280
bag14
(g15
(I0
tp281
g17
tp282
Rp283
(I1
(I1
tp284
g23
I00
S'\xec\xe0\x8f;'
p285
tp286
baa(lp287
g14
(g15
(I0
tp288
g17
tp289
Rp290
(I1
(I1
tp291
g23
I00
S'\x1d\xb9\x1e;'
p292
tp293
bag14
(g15
(I0
tp294
g17
tp295
Rp296
(I1
(I1
tp297
g23
I00
S'3\xc7\xc8<'
p298
tp299
bag14
(g15
(I0
tp300
g17
tp301
Rp302
(I1
(I1
tp303
g23
I00
S'\xda\xf5\x1d<'
p304
tp305
bag14
(g15
(I0
tp306
g17
tp307
Rp308
(I1
(I1
tp309
g23
I00
S'M\xab&<'
p310
tp311
bag14
(g15
(I0
tp312
g17
tp313
Rp314
(I1
(I1
tp315
g23
I00
S'\x0b\xcf\x08<'
p316
tp317
bag14
(g15
(I0
tp318
g17
tp319
Rp320
(I1
(I1
tp321
g23
I00
S'\xf4:\x81<'
p322
tp323
bag14
(g15
(I0
tp324
g17
tp325
Rp326
(I1
(I1
tp327
g23
I00
S'\xa2<\x82;'
p328
tp329
bag14
(g15
(I0
tp330
g17
tp331
Rp332
(I1
(I1
tp333
g23
I00
S'\xde\xab\x03<'
p334
tp335
bag14
(g15
(I0
tp336
g17
tp337
Rp338
(I1
(I1
tp339
g23
I00
S'\xf8\x95\xec<'
p340
tp341
bag14
(g15
(I0
tp342
g17
tp343
Rp344
(I1
(I1
tp345
g23
I00
S'\xe2\x9b1='
p346
tp347
bag14
(g15
(I0
tp348
g17
tp349
Rp350
(I1
(I1
tp351
g23
I00
S'\xad\x9eD<'
p352
tp353
bag14
(g15
(I0
tp354
g17
tp355
Rp356
(I1
(I1
tp357
g23
I00
S'\xe9p\xa5:'
p358
tp359
bag14
(g15
(I0
tp360
g17
tp361
Rp362
(I1
(I1
tp363
g23
I00
S'\xea\xf4\xa2;'
p364
tp365
bag14
(g15
(I0
tp366
g17
tp367
Rp368
(I1
(I1
tp369
g23
I00
S'#\x149?'
p370
tp371
bag14
(g15
(I0
tp372
g17
tp373
Rp374
(I1
(I1
tp375
g23
I00
S'\r\xf3c<'
p376
tp377
bag14
(g15
(I0
tp378
g17
tp379
Rp380
(I1
(I1
tp381
g23
I00
S'\x10o\xc0<'
p382
tp383
bag14
(g15
(I0
tp384
g17
tp385
Rp386
(I1
(I1
tp387
g23
I00
S')\xda\xd6;'
p388
tp389
bag14
(g15
(I0
tp390
g17
tp391
Rp392
(I1
(I1
tp393
g23
I00
S'\xa9\x07!<'
p394
tp395
bag14
(g15
(I0
tp396
g17
tp397
Rp398
(I1
(I1
tp399
g23
I00
S"'\x8d\xfe<"
p400
tp401
bag14
(g15
(I0
tp402
g17
tp403
Rp404
(I1
(I1
tp405
g23
I00
S'\xcb\x81\xf5;'
p406
tp407
bag14
(g15
(I0
tp408
g17
tp409
Rp410
(I1
(I1
tp411
g23
I00
S'\x0f\xe3\x99;'
p412
tp413
bag14
(g15
(I0
tp414
g17
tp415
Rp416
(I1
(I1
tp417
g23
I00
S'Z)\xd9;'
p418
tp419
baasg2
(g6
S'\x01\x00\x00\x00\x00\x00\x00\x00'
p420
tp421
Rp422
(lp423
(lp424
g14
(g15
(I0
tp425
g17
tp426
Rp427
(I1
(I1
tp428
g23
I00
S'{%\xa0<'
p429
tp430
bag14
(g15
(I0
tp431
g17
tp432
Rp433
(I1
(I1
tp434
g23
I00
S'\xea#N='
p435
tp436
bag14
(g15
(I0
tp437
g17
tp438
Rp439
(I1
(I1
tp440
g23
I00
S'(HV='
p441
tp442
bag14
(g15
(I0
tp443
g17
tp444
Rp445
(I1
(I1
tp446
g23
I00
S'\xac\x03_='
p447
tp448
bag14
(g15
(I0
tp449
g17
tp450
Rp451
(I1
(I1
tp452
g23
I00
S"GB'="
p453
tp454
bag14
(g15
(I0
tp455
g17
tp456
Rp457
(I1
(I1
tp458
g23
I00
S'\xb0\x1a\x1d>'
p459
tp460
bag14
(g15
(I0
tp461
g17
tp462
Rp463
(I1
(I1
tp464
g23
I00
S'\xdf\x165='
p465
tp466
bag14
(g15
(I0
tp467
g17
tp468
Rp469
(I1
(I1
tp470
g23
I00
S'\xcab\x03='
p471
tp472
bag14
(g15
(I0
tp473
g17
tp474
Rp475
(I1
(I1
tp476
g23
I00
S'N\xa0>='
p477
tp478
bag14
(g15
(I0
tp479
g17
tp480
Rp481
(I1
(I1
tp482
g23
I00
S';3,='
p483
tp484
bag14
(g15
(I0
tp485
g17
tp486
Rp487
(I1
(I1
tp488
g23
I00
S'\x92}o='
p489
tp490
bag14
(g15
(I0
tp491
g17
tp492
Rp493
(I1
(I1
tp494
g23
I00
S'\x8f\xfa\x0f='
p495
tp496
bag14
(g15
(I0
tp497
g17
tp498
Rp499
(I1
(I1
tp500
g23
I00
S'\x9bA+='
p501
tp502
bag14
(g15
(I0
tp503
g17
tp504
Rp505
(I1
(I1
tp506
g23
I00
S')\xcc\x12='
p507
tp508
bag14
(g15
(I0
tp509
g17
tp510
Rp511
(I1
(I1
tp512
g23
I00
S'\x05\xa6\xeb<'
p513
tp514
bag14
(g15
(I0
tp515
g17
tp516
Rp517
(I1
(I1
tp518
g23
I00
S'\xda\xf4%='
p519
tp520
bag14
(g15
(I0
tp521
g17
tp522
Rp523
(I1
(I1
tp524
g23
I00
S'"\x11\t='
p525
tp526
bag14
(g15
(I0
tp527
g17
tp528
Rp529
(I1
(I1
tp530
g23
I00
S'SR\x05='
p531
tp532
bag14
(g15
(I0
tp533
g17
tp534
Rp535
(I1
(I1
tp536
g23
I00
S'\x9b\x081='
p537
tp538
bag14
(g15
(I0
tp539
g17
tp540
Rp541
(I1
(I1
tp542
g23
I00
S';w\x0c='
p543
tp544
bag14
(g15
(I0
tp545
g17
tp546
Rp547
(I1
(I1
tp548
g23
I00
S'\x18\xcb.='
p549
tp550
bag14
(g15
(I0
tp551
g17
tp552
Rp553
(I1
(I1
tp554
g23
I00
S"'\x87\x19="
p555
tp556
baa(lp557
g14
(g15
(I0
tp558
g17
tp559
Rp560
(I1
(I1
tp561
g23
I00
S'\xbb1\xf7;'
p562
tp563
bag14
(g15
(I0
tp564
g17
tp565
Rp566
(I1
(I1
tp567
g23
I00
S'\x7f\x1cD='
p568
tp569
bag14
(g15
(I0
tp570
g17
tp571
Rp572
(I1
(I1
tp573
g23
I00
S'S\xbeN='
p574
tp575
bag14
(g15
(I0
tp576
g17
tp577
Rp578
(I1
(I1
tp579
g23
I00
S'5\xafM='
p580
tp581
bag14
(g15
(I0
tp582
g17
tp583
Rp584
(I1
(I1
tp585
g23
I00
S'p\xa2\xfd<'
p586
tp587
bag14
(g15
(I0
tp588
g17
tp589
Rp590
(I1
(I1
tp591
g23
I00
S'\xaa\xbe\xb8>'
p592
tp593
bag14
(g15
(I0
tp594
g17
tp595
Rp596
(I1
(I1
tp597
g23
I00
S'\xe0\xd1\x10='
p598
tp599
bag14
(g15
(I0
tp600
g17
tp601
Rp602
(I1
(I1
tp603
g23
I00
S'\xa4\x87\x99<'
p604
tp605
bag14
(g15
(I0
tp606
g17
tp607
Rp608
(I1
(I1
tp609
g23
I00
S'\xfa\xe4\x1b='
p610
tp611
bag14
(g15
(I0
tp612
g17
tp613
Rp614
(I1
(I1
tp615
g23
I00
S'z\xda\xed<'
p616
tp617
bag14
(g15
(I0
tp618
g17
tp619
Rp620
(I1
(I1
tp621
g23
I00
S'\xf1\xc8x='
p622
tp623
bag14
(g15
(I0
tp624
g17
tp625
Rp626
(I1
(I1
tp627
g23
I00
S'UO\xb3<'
p628
tp629
bag14
(g15
(I0
tp630
g17
tp631
Rp632
(I1
(I1
tp633
g23
I00
S'\n\xf0\x02='
p634
tp635
bag14
(g15
(I0
tp636
g17
tp637
Rp638
(I1
(I1
tp639
g23
I00
S'_2\xbb<'
p640
tp641
bag14
(g15
(I0
tp642
g17
tp643
Rp644
(I1
(I1
tp645
g23
I00
S'6\x14c<'
p646
tp647
bag14
(g15
(I0
tp648
g17
tp649
Rp650
(I1
(I1
tp651
g23
I00
S'\xb8-\xf3<'
p652
tp653
bag14
(g15
(I0
tp654
g17
tp655
Rp656
(I1
(I1
tp657
g23
I00
S'}g\x9c<'
p658
tp659
bag14
(g15
(I0
tp660
g17
tp661
Rp662
(I1
(I1
tp663
g23
I00
S'(\xdc\x9c<'
p664
tp665
bag14
(g15
(I0
tp666
g17
tp667
Rp668
(I1
(I1
tp669
g23
I00
S'\xe7\x9d\x04='
p670
tp671
bag14
(g15
(I0
tp672
g17
tp673
Rp674
(I1
(I1
tp675
g23
I00
S'u\x9f\xb2<'
p676
tp677
bag14
(g15
(I0
tp678
g17
tp679
Rp680
(I1
(I1
tp681
g23
I00
S'\xd55\x06='
p682
tp683
bag14
(g15
(I0
tp684
g17
tp685
Rp686
(I1
(I1
tp687
g23
I00
S'\xa7\x8c\xca<'
p688
tp689
baa(lp690
g14
(g15
(I0
tp691
g17
tp692
Rp693
(I1
(I1
tp694
g23
I00
S'\x1aC\x94;'
p695
tp696
bag14
(g15
(I0
tp697
g17
tp698
Rp699
(I1
(I1
tp700
g23
I00
S'Q\x98\xbe='
p701
tp702
bag14
(g15
(I0
tp703
g17
tp704
Rp705
(I1
(I1
tp706
g23
I00
S'\xf9\xcc\x0e>'
p707
tp708
bag14
(g15
(I0
tp709
g17
tp710
Rp711
(I1
(I1
tp712
g23
I00
S'e\x1c\x83='
p713
tp714
bag14
(g15
(I0
tp715
g17
tp716
Rp717
(I1
(I1
tp718
g23
I00
S'\x12]\x06='
p719
tp720
bag14
(g15
(I0
tp721
g17
tp722
Rp723
(I1
(I1
tp724
g23
I00
S'\xca\x13}>'
p725
tp726
bag14
(g15
(I0
tp727
g17
tp728
Rp729
(I1
(I1
tp730
g23
I00
S'I>\xb5<'
p731
tp732
bag14
(g15
(I0
tp733
g17
tp734
Rp735
(I1
(I1
tp736
g23
I00
S'W\xa1\x8b<'
p737
tp738
bag14
(g15
(I0
tp739
g17
tp740
Rp741
(I1
(I1
tp742
g23
I00
S'h\x7f6='
p743
tp744
bag14
(g15
(I0
tp745
g17
tp746
Rp747
(I1
(I1
tp748
g23
I00
S'\x0c\xda\x82<'
p749
tp750
bag14
(g15
(I0
tp751
g17
tp752
Rp753
(I1
(I1
tp754
g23
I00
S'M\xa9#='
p755
tp756
bag14
(g15
(I0
tp757
g17
tp758
Rp759
(I1
(I1
tp760
g23
I00
S'\x06q5<'
p761
tp762
bag14
(g15
(I0
tp763
g17
tp764
Rp765
(I1
(I1
tp766
g23
I00
S'\xaf\xe6\x16='
p767
tp768
bag14
(g15
(I0
tp769
g17
tp770
Rp771
(I1
(I1
tp772
g23
I00
S'\x03\x9c\x90<'
p773
tp774
bag14
(g15
(I0
tp775
g17
tp776
Rp777
(I1
(I1
tp778
g23
I00
S'.\xee\x0b<'
p779
tp780
bag14
(g15
(I0
tp781
g17
tp782
Rp783
(I1
(I1
tp784
g23
I00
S'k4\x19='
p785
tp786
bag14
(g15
(I0
tp787
g17
tp788
Rp789
(I1
(I1
tp790
g23
I00
S'\xe4\x98\xb9<'
p791
tp792
bag14
(g15
(I0
tp793
g17
tp794
Rp795
(I1
(I1
tp796
g23
I00
S'\xfe2\x93<'
p797
tp798
bag14
(g15
(I0
tp799
g17
tp800
Rp801
(I1
(I1
tp802
g23
I00
S'\xd6\xc3\xc2<'
p803
tp804
bag14
(g15
(I0
tp805
g17
tp806
Rp807
(I1
(I1
tp808
g23
I00
S'8F\xf4<'
p809
tp810
bag14
(g15
(I0
tp811
g17
tp812
Rp813
(I1
(I1
tp814
g23
I00
S'w\xc6F='
p815
tp816
bag14
(g15
(I0
tp817
g17
tp818
Rp819
(I1
(I1
tp820
g23
I00
S'Ml\xcd<'
p821
tp822
baasg2
(g6
S'\x02\x00\x00\x00\x00\x00\x00\x00'
p823
tp824
Rp825
(lp826
(lp827
g14
(g15
(I0
tp828
g17
tp829
Rp830
(I1
(I1
tp831
g23
I00
S'A\xbf\xc8<'
p832
tp833
bag14
(g15
(I0
tp834
g17
tp835
Rp836
(I1
(I1
tp837
g23
I00
S'\xcf"\xf6<'
p838
tp839
bag14
(g15
(I0
tp840
g17
tp841
Rp842
(I1
(I1
tp843
g23
I00
S'\x12\xec?='
p844
tp845
bag14
(g15
(I0
tp846
g17
tp847
Rp848
(I1
(I1
tp849
g23
I00
S'laM='
p850
tp851
bag14
(g15
(I0
tp852
g17
tp853
Rp854
(I1
(I1
tp855
g23
I00
S'\xef\x0c\x0e='
p856
tp857
bag14
(g15
(I0
tp858
g17
tp859
Rp860
(I1
(I1
tp861
g23
I00
S'\xd4\xf6\x01='
p862
tp863
bag14
(g15
(I0
tp864
g17
tp865
Rp866
(I1
(I1
tp867
g23
I00
S'a8\x00='
p868
tp869
bag14
(g15
(I0
tp870
g17
tp871
Rp872
(I1
(I1
tp873
g23
I00
S'j\x82\x83='
p874
tp875
bag14
(g15
(I0
tp876
g17
tp877
Rp878
(I1
(I1
tp879
g23
I00
S'"\xcf?='
p880
tp881
bag14
(g15
(I0
tp882
g17
tp883
Rp884
(I1
(I1
tp885
g23
I00
S'\xd1\xbd\xf5<'
p886
tp887
bag14
(g15
(I0
tp888
g17
tp889
Rp890
(I1
(I1
tp891
g23
I00
S'\x03l\x0b='
p892
tp893
bag14
(g15
(I0
tp894
g17
tp895
Rp896
(I1
(I1
tp897
g23
I00
S'\xb6\x07\xa5<'
p898
tp899
bag14
(g15
(I0
tp900
g17
tp901
Rp902
(I1
(I1
tp903
g23
I00
S'=\xfe\xde<'
p904
tp905
bag14
(g15
(I0
tp906
g17
tp907
Rp908
(I1
(I1
tp909
g23
I00
S'd\x0e\x03='
p910
tp911
bag14
(g15
(I0
tp912
g17
tp913
Rp914
(I1
(I1
tp915
g23
I00
S'\xb7\x0c\x1b='
p916
tp917
bag14
(g15
(I0
tp918
g17
tp919
Rp920
(I1
(I1
tp921
g23
I00
S'0\x9b\x1b='
p922
tp923
bag14
(g15
(I0
tp924
g17
tp925
Rp926
(I1
(I1
tp927
g23
I00
S'\xecE\xd9<'
p928
tp929
bag14
(g15
(I0
tp930
g17
tp931
Rp932
(I1
(I1
tp933
g23
I00
S'\xe6\xfb\xeb<'
p934
tp935
bag14
(g15
(I0
tp936
g17
tp937
Rp938
(I1
(I1
tp939
g23
I00
S'oU*='
p940
tp941
bag14
(g15
(I0
tp942
g17
tp943
Rp944
(I1
(I1
tp945
g23
I00
S'[\xcf ='
p946
tp947
bag14
(g15
(I0
tp948
g17
tp949
Rp950
(I1
(I1
tp951
g23
I00
S'\xf0\xfe\x7f>'
p952
tp953
bag14
(g15
(I0
tp954
g17
tp955
Rp956
(I1
(I1
tp957
g23
I00
S'\xc5k\x0c='
p958
tp959
baa(lp960
g14
(g15
(I0
tp961
g17
tp962
Rp963
(I1
(I1
tp964
g23
I00
S'0m\xfa;'
p965
tp966
bag14
(g15
(I0
tp967
g17
tp968
Rp969
(I1
(I1
tp970
g23
I00
S'\xd6\xa9,<'
p971
tp972
bag14
(g15
(I0
tp973
g17
tp974
Rp975
(I1
(I1
tp976
g23
I00
S'|s\xd1<'
p977
tp978
bag14
(g15
(I0
tp979
g17
tp980
Rp981
(I1
(I1
tp982
g23
I00
S'\xbf\x06\xf1<'
p983
tp984
bag14
(g15
(I0
tp985
g17
tp986
Rp987
(I1
(I1
tp988
g23
I00
S'h:~<'
p989
tp990
bag14
(g15
(I0
tp991
g17
tp992
Rp993
(I1
(I1
tp994
g23
I00
S'\x1f\xa6?<'
p995
tp996
bag14
(g15
(I0
tp997
g17
tp998
Rp999
(I1
(I1
tp1000
g23
I00
S'\xed\xea?<'
p1001
tp1002
bag14
(g15
(I0
tp1003
g17
tp1004
Rp1005
(I1
(I1
tp1006
g23
I00
S'5\xc8?='
p1007
tp1008
bag14
(g15
(I0
tp1009
g17
tp1010
Rp1011
(I1
(I1
tp1012
g23
I00
S'\x05+\xc0<'
p1013
tp1014
bag14
(g15
(I0
tp1015
g17
tp1016
Rp1017
(I1
(I1
tp1018
g23
I00
S'\xbb\x142<'
p1019
tp1020
bag14
(g15
(I0
tp1021
g17
tp1022
Rp1023
(I1
(I1
tp1024
g23
I00
S'\xd1\xd9d<'
p1025
tp1026
bag14
(g15
(I0
tp1027
g17
tp1028
Rp1029
(I1
(I1
tp1030
g23
I00
S'\xda(\xba;'
p1031
tp1032
bag14
(g15
(I0
tp1033
g17
tp1034
Rp1035
(I1
(I1
tp1036
g23
I00
S'\x1a\x03\x12<'
p1037
tp1038
bag14
(g15
(I0
tp1039
g17
tp1040
Rp1041
(I1
(I1
tp1042
g23
I00
S'\xb8x/<'
p1043
tp1044
bag14
(g15
(I0
tp1045
g17
tp1046
Rp1047
(I1
(I1
tp1048
g23
I00
S'zK\x8a<'
p1049
tp1050
bag14
(g15
(I0
tp1051
g17
tp1052
Rp1053
(I1
(I1
tp1054
g23
I00
S'>\xbf\x8e<'
p1055
tp1056
bag14
(g15
(I0
tp1057
g17
tp1058
Rp1059
(I1
(I1
tp1060
g23
I00
S'<N\x0f<'
p1061
tp1062
bag14
(g15
(I0
tp1063
g17
tp1064
Rp1065
(I1
(I1
tp1066
g23
I00
S'\xb8e!<'
p1067
tp1068
bag14
(g15
(I0
tp1069
g17
tp1070
Rp1071
(I1
(I1
tp1072
g23
I00
S'z;\xaa<'
p1073
tp1074
bag14
(g15
(I0
tp1075
g17
tp1076
Rp1077
(I1
(I1
tp1078
g23
I00
S'\xb7h\x93<'
p1079
tp1080
bag14
(g15
(I0
tp1081
g17
tp1082
Rp1083
(I1
(I1
tp1084
g23
I00
S'\xe7?)?'
p1085
tp1086
bag14
(g15
(I0
tp1087
g17
tp1088
Rp1089
(I1
(I1
tp1090
g23
I00
S'n^p<'
p1091
tp1092
baa(lp1093
g14
(g15
(I0
tp1094
g17
tp1095
Rp1096
(I1
(I1
tp1097
g23
I00
S')\x86\x95;'
p1098
tp1099
bag14
(g15
(I0
tp1100
g17
tp1101
Rp1102
(I1
(I1
tp1103
g23
I00
S'\xf0\xcb\x91<'
p1104
tp1105
bag14
(g15
(I0
tp1106
g17
tp1107
Rp1108
(I1
(I1
tp1109
g23
I00
S'(\xad\x87='
p1110
tp1111
bag14
(g15
(I0
tp1112
g17
tp1113
Rp1114
(I1
(I1
tp1115
g23
I00
S'\x9c\x1e\x1e='
p1116
tp1117
bag14
(g15
(I0
tp1118
g17
tp1119
Rp1120
(I1
(I1
tp1121
g23
I00
S'\x0c\xee\x9e<'
p1122
tp1123
bag14
(g15
(I0
tp1124
g17
tp1125
Rp1126
(I1
(I1
tp1127
g23
I00
S'\xb2$A<'
p1128
tp1129
bag14
(g15
(I0
tp1130
g17
tp1131
Rp1132
(I1
(I1
tp1133
g23
I00
S'z\xdb\xfa;'
p1134
tp1135
bag14
(g15
(I0
tp1136
g17
tp1137
Rp1138
(I1
(I1
tp1139
g23
I00
S'W\xc1\x15='
p1140
tp1141
bag14
(g15
(I0
tp1142
g17
tp1143
Rp1144
(I1
(I1
tp1145
g23
I00
S'*n\xce<'
p1146
tp1147
bag14
(g15
(I0
tp1148
g17
tp1149
Rp1150
(I1
(I1
tp1151
g23
I00
S'\xa7\xb8\xfc;'
p1152
tp1153
bag14
(g15
(I0
tp1154
g17
tp1155
Rp1156
(I1
(I1
tp1157
g23
I00
S'\xe2\x005<'
p1158
tp1159
bag14
(g15
(I0
tp1160
g17
tp1161
Rp1162
(I1
(I1
tp1163
g23
I00
S'e\xd5v;'
p1164
tp1165
bag14
(g15
(I0
tp1166
g17
tp1167
Rp1168
(I1
(I1
tp1169
g23
I00
S'\xb7\xb0/<'
p1170
tp1171
bag14
(g15
(I0
tp1172
g17
tp1173
Rp1174
(I1
(I1
tp1175
g23
I00
S'\xfb^\xf3;'
p1176
tp1177
bag14
(g15
(I0
tp1178
g17
tp1179
Rp1180
(I1
(I1
tp1181
g23
I00
S'\x1d\x9c7<'
p1182
tp1183
bag14
(g15
(I0
tp1184
g17
tp1185
Rp1186
(I1
(I1
tp1187
g23
I00
S'+\x84\xbb<'
p1188
tp1189
bag14
(g15
(I0
tp1190
g17
tp1191
Rp1192
(I1
(I1
tp1193
g23
I00
S'\\*C<'
p1194
tp1195
bag14
(g15
(I0
tp1196
g17
tp1197
Rp1198
(I1
(I1
tp1199
g23
I00
S'\x7f\n$<'
p1200
tp1201
bag14
(g15
(I0
tp1202
g17
tp1203
Rp1204
(I1
(I1
tp1205
g23
I00
S'\xd3\x08\x85<'
p1206
tp1207
bag14
(g15
(I0
tp1208
g17
tp1209
Rp1210
(I1
(I1
tp1211
g23
I00
S'\xfc\xc7\xb3<'
p1212
tp1213
bag14
(g15
(I0
tp1214
g17
tp1215
Rp1216
(I1
(I1
tp1217
g23
I00
S'N\x02\x1f?'
p1218
tp1219
bag14
(g15
(I0
tp1220
g17
tp1221
Rp1222
(I1
(I1
tp1223
g23
I00
S'\x1ax\x84<'
p1224
tp1225
baasg2
(g6
S'\x03\x00\x00\x00\x00\x00\x00\x00'
p1226
tp1227
Rp1228
(lp1229
(lp1230
g14
(g15
(I0
tp1231
g17
tp1232
Rp1233
(I1
(I1
tp1234
g23
I00
S'0\xf9\x8b<'
p1235
tp1236
bag14
(g15
(I0
tp1237
g17
tp1238
Rp1239
(I1
(I1
tp1240
g23
I00
S'\xe3\x13u='
p1241
tp1242
bag14
(g15
(I0
tp1243
g17
tp1244
Rp1245
(I1
(I1
tp1246
g23
I00
S'@\x01\x0f>'
p1247
tp1248
bag14
(g15
(I0
tp1249
g17
tp1250
Rp1251
(I1
(I1
tp1252
g23
I00
S'\xc0\x86=='
p1253
tp1254
bag14
(g15
(I0
tp1255
g17
tp1256
Rp1257
(I1
(I1
tp1258
g23
I00
S'\xb3~-='
p1259
tp1260
bag14
(g15
(I0
tp1261
g17
tp1262
Rp1263
(I1
(I1
tp1264
g23
I00
S'\xf2\x99\x1a='
p1265
tp1266
bag14
(g15
(I0
tp1267
g17
tp1268
Rp1269
(I1
(I1
tp1270
g23
I00
S'\xdc,\xcb<'
p1271
tp1272
bag14
(g15
(I0
tp1273
g17
tp1274
Rp1275
(I1
(I1
tp1276
g23
I00
S'\xbc\xfb\x13='
p1277
tp1278
bag14
(g15
(I0
tp1279
g17
tp1280
Rp1281
(I1
(I1
tp1282
g23
I00
S'\x8d\xce\x16='
p1283
tp1284
bag14
(g15
(I0
tp1285
g17
tp1286
Rp1287
(I1
(I1
tp1288
g23
I00
S'U\xc8\x1d='
p1289
tp1290
bag14
(g15
(I0
tp1291
g17
tp1292
Rp1293
(I1
(I1
tp1294
g23
I00
S'\xff\xf78='
p1295
tp1296
bag14
(g15
(I0
tp1297
g17
tp1298
Rp1299
(I1
(I1
tp1300
g23
I00
S"\x8e'\x8f<"
p1301
tp1302
bag14
(g15
(I0
tp1303
g17
tp1304
Rp1305
(I1
(I1
tp1306
g23
I00
S'K\xd5\x07='
p1307
tp1308
bag14
(g15
(I0
tp1309
g17
tp1310
Rp1311
(I1
(I1
tp1312
g23
I00
S'WT\xfd<'
p1313
tp1314
bag14
(g15
(I0
tp1315
g17
tp1316
Rp1317
(I1
(I1
tp1318
g23
I00
S'\xe0\x0b\xe4<'
p1319
tp1320
bag14
(g15
(I0
tp1321
g17
tp1322
Rp1323
(I1
(I1
tp1324
g23
I00
S'0_=='
p1325
tp1326
bag14
(g15
(I0
tp1327
g17
tp1328
Rp1329
(I1
(I1
tp1330
g23
I00
S'\t\x17#='
p1331
tp1332
bag14
(g15
(I0
tp1333
g17
tp1334
Rp1335
(I1
(I1
tp1336
g23
I00
S'j\x98\xe1<'
p1337
tp1338
bag14
(g15
(I0
tp1339
g17
tp1340
Rp1341
(I1
(I1
tp1342
g23
I00
S' B\x13='
p1343
tp1344
bag14
(g15
(I0
tp1345
g17
tp1346
Rp1347
(I1
(I1
tp1348
g23
I00
S'k\xa2\x87='
p1349
tp1350
bag14
(g15
(I0
tp1351
g17
tp1352
Rp1353
(I1
(I1
tp1354
g23
I00
S'i:\xec='
p1355
tp1356
bag14
(g15
(I0
tp1357
g17
tp1358
Rp1359
(I1
(I1
tp1360
g23
I00
S'\xa9\xd2\x0f='
p1361
tp1362
baa(lp1363
g14
(g15
(I0
tp1364
g17
tp1365
Rp1366
(I1
(I1
tp1367
g23
I00
S'\x9f[\xb5;'
p1368
tp1369
bag14
(g15
(I0
tp1370
g17
tp1371
Rp1372
(I1
(I1
tp1373
g23
I00
S'\xcf\x9dl='
p1374
tp1375
bag14
(g15
(I0
tp1376
g17
tp1377
Rp1378
(I1
(I1
tp1379
g23
I00
S'\xc0\xf4\x96>'
p1380
tp1381
bag14
(g15
(I0
tp1382
g17
tp1383
Rp1384
(I1
(I1
tp1385
g23
I00
S'\\\x17\x0b='
p1386
tp1387
bag14
(g15
(I0
tp1388
g17
tp1389
Rp1390
(I1
(I1
tp1391
g23
I00
S'T\x07\xf6<'
p1392
tp1393
bag14
(g15
(I0
tp1394
g17
tp1395
Rp1396
(I1
(I1
tp1397
g23
I00
S'\xbb<\xbe<'
p1398
tp1399
bag14
(g15
(I0
tp1400
g17
tp1401
Rp1402
(I1
(I1
tp1403
g23
I00
S'\x0c;=<'
p1404
tp1405
bag14
(g15
(I0
tp1406
g17
tp1407
Rp1408
(I1
(I1
tp1409
g23
I00
S'n\x17\xb6<'
p1410
tp1411
bag14
(g15
(I0
tp1412
g17
tp1413
Rp1414
(I1
(I1
tp1415
g23
I00
S'\x15p\xaa<'
p1416
tp1417
bag14
(g15
(I0
tp1418
g17
tp1419
Rp1420
(I1
(I1
tp1421
g23
I00
S'DV\xb8<'
p1422
tp1423
bag14
(g15
(I0
tp1424
g17
tp1425
Rp1426
(I1
(I1
tp1427
g23
I00
S'j\x83\x07='
p1428
tp1429
bag14
(g15
(I0
tp1430
g17
tp1431
Rp1432
(I1
(I1
tp1433
g23
I00
S'\x8e\x05\xcc;'
p1434
tp1435
bag14
(g15
(I0
tp1436
g17
tp1437
Rp1438
(I1
(I1
tp1439
g23
I00
S'\xcd/\x91<'
p1440
tp1441
bag14
(g15
(I0
tp1442
g17
tp1443
Rp1444
(I1
(I1
tp1445
g23
I00
S'5~c<'
p1446
tp1447
bag14
(g15
(I0
tp1448
g17
tp1449
Rp1450
(I1
(I1
tp1451
g23
I00
S'L\xa3Y<'
p1452
tp1453
bag14
(g15
(I0
tp1454
g17
tp1455
Rp1456
(I1
(I1
tp1457
g23
I00
S'\xd9\xcb\x0f='
p1458
tp1459
bag14
(g15
(I0
tp1460
g17
tp1461
Rp1462
(I1
(I1
tp1463
g23
I00
S'\xad\xb6\xd0<'
p1464
tp1465
bag14
(g15
(I0
tp1466
g17
tp1467
Rp1468
(I1
(I1
tp1469
g23
I00
S'\xfc\xb8Z<'
p1470
tp1471
bag14
(g15
(I0
tp1472
g17
tp1473
Rp1474
(I1
(I1
tp1475
g23
I00
S'\x10\xa9\xa1<'
p1476
tp1477
bag14
(g15
(I0
tp1478
g17
tp1479
Rp1480
(I1
(I1
tp1481
g23
I00
S'\x13\x04\x8a='
p1482
tp1483
bag14
(g15
(I0
tp1484
g17
tp1485
Rp1486
(I1
(I1
tp1487
g23
I00
S'\x94\xe5W>'
p1488
tp1489
bag14
(g15
(I0
tp1490
g17
tp1491
Rp1492
(I1
(I1
tp1493
g23
I00
S'\xb3\xd9\xaf<'
p1494
tp1495
baa(lp1496
g14
(g15
(I0
tp1497
g17
tp1498
Rp1499
(I1
(I1
tp1500
g23
I00
S'\xc6\x0c0;'
p1501
tp1502
bag14
(g15
(I0
tp1503
g17
tp1504
Rp1505
(I1
(I1
tp1506
g23
I00
S'\x99\xa6\x8d='
p1507
tp1508
bag14
(g15
(I0
tp1509
g17
tp1510
Rp1511
(I1
(I1
tp1512
g23
I00
S'x@\xde>'
p1513
tp1514
bag14
(g15
(I0
tp1515
g17
tp1516
Rp1517
(I1
(I1
tp1518
g23
I00
S'S;\x06='
p1519
tp1520
bag14
(g15
(I0
tp1521
g17
tp1522
Rp1523
(I1
(I1
tp1524
g23
I00
S'\xbdW\xbd<'
p1525
tp1526
bag14
(g15
(I0
tp1527
g17
tp1528
Rp1529
(I1
(I1
tp1530
g23
I00
S'$\xad\x8b<'
p1531
tp1532
bag14
(g15
(I0
tp1533
g17
tp1534
Rp1535
(I1
(I1
tp1536
g23
I00
S'\xc9\xcc\xe0;'
p1537
tp1538
bag14
(g15
(I0
tp1539
g17
tp1540
Rp1541
(I1
(I1
tp1542
g23
I00
S'l\xdat<'
p1543
tp1544
bag14
(g15
(I0
tp1545
g17
tp1546
Rp1547
(I1
(I1
tp1548
g23
I00
S'S\xff\x9a<'
p1549
tp1550
bag14
(g15
(I0
tp1551
g17
tp1552
Rp1553
(I1
(I1
tp1554
g23
I00
S'\xaf\xc9#<'
p1555
tp1556
bag14
(g15
(I0
tp1557
g17
tp1558
Rp1559
(I1
(I1
tp1560
g23
I00
S'HN\x8e<'
p1561
tp1562
bag14
(g15
(I0
tp1563
g17
tp1564
Rp1565
(I1
(I1
tp1566
g23
I00
S'\xb0<O;'
p1567
tp1568
bag14
(g15
(I0
tp1569
g17
tp1570
Rp1571
(I1
(I1
tp1572
g23
I00
S'\x87_i<'
p1573
tp1574
bag14
(g15
(I0
tp1575
g17
tp1576
Rp1577
(I1
(I1
tp1578
g23
I00
S'\x9d\xab\xe8;'
p1579
tp1580
bag14
(g15
(I0
tp1581
g17
tp1582
Rp1583
(I1
(I1
tp1584
g23
I00
S'\x8c\x13\xe8;'
p1585
tp1586
bag14
(g15
(I0
tp1587
g17
tp1588
Rp1589
(I1
(I1
tp1590
g23
I00
S'.\xbe\x00='
p1591
tp1592
bag14
(g15
(I0
tp1593
g17
tp1594
Rp1595
(I1
(I1
tp1596
g23
I00
S'\x06\xbd\xb5<'
p1597
tp1598
bag14
(g15
(I0
tp1599
g17
tp1600
Rp1601
(I1
(I1
tp1602
g23
I00
S'K7,<'
p1603
tp1604
bag14
(g15
(I0
tp1605
g17
tp1606
Rp1607
(I1
(I1
tp1608
g23
I00
S'C\xe5,<'
p1609
tp1610
bag14
(g15
(I0
tp1611
g17
tp1612
Rp1613
(I1
(I1
tp1614
g23
I00
S'1\x9eV='
p1615
tp1616
bag14
(g15
(I0
tp1617
g17
tp1618
Rp1619
(I1
(I1
tp1620
g23
I00
S'm\x045>'
p1621
tp1622
bag14
(g15
(I0
tp1623
g17
tp1624
Rp1625
(I1
(I1
tp1626
g23
I00
S'a\x1f\x90<'
p1627
tp1628
baasg2
(g6
S'\x04\x00\x00\x00\x00\x00\x00\x00'
p1629
tp1630
Rp1631
(lp1632
(lp1633
g14
(g15
(I0
tp1634
g17
tp1635
Rp1636
(I1
(I1
tp1637
g23
I00
S'\x11n\xd5<'
p1638
tp1639
bag14
(g15
(I0
tp1640
g17
tp1641
Rp1642
(I1
(I1
tp1643
g23
I00
S'3MY='
p1644
tp1645
bag14
(g15
(I0
tp1646
g17
tp1647
Rp1648
(I1
(I1
tp1649
g23
I00
S'\xa2\xdda='
p1650
tp1651
bag14
(g15
(I0
tp1652
g17
tp1653
Rp1654
(I1
(I1
tp1655
g23
I00
S'\x17F\x83='
p1656
tp1657
bag14
(g15
(I0
tp1658
g17
tp1659
Rp1660
(I1
(I1
tp1661
g23
I00
S'>#&='
p1662
tp1663
bag14
(g15
(I0
tp1664
g17
tp1665
Rp1666
(I1
(I1
tp1667
g23
I00
S'\xe7*@='
p1668
tp1669
bag14
(g15
(I0
tp1670
g17
tp1671
Rp1672
(I1
(I1
tp1673
g23
I00
S'\xaaj;='
p1674
tp1675
bag14
(g15
(I0
tp1676
g17
tp1677
Rp1678
(I1
(I1
tp1679
g23
I00
S'\tVV='
p1680
tp1681
bag14
(g15
(I0
tp1682
g17
tp1683
Rp1684
(I1
(I1
tp1685
g23
I00
S'\x18\xb96='
p1686
tp1687
bag14
(g15
(I0
tp1688
g17
tp1689
Rp1690
(I1
(I1
tp1691
g23
I00
S'\xea\x1c\x11='
p1692
tp1693
bag14
(g15
(I0
tp1694
g17
tp1695
Rp1696
(I1
(I1
tp1697
g23
I00
S'I/!='
p1698
tp1699
bag14
(g15
(I0
tp1700
g17
tp1701
Rp1702
(I1
(I1
tp1703
g23
I00
S'\x98\x04\x0f='
p1704
tp1705
bag14
(g15
(I0
tp1706
g17
tp1707
Rp1708
(I1
(I1
tp1709
g23
I00
S'q\xfb\x04='
p1710
tp1711
bag14
(g15
(I0
tp1712
g17
tp1713
Rp1714
(I1
(I1
tp1715
g23
I00
S'K\xce@='
p1716
tp1717
bag14
(g15
(I0
tp1718
g17
tp1719
Rp1720
(I1
(I1
tp1721
g23
I00
S'+\xc1\x19='
p1722
tp1723
bag14
(g15
(I0
tp1724
g17
tp1725
Rp1726
(I1
(I1
tp1727
g23
I00
S'K\xf4?='
p1728
tp1729
bag14
(g15
(I0
tp1730
g17
tp1731
Rp1732
(I1
(I1
tp1733
g23
I00
S'\xbf\xc5\x85='
p1734
tp1735
bag14
(g15
(I0
tp1736
g17
tp1737
Rp1738
(I1
(I1
tp1739
g23
I00
S'-\xee\x10='
p1740
tp1741
bag14
(g15
(I0
tp1742
g17
tp1743
Rp1744
(I1
(I1
tp1745
g23
I00
S'\x96\xee1='
p1746
tp1747
bag14
(g15
(I0
tp1748
g17
tp1749
Rp1750
(I1
(I1
tp1751
g23
I00
S'\xb3\xaa\x1e='
p1752
tp1753
bag14
(g15
(I0
tp1754
g17
tp1755
Rp1756
(I1
(I1
tp1757
g23
I00
S'\xec\x97\x97='
p1758
tp1759
bag14
(g15
(I0
tp1760
g17
tp1761
Rp1762
(I1
(I1
tp1763
g23
I00
S";\xb7'="
p1764
tp1765
baa(lp1766
g14
(g15
(I0
tp1767
g17
tp1768
Rp1769
(I1
(I1
tp1770
g23
I00
S'\xd9\x82\x86<'
p1771
tp1772
bag14
(g15
(I0
tp1773
g17
tp1774
Rp1775
(I1
(I1
tp1776
g23
I00
S'\xb4\x7fs='
p1777
tp1778
bag14
(g15
(I0
tp1779
g17
tp1780
Rp1781
(I1
(I1
tp1782
g23
I00
S'c\xa9|='
p1783
tp1784
bag14
(g15
(I0
tp1785
g17
tp1786
Rp1787
(I1
(I1
tp1788
g23
I00
S'u\xc4\xa2='
p1789
tp1790
bag14
(g15
(I0
tp1791
g17
tp1792
Rp1793
(I1
(I1
tp1794
g23
I00
S' \xd3\x13='
p1795
tp1796
bag14
(g15
(I0
tp1797
g17
tp1798
Rp1799
(I1
(I1
tp1800
g23
I00
S'\x02\xd2.='
p1801
tp1802
bag14
(g15
(I0
tp1803
g17
tp1804
Rp1805
(I1
(I1
tp1806
g23
I00
S'\xd7\xe95='
p1807
tp1808
bag14
(g15
(I0
tp1809
g17
tp1810
Rp1811
(I1
(I1
tp1812
g23
I00
S'\xd4\xd5j='
p1813
tp1814
bag14
(g15
(I0
tp1815
g17
tp1816
Rp1817
(I1
(I1
tp1818
g23
I00
S'\x86\x7f/='
p1819
tp1820
bag14
(g15
(I0
tp1821
g17
tp1822
Rp1823
(I1
(I1
tp1824
g23
I00
S'\x02\x88\xd3<'
p1825
tp1826
bag14
(g15
(I0
tp1827
g17
tp1828
Rp1829
(I1
(I1
tp1830
g23
I00
S'\n\xad\x08='
p1831
tp1832
bag14
(g15
(I0
tp1833
g17
tp1834
Rp1835
(I1
(I1
tp1836
g23
I00
S'\x01\x1a\xe5<'
p1837
tp1838
bag14
(g15
(I0
tp1839
g17
tp1840
Rp1841
(I1
(I1
tp1842
g23
I00
S'r\x14\xc3<'
p1843
tp1844
bag14
(g15
(I0
tp1845
g17
tp1846
Rp1847
(I1
(I1
tp1848
g23
I00
S'\xa0!*='
p1849
tp1850
bag14
(g15
(I0
tp1851
g17
tp1852
Rp1853
(I1
(I1
tp1854
g23
I00
S'\xf1\x14\xe9<'
p1855
tp1856
bag14
(g15
(I0
tp1857
g17
tp1858
Rp1859
(I1
(I1
tp1860
g23
I00
S'0\xb3A='
p1861
tp1862
bag14
(g15
(I0
tp1863
g17
tp1864
Rp1865
(I1
(I1
tp1866
g23
I00
S'\x9c\xff\xb0='
p1867
tp1868
bag14
(g15
(I0
tp1869
g17
tp1870
Rp1871
(I1
(I1
tp1872
g23
I00
S'=a\xe5<'
p1873
tp1874
bag14
(g15
(I0
tp1875
g17
tp1876
Rp1877
(I1
(I1
tp1878
g23
I00
S'2I!='
p1879
tp1880
bag14
(g15
(I0
tp1881
g17
tp1882
Rp1883
(I1
(I1
tp1884
g23
I00
S'\xcf6\x07='
p1885
tp1886
bag14
(g15
(I0
tp1887
g17
tp1888
Rp1889
(I1
(I1
tp1890
g23
I00
S'3.\xe0='
p1891
tp1892
bag14
(g15
(I0
tp1893
g17
tp1894
Rp1895
(I1
(I1
tp1896
g23
I00
S'{\xb4\x0f='
p1897
tp1898
baa(lp1899
g14
(g15
(I0
tp1900
g17
tp1901
Rp1902
(I1
(I1
tp1903
g23
I00
S'^\xd3\x10<'
p1904
tp1905
bag14
(g15
(I0
tp1906
g17
tp1907
Rp1908
(I1
(I1
tp1909
g23
I00
S'\xa53\xbc='
p1910
tp1911
bag14
(g15
(I0
tp1912
g17
tp1913
Rp1914
(I1
(I1
tp1915
g23
I00
S'\x05m\x0b>'
p1916
tp1917
bag14
(g15
(I0
tp1918
g17
tp1919
Rp1920
(I1
(I1
tp1921
g23
I00
S'\xc1\xf1\xa6='
p1922
tp1923
bag14
(g15
(I0
tp1924
g17
tp1925
Rp1926
(I1
(I1
tp1927
g23
I00
S'\x9eO\x11='
p1928
tp1929
bag14
(g15
(I0
tp1930
g17
tp1931
Rp1932
(I1
(I1
tp1933
g23
I00
S'\xc3\xe6\x05='
p1934
tp1935
bag14
(g15
(I0
tp1936
g17
tp1937
Rp1938
(I1
(I1
tp1939
g23
I00
S'\xa5j\xc7<'
p1940
tp1941
bag14
(g15
(I0
tp1942
g17
tp1943
Rp1944
(I1
(I1
tp1945
g23
I00
S'd\xac/='
p1946
tp1947
bag14
(g15
(I0
tp1948
g17
tp1949
Rp1950
(I1
(I1
tp1951
g23
I00
S'\xf7fH='
p1952
tp1953
bag14
(g15
(I0
tp1954
g17
tp1955
Rp1956
(I1
(I1
tp1957
g23
I00
S'\xf19r<'
p1958
tp1959
bag14
(g15
(I0
tp1960
g17
tp1961
Rp1962
(I1
(I1
tp1963
g23
I00
S'\x19\xa9\xb1<'
p1964
tp1965
bag14
(g15
(I0
tp1966
g17
tp1967
Rp1968
(I1
(I1
tp1969
g23
I00
S'\xd16V<'
p1970
tp1971
bag14
(g15
(I0
tp1972
g17
tp1973
Rp1974
(I1
(I1
tp1975
g23
I00
S'[\xf4\xdc<'
p1976
tp1977
bag14
(g15
(I0
tp1978
g17
tp1979
Rp1980
(I1
(I1
tp1981
g23
I00
S'\xaa\x1a\xc8<'
p1982
tp1983
bag14
(g15
(I0
tp1984
g17
tp1985
Rp1986
(I1
(I1
tp1987
g23
I00
S'\x95\xb4{<'
p1988
tp1989
bag14
(g15
(I0
tp1990
g17
tp1991
Rp1992
(I1
(I1
tp1993
g23
I00
S'\xf0\xbdY='
p1994
tp1995
bag14
(g15
(I0
tp1996
g17
tp1997
Rp1998
(I1
(I1
tp1999
g23
I00
S'\xa8\xc4\xad='
p2000
tp2001
bag14
(g15
(I0
tp2002
g17
tp2003
Rp2004
(I1
(I1
tp2005
g23
I00
S'\xf4\xaf\xd1<'
p2006
tp2007
bag14
(g15
(I0
tp2008
g17
tp2009
Rp2010
(I1
(I1
tp2011
g23
I00
S'\x04\x9c\xd6<'
p2012
tp2013
bag14
(g15
(I0
tp2014
g17
tp2015
Rp2016
(I1
(I1
tp2017
g23
I00
S'y\x06"='
p2018
tp2019
bag14
(g15
(I0
tp2020
g17
tp2021
Rp2022
(I1
(I1
tp2023
g23
I00
S'\xa1\x8a\xf5='
p2024
tp2025
bag14
(g15
(I0
tp2026
g17
tp2027
Rp2028
(I1
(I1
tp2029
g23
I00
S'\xe6\xde\x01='
p2030
tp2031
baasg2
(g6
S'\x05\x00\x00\x00\x00\x00\x00\x00'
p2032
tp2033
Rp2034
(lp2035
(lp2036
g14
(g15
(I0
tp2037
g17
tp2038
Rp2039
(I1
(I1
tp2040
g23
I00
S'\xf8}\x91<'
p2041
tp2042
bag14
(g15
(I0
tp2043
g17
tp2044
Rp2045
(I1
(I1
tp2046
g23
I00
S'\x81\x19:>'
p2047
tp2048
bag14
(g15
(I0
tp2049
g17
tp2050
Rp2051
(I1
(I1
tp2052
g23
I00
S'\x10yf='
p2053
tp2054
bag14
(g15
(I0
tp2055
g17
tp2056
Rp2057
(I1
(I1
tp2058
g23
I00
S'\x1b\x13\x13='
p2059
tp2060
bag14
(g15
(I0
tp2061
g17
tp2062
Rp2063
(I1
(I1
tp2064
g23
I00
S'\xfaL\xef<'
p2065
tp2066
bag14
(g15
(I0
tp2067
g17
tp2068
Rp2069
(I1
(I1
tp2070
g23
I00
S'o\x9b.='
p2071
tp2072
bag14
(g15
(I0
tp2073
g17
tp2074
Rp2075
(I1
(I1
tp2076
g23
I00
S'p)\x02='
p2077
tp2078
bag14
(g15
(I0
tp2079
g17
tp2080
Rp2081
(I1
(I1
tp2082
g23
I00
S'1z\x06='
p2083
tp2084
bag14
(g15
(I0
tp2085
g17
tp2086
Rp2087
(I1
(I1
tp2088
g23
I00
S':\xf3\x8c='
p2089
tp2090
bag14
(g15
(I0
tp2091
g17
tp2092
Rp2093
(I1
(I1
tp2094
g23
I00
S'\xb1n\x19='
p2095
tp2096
bag14
(g15
(I0
tp2097
g17
tp2098
Rp2099
(I1
(I1
tp2100
g23
I00
S'\\\x97\xe2<'
p2101
tp2102
bag14
(g15
(I0
tp2103
g17
tp2104
Rp2105
(I1
(I1
tp2106
g23
I00
S'V7\xc2<'
p2107
tp2108
bag14
(g15
(I0
tp2109
g17
tp2110
Rp2111
(I1
(I1
tp2112
g23
I00
S'\x06\xe1V='
p2113
tp2114
bag14
(g15
(I0
tp2115
g17
tp2116
Rp2117
(I1
(I1
tp2118
g23
I00
S'\x98\xd7S='
p2119
tp2120
bag14
(g15
(I0
tp2121
g17
tp2122
Rp2123
(I1
(I1
tp2124
g23
I00
S'E\x7f\x08='
p2125
tp2126
bag14
(g15
(I0
tp2127
g17
tp2128
Rp2129
(I1
(I1
tp2130
g23
I00
S'\xbc\x8eq='
p2131
tp2132
bag14
(g15
(I0
tp2133
g17
tp2134
Rp2135
(I1
(I1
tp2136
g23
I00
S'\xc8oB='
p2137
tp2138
bag14
(g15
(I0
tp2139
g17
tp2140
Rp2141
(I1
(I1
tp2142
g23
I00
S'a\xd9\xec<'
p2143
tp2144
bag14
(g15
(I0
tp2145
g17
tp2146
Rp2147
(I1
(I1
tp2148
g23
I00
S'\xb9\x1c\x17='
p2149
tp2150
bag14
(g15
(I0
tp2151
g17
tp2152
Rp2153
(I1
(I1
tp2154
g23
I00
S'\xf2R\x07='
p2155
tp2156
bag14
(g15
(I0
tp2157
g17
tp2158
Rp2159
(I1
(I1
tp2160
g23
I00
S'$\xb7\x13='
p2161
tp2162
bag14
(g15
(I0
tp2163
g17
tp2164
Rp2165
(I1
(I1
tp2166
g23
I00
S'\xe5\xe2\x10='
p2167
tp2168
baa(lp2169
g14
(g15
(I0
tp2170
g17
tp2171
Rp2172
(I1
(I1
tp2173
g23
I00
S'\xcc\xf6\xb0;'
p2174
tp2175
bag14
(g15
(I0
tp2176
g17
tp2177
Rp2178
(I1
(I1
tp2179
g23
I00
S'p\xc2\xf1>'
p2180
tp2181
bag14
(g15
(I0
tp2182
g17
tp2183
Rp2184
(I1
(I1
tp2185
g23
I00
S'\x7f\x17>='
p2186
tp2187
bag14
(g15
(I0
tp2188
g17
tp2189
Rp2190
(I1
(I1
tp2191
g23
I00
S'~-\xa4<'
p2192
tp2193
bag14
(g15
(I0
tp2194
g17
tp2195
Rp2196
(I1
(I1
tp2197
g23
I00
S'\xe36c<'
p2198
tp2199
bag14
(g15
(I0
tp2200
g17
tp2201
Rp2202
(I1
(I1
tp2203
g23
I00
S'k\x9e\xdd<'
p2204
tp2205
bag14
(g15
(I0
tp2206
g17
tp2207
Rp2208
(I1
(I1
tp2209
g23
I00
S'ok\x86<'
p2210
tp2211
bag14
(g15
(I0
tp2212
g17
tp2213
Rp2214
(I1
(I1
tp2215
g23
I00
S']\xb9\x8f<'
p2216
tp2217
bag14
(g15
(I0
tp2218
g17
tp2219
Rp2220
(I1
(I1
tp2221
g23
I00
S'??\x8f='
p2222
tp2223
bag14
(g15
(I0
tp2224
g17
tp2225
Rp2226
(I1
(I1
tp2227
g23
I00
S'\xc3\xe6\x90<'
p2228
tp2229
bag14
(g15
(I0
tp2230
g17
tp2231
Rp2232
(I1
(I1
tp2233
g23
I00
S'\xc4\x08G<'
p2234
tp2235
bag14
(g15
(I0
tp2236
g17
tp2237
Rp2238
(I1
(I1
tp2239
g23
I00
S'\xdb\x96\x19<'
p2240
tp2241
bag14
(g15
(I0
tp2242
g17
tp2243
Rp2244
(I1
(I1
tp2245
g23
I00
S'H\xe5"='
p2246
tp2247
bag14
(g15
(I0
tp2248
g17
tp2249
Rp2250
(I1
(I1
tp2251
g23
I00
S'\xb9\xff\x1f='
p2252
tp2253
bag14
(g15
(I0
tp2254
g17
tp2255
Rp2256
(I1
(I1
tp2257
g23
I00
S'\x06\x88\x87<'
p2258
tp2259
bag14
(g15
(I0
tp2260
g17
tp2261
Rp2262
(I1
(I1
tp2263
g23
I00
S'\xea)P='
p2264
tp2265
bag14
(g15
(I0
tp2266
g17
tp2267
Rp2268
(I1
(I1
tp2269
g23
I00
S'\x84\x12\x0e='
p2270
tp2271
bag14
(g15
(I0
tp2272
g17
tp2273
Rp2274
(I1
(I1
tp2275
g23
I00
S'\xa4\xeeZ<'
p2276
tp2277
bag14
(g15
(I0
tp2278
g17
tp2279
Rp2280
(I1
(I1
tp2281
g23
I00
S'\xb8\xf8\xa0<'
p2282
tp2283
bag14
(g15
(I0
tp2284
g17
tp2285
Rp2286
(I1
(I1
tp2287
g23
I00
S'\x12\x0e\x91<'
p2288
tp2289
bag14
(g15
(I0
tp2290
g17
tp2291
Rp2292
(I1
(I1
tp2293
g23
I00
S'-l\xa5<'
p2294
tp2295
bag14
(g15
(I0
tp2296
g17
tp2297
Rp2298
(I1
(I1
tp2299
g23
I00
S'_\xf7\xa4<'
p2300
tp2301
baa(lp2302
g14
(g15
(I0
tp2303
g17
tp2304
Rp2305
(I1
(I1
tp2306
g23
I00
S'\xbb\xf1*;'
p2307
tp2308
bag14
(g15
(I0
tp2309
g17
tp2310
Rp2311
(I1
(I1
tp2312
g23
I00
S'=\x00\x07?'
p2313
tp2314
bag14
(g15
(I0
tp2315
g17
tp2316
Rp2317
(I1
(I1
tp2318
g23
I00
S'\xe9.\xb6='
p2319
tp2320
bag14
(g15
(I0
tp2321
g17
tp2322
Rp2323
(I1
(I1
tp2324
g23
I00
S'\x8ac\xb1<'
p2325
tp2326
bag14
(g15
(I0
tp2327
g17
tp2328
Rp2329
(I1
(I1
tp2330
g23
I00
S'\x91jS<'
p2331
tp2332
bag14
(g15
(I0
tp2333
g17
tp2334
Rp2335
(I1
(I1
tp2336
g23
I00
S'7\xdf\xa3<'
p2337
tp2338
bag14
(g15
(I0
tp2339
g17
tp2340
Rp2341
(I1
(I1
tp2342
g23
I00
S'\x80#\x0f<'
p2343
tp2344
bag14
(g15
(I0
tp2345
g17
tp2346
Rp2347
(I1
(I1
tp2348
g23
I00
S'-qZ<'
p2349
tp2350
bag14
(g15
(I0
tp2351
g17
tp2352
Rp2353
(I1
(I1
tp2354
g23
I00
S'8\xc5\x80='
p2355
tp2356
bag14
(g15
(I0
tp2357
g17
tp2358
Rp2359
(I1
(I1
tp2360
g23
I00
S'\n&\xe1;'
p2361
tp2362
bag14
(g15
(I0
tp2363
g17
tp2364
Rp2365
(I1
(I1
tp2366
g23
I00
S'\x81\x17\xf2;'
p2367
tp2368
bag14
(g15
(I0
tp2369
g17
tp2370
Rp2371
(I1
(I1
tp2372
g23
I00
S'\xef:\x84;'
p2373
tp2374
bag14
(g15
(I0
tp2375
g17
tp2376
Rp2377
(I1
(I1
tp2378
g23
I00
S'\xc2+\x01='
p2379
tp2380
bag14
(g15
(I0
tp2381
g17
tp2382
Rp2383
(I1
(I1
tp2384
g23
I00
S'\x824\xc3<'
p2385
tp2386
bag14
(g15
(I0
tp2387
g17
tp2388
Rp2389
(I1
(I1
tp2390
g23
I00
S'\x85\x08\x06<'
p2391
tp2392
bag14
(g15
(I0
tp2393
g17
tp2394
Rp2395
(I1
(I1
tp2396
g23
I00
S'\xcf5;='
p2397
tp2398
bag14
(g15
(I0
tp2399
g17
tp2400
Rp2401
(I1
(I1
tp2402
g23
I00
S'\xa1\x88\x02='
p2403
tp2404
bag14
(g15
(I0
tp2405
g17
tp2406
Rp2407
(I1
(I1
tp2408
g23
I00
S'!\x05/<'
p2409
tp2410
bag14
(g15
(I0
tp2411
g17
tp2412
Rp2413
(I1
(I1
tp2414
g23
I00
S'\xe4\x1c4<'
p2415
tp2416
bag14
(g15
(I0
tp2417
g17
tp2418
Rp2419
(I1
(I1
tp2420
g23
I00
S'\x04d\xa6<'
p2421
tp2422
bag14
(g15
(I0
tp2423
g17
tp2424
Rp2425
(I1
(I1
tp2426
g23
I00
S'\xd7\x15\xb6<'
p2427
tp2428
bag14
(g15
(I0
tp2429
g17
tp2430
Rp2431
(I1
(I1
tp2432
g23
I00
S'\xf6\x10\x93<'
p2433
tp2434
baasg2
(g6
S'\x06\x00\x00\x00\x00\x00\x00\x00'
p2435
tp2436
Rp2437
(lp2438
(lp2439
g14
(g15
(I0
tp2440
g17
tp2441
Rp2442
(I1
(I1
tp2443
g23
I00
S'\xd5\xeb\x03='
p2444
tp2445
bag14
(g15
(I0
tp2446
g17
tp2447
Rp2448
(I1
(I1
tp2449
g23
I00
S'\x13\x87a='
p2450
tp2451
bag14
(g15
(I0
tp2452
g17
tp2453
Rp2454
(I1
(I1
tp2455
g23
I00
S'-\xdb*='
p2456
tp2457
bag14
(g15
(I0
tp2458
g17
tp2459
Rp2460
(I1
(I1
tp2461
g23
I00
S'1-C='
p2462
tp2463
bag14
(g15
(I0
tp2464
g17
tp2465
Rp2466
(I1
(I1
tp2467
g23
I00
S'd\xb2%='
p2468
tp2469
bag14
(g15
(I0
tp2470
g17
tp2471
Rp2472
(I1
(I1
tp2473
g23
I00
S'l\xd9q='
p2474
tp2475
bag14
(g15
(I0
tp2476
g17
tp2477
Rp2478
(I1
(I1
tp2479
g23
I00
S'\xf8G\x13='
p2480
tp2481
bag14
(g15
(I0
tp2482
g17
tp2483
Rp2484
(I1
(I1
tp2485
g23
I00
S'\xb1\x027='
p2486
tp2487
bag14
(g15
(I0
tp2488
g17
tp2489
Rp2490
(I1
(I1
tp2491
g23
I00
S'\xf0\xdfZ='
p2492
tp2493
bag14
(g15
(I0
tp2494
g17
tp2495
Rp2496
(I1
(I1
tp2497
g23
I00
S'>#W='
p2498
tp2499
bag14
(g15
(I0
tp2500
g17
tp2501
Rp2502
(I1
(I1
tp2503
g23
I00
S'\x84\xa7I='
p2504
tp2505
bag14
(g15
(I0
tp2506
g17
tp2507
Rp2508
(I1
(I1
tp2509
g23
I00
S'v}\x19='
p2510
tp2511
bag14
(g15
(I0
tp2512
g17
tp2513
Rp2514
(I1
(I1
tp2515
g23
I00
S'\x92\x9b\xff<'
p2516
tp2517
bag14
(g15
(I0
tp2518
g17
tp2519
Rp2520
(I1
(I1
tp2521
g23
I00
S'l\xcc\x86='
p2522
tp2523
bag14
(g15
(I0
tp2524
g17
tp2525
Rp2526
(I1
(I1
tp2527
g23
I00
S'\x11\xdaC='
p2528
tp2529
bag14
(g15
(I0
tp2530
g17
tp2531
Rp2532
(I1
(I1
tp2533
g23
I00
S'n L='
p2534
tp2535
bag14
(g15
(I0
tp2536
g17
tp2537
Rp2538
(I1
(I1
tp2539
g23
I00
S'\xa3d,='
p2540
tp2541
bag14
(g15
(I0
tp2542
g17
tp2543
Rp2544
(I1
(I1
tp2545
g23
I00
S'7\x8f1='
p2546
tp2547
bag14
(g15
(I0
tp2548
g17
tp2549
Rp2550
(I1
(I1
tp2551
g23
I00
S'\xc1Ha='
p2552
tp2553
bag14
(g15
(I0
tp2554
g17
tp2555
Rp2556
(I1
(I1
tp2557
g23
I00
S"\xa5\xa5'="
p2558
tp2559
bag14
(g15
(I0
tp2560
g17
tp2561
Rp2562
(I1
(I1
tp2563
g23
I00
S'\xb5\x020='
p2564
tp2565
bag14
(g15
(I0
tp2566
g17
tp2567
Rp2568
(I1
(I1
tp2569
g23
I00
S'\x06@\x01='
p2570
tp2571
baa(lp2572
g14
(g15
(I0
tp2573
g17
tp2574
Rp2575
(I1
(I1
tp2576
g23
I00
S'\x924\xc9<'
p2577
tp2578
bag14
(g15
(I0
tp2579
g17
tp2580
Rp2581
(I1
(I1
tp2582
g23
I00
S'\x03\x08\x81='
p2583
tp2584
bag14
(g15
(I0
tp2585
g17
tp2586
Rp2587
(I1
(I1
tp2588
g23
I00
S'\xdf5\x1a='
p2589
tp2590
bag14
(g15
(I0
tp2591
g17
tp2592
Rp2593
(I1
(I1
tp2594
g23
I00
S'P\xb3=='
p2595
tp2596
bag14
(g15
(I0
tp2597
g17
tp2598
Rp2599
(I1
(I1
tp2600
g23
I00
S'\xb8\x93\r='
p2601
tp2602
bag14
(g15
(I0
tp2603
g17
tp2604
Rp2605
(I1
(I1
tp2606
g23
I00
S'\x93\xa3\x8f='
p2607
tp2608
bag14
(g15
(I0
tp2609
g17
tp2610
Rp2611
(I1
(I1
tp2612
g23
I00
S'\t\xd2\xe4<'
p2613
tp2614
bag14
(g15
(I0
tp2615
g17
tp2616
Rp2617
(I1
(I1
tp2618
g23
I00
S'\xf4./='
p2619
tp2620
bag14
(g15
(I0
tp2621
g17
tp2622
Rp2623
(I1
(I1
tp2624
g23
I00
S'\xbcWr='
p2625
tp2626
bag14
(g15
(I0
tp2627
g17
tp2628
Rp2629
(I1
(I1
tp2630
g23
I00
S'Qdd='
p2631
tp2632
bag14
(g15
(I0
tp2633
g17
tp2634
Rp2635
(I1
(I1
tp2636
g23
I00
S'\xbf\x88U='
p2637
tp2638
bag14
(g15
(I0
tp2639
g17
tp2640
Rp2641
(I1
(I1
tp2642
g23
I00
S'\x11\x9a\xfb<'
p2643
tp2644
bag14
(g15
(I0
tp2645
g17
tp2646
Rp2647
(I1
(I1
tp2648
g23
I00
S'\x06\xe0\xa7<'
p2649
tp2650
bag14
(g15
(I0
tp2651
g17
tp2652
Rp2653
(I1
(I1
tp2654
g23
I00
S'[Q\xc3='
p2655
tp2656
bag14
(g15
(I0
tp2657
g17
tp2658
Rp2659
(I1
(I1
tp2660
g23
I00
S')J>='
p2661
tp2662
bag14
(g15
(I0
tp2663
g17
tp2664
Rp2665
(I1
(I1
tp2666
g23
I00
S'\x86\x05U='
p2667
tp2668
bag14
(g15
(I0
tp2669
g17
tp2670
Rp2671
(I1
(I1
tp2672
g23
I00
S'bO\x12='
p2673
tp2674
bag14
(g15
(I0
tp2675
g17
tp2676
Rp2677
(I1
(I1
tp2678
g23
I00
S'\xcf\x93$='
p2679
tp2680
bag14
(g15
(I0
tp2681
g17
tp2682
Rp2683
(I1
(I1
tp2684
g23
I00
S'T\xf4\x85='
p2685
tp2686
bag14
(g15
(I0
tp2687
g17
tp2688
Rp2689
(I1
(I1
tp2690
g23
I00
S'\xe6\x96\x14='
p2691
tp2692
bag14
(g15
(I0
tp2693
g17
tp2694
Rp2695
(I1
(I1
tp2696
g23
I00
S'N\x1d#='
p2697
tp2698
bag14
(g15
(I0
tp2699
g17
tp2700
Rp2701
(I1
(I1
tp2702
g23
I00
S'\xb4\n\xc1<'
p2703
tp2704
baa(lp2705
g14
(g15
(I0
tp2706
g17
tp2707
Rp2708
(I1
(I1
tp2709
g23
I00
S'\x87\xafb<'
p2710
tp2711
bag14
(g15
(I0
tp2712
g17
tp2713
Rp2714
(I1
(I1
tp2715
g23
I00
S'\x16\x0c\xd1='
p2716
tp2717
bag14
(g15
(I0
tp2718
g17
tp2719
Rp2720
(I1
(I1
tp2721
g23
I00
S'Y\xc6\xc5='
p2722
tp2723
bag14
(g15
(I0
tp2724
g17
tp2725
Rp2726
(I1
(I1
tp2727
g23
I00
S'\xb4\xb7e='
p2728
tp2729
bag14
(g15
(I0
tp2730
g17
tp2731
Rp2732
(I1
(I1
tp2733
g23
I00
S'@\xd9\n='
p2734
tp2735
bag14
(g15
(I0
tp2736
g17
tp2737
Rp2738
(I1
(I1
tp2739
g23
I00
S'sUp='
p2740
tp2741
bag14
(g15
(I0
tp2742
g17
tp2743
Rp2744
(I1
(I1
tp2745
g23
I00
S'\xeb\xb1\x88<'
p2746
tp2747
bag14
(g15
(I0
tp2748
g17
tp2749
Rp2750
(I1
(I1
tp2751
g23
I00
S'q8\x14='
p2752
tp2753
bag14
(g15
(I0
tp2754
g17
tp2755
Rp2756
(I1
(I1
tp2757
g23
I00
S'\xdd\xd8\x8a='
p2758
tp2759
bag14
(g15
(I0
tp2760
g17
tp2761
Rp2762
(I1
(I1
tp2763
g23
I00
S'\x86)\x05='
p2764
tp2765
bag14
(g15
(I0
tp2766
g17
tp2767
Rp2768
(I1
(I1
tp2769
g23
I00
S't\x90\x12='
p2770
tp2771
bag14
(g15
(I0
tp2772
g17
tp2773
Rp2774
(I1
(I1
tp2775
g23
I00
S'\x1dcn<'
p2776
tp2777
bag14
(g15
(I0
tp2778
g17
tp2779
Rp2780
(I1
(I1
tp2781
g23
I00
S'\xca\xe3\xb1<'
p2782
tp2783
bag14
(g15
(I0
tp2784
g17
tp2785
Rp2786
(I1
(I1
tp2787
g23
I00
S'\xd3_\x9d='
p2788
tp2789
bag14
(g15
(I0
tp2790
g17
tp2791
Rp2792
(I1
(I1
tp2793
g23
I00
S'K\xca\xe0<'
p2794
tp2795
bag14
(g15
(I0
tp2796
g17
tp2797
Rp2798
(I1
(I1
tp2799
g23
I00
S'\xfcOm='
p2800
tp2801
bag14
(g15
(I0
tp2802
g17
tp2803
Rp2804
(I1
(I1
tp2805
g23
I00
S'\xe8\xb0\x19='
p2806
tp2807
bag14
(g15
(I0
tp2808
g17
tp2809
Rp2810
(I1
(I1
tp2811
g23
I00
S'h(\x14='
p2812
tp2813
bag14
(g15
(I0
tp2814
g17
tp2815
Rp2816
(I1
(I1
tp2817
g23
I00
S'f\x01L='
p2818
tp2819
bag14
(g15
(I0
tp2820
g17
tp2821
Rp2822
(I1
(I1
tp2823
g23
I00
S's\xf3:='
p2824
tp2825
bag14
(g15
(I0
tp2826
g17
tp2827
Rp2828
(I1
(I1
tp2829
g23
I00
S'5Xa='
p2830
tp2831
bag14
(g15
(I0
tp2832
g17
tp2833
Rp2834
(I1
(I1
tp2835
g23
I00
S'\xe3K\xdf<'
p2836
tp2837
baasg2
(g6
S'\x07\x00\x00\x00\x00\x00\x00\x00'
p2838
tp2839
Rp2840
(lp2841
(lp2842
g14
(g15
(I0
tp2843
g17
tp2844
Rp2845
(I1
(I1
tp2846
g23
I00
S'\xf4&\x1b='
p2847
tp2848
bag14
(g15
(I0
tp2849
g17
tp2850
Rp2851
(I1
(I1
tp2852
g23
I00
S'\x0c\xa5D='
p2853
tp2854
bag14
(g15
(I0
tp2855
g17
tp2856
Rp2857
(I1
(I1
tp2858
g23
I00
S'\x89\xecs='
p2859
tp2860
bag14
(g15
(I0
tp2861
g17
tp2862
Rp2863
(I1
(I1
tp2864
g23
I00
S'ys`='
p2865
tp2866
bag14
(g15
(I0
tp2867
g17
tp2868
Rp2869
(I1
(I1
tp2870
g23
I00
S'\xf1FS='
p2871
tp2872
bag14
(g15
(I0
tp2873
g17
tp2874
Rp2875
(I1
(I1
tp2876
g23
I00
S'\xd5\xfe\xfc<'
p2877
tp2878
bag14
(g15
(I0
tp2879
g17
tp2880
Rp2881
(I1
(I1
tp2882
g23
I00
S'A\xdd\t='
p2883
tp2884
bag14
(g15
(I0
tp2885
g17
tp2886
Rp2887
(I1
(I1
tp2888
g23
I00
S'\xb7\xbc@='
p2889
tp2890
bag14
(g15
(I0
tp2891
g17
tp2892
Rp2893
(I1
(I1
tp2894
g23
I00
S'\xed\xd3N='
p2895
tp2896
bag14
(g15
(I0
tp2897
g17
tp2898
Rp2899
(I1
(I1
tp2900
g23
I00
S'\xaa\xb9\x1e='
p2901
tp2902
bag14
(g15
(I0
tp2903
g17
tp2904
Rp2905
(I1
(I1
tp2906
g23
I00
S'!r%='
p2907
tp2908
bag14
(g15
(I0
tp2909
g17
tp2910
Rp2911
(I1
(I1
tp2912
g23
I00
S'\x9fo\x18='
p2913
tp2914
bag14
(g15
(I0
tp2915
g17
tp2916
Rp2917
(I1
(I1
tp2918
g23
I00
S'\x90\xddI='
p2919
tp2920
bag14
(g15
(I0
tp2921
g17
tp2922
Rp2923
(I1
(I1
tp2924
g23
I00
S'\xf7\xf3\n='
p2925
tp2926
bag14
(g15
(I0
tp2927
g17
tp2928
Rp2929
(I1
(I1
tp2930
g23
I00
S'\x9c\xa2\x1b='
p2931
tp2932
bag14
(g15
(I0
tp2933
g17
tp2934
Rp2935
(I1
(I1
tp2936
g23
I00
S'rX\x17='
p2937
tp2938
bag14
(g15
(I0
tp2939
g17
tp2940
Rp2941
(I1
(I1
tp2942
g23
I00
S"'\xf6<="
p2943
tp2944
bag14
(g15
(I0
tp2945
g17
tp2946
Rp2947
(I1
(I1
tp2948
g23
I00
S'j\x1e>='
p2949
tp2950
bag14
(g15
(I0
tp2951
g17
tp2952
Rp2953
(I1
(I1
tp2954
g23
I00
S'V\n3='
p2955
tp2956
bag14
(g15
(I0
tp2957
g17
tp2958
Rp2959
(I1
(I1
tp2960
g23
I00
S'\x1d\x94J='
p2961
tp2962
bag14
(g15
(I0
tp2963
g17
tp2964
Rp2965
(I1
(I1
tp2966
g23
I00
S'\xc4\x8e\xb6='
p2967
tp2968
bag14
(g15
(I0
tp2969
g17
tp2970
Rp2971
(I1
(I1
tp2972
g23
I00
S'Hg\x16='
p2973
tp2974
baa(lp2975
g14
(g15
(I0
tp2976
g17
tp2977
Rp2978
(I1
(I1
tp2979
g23
I00
S'\xd6`\x01='
p2980
tp2981
bag14
(g15
(I0
tp2982
g17
tp2983
Rp2984
(I1
(I1
tp2985
g23
I00
S'\xd6X5='
p2986
tp2987
bag14
(g15
(I0
tp2988
g17
tp2989
Rp2990
(I1
(I1
tp2991
g23
I00
S'G\x8a\x8e='
p2992
tp2993
bag14
(g15
(I0
tp2994
g17
tp2995
Rp2996
(I1
(I1
tp2997
g23
I00
S'\x8c\xe7r='
p2998
tp2999
bag14
(g15
(I0
tp3000
g17
tp3001
Rp3002
(I1
(I1
tp3003
g23
I00
S'Q\xd1a='
p3004
tp3005
bag14
(g15
(I0
tp3006
g17
tp3007
Rp3008
(I1
(I1
tp3009
g23
I00
S'\xaf\xcf\xaa<'
p3010
tp3011
bag14
(g15
(I0
tp3012
g17
tp3013
Rp3014
(I1
(I1
tp3015
g23
I00
S'\x1e\x93\xd8<'
p3016
tp3017
bag14
(g15
(I0
tp3018
g17
tp3019
Rp3020
(I1
(I1
tp3021
g23
I00
S'2\xa6=='
p3022
tp3023
bag14
(g15
(I0
tp3024
g17
tp3025
Rp3026
(I1
(I1
tp3027
g23
I00
S'-3Y='
p3028
tp3029
bag14
(g15
(I0
tp3030
g17
tp3031
Rp3032
(I1
(I1
tp3033
g23
I00
S'\xde\xa0\x01='
p3034
tp3035
bag14
(g15
(I0
tp3036
g17
tp3037
Rp3038
(I1
(I1
tp3039
g23
I00
S'}\xa6\x0f='
p3040
tp3041
bag14
(g15
(I0
tp3042
g17
tp3043
Rp3044
(I1
(I1
tp3045
g23
I00
S'[\x17\x03='
p3046
tp3047
bag14
(g15
(I0
tp3048
g17
tp3049
Rp3050
(I1
(I1
tp3051
g23
I00
S'2\xa6J='
p3052
tp3053
bag14
(g15
(I0
tp3054
g17
tp3055
Rp3056
(I1
(I1
tp3057
g23
I00
S'H\xc7\xbb<'
p3058
tp3059
bag14
(g15
(I0
tp3060
g17
tp3061
Rp3062
(I1
(I1
tp3063
g23
I00
S'\x0f\x80\xf8<'
p3064
tp3065
bag14
(g15
(I0
tp3066
g17
tp3067
Rp3068
(I1
(I1
tp3069
g23
I00
S'~\xa6\xf8<'
p3070
tp3071
bag14
(g15
(I0
tp3072
g17
tp3073
Rp3074
(I1
(I1
tp3075
g23
I00
S'\x96cC='
p3076
tp3077
bag14
(g15
(I0
tp3078
g17
tp3079
Rp3080
(I1
(I1
tp3081
g23
I00
S'\xfbn<='
p3082
tp3083
bag14
(g15
(I0
tp3084
g17
tp3085
Rp3086
(I1
(I1
tp3087
g23
I00
S'\xf3\xd0"='
p3088
tp3089
bag14
(g15
(I0
tp3090
g17
tp3091
Rp3092
(I1
(I1
tp3093
g23
I00
S')\xf6Y='
p3094
tp3095
bag14
(g15
(I0
tp3096
g17
tp3097
Rp3098
(I1
(I1
tp3099
g23
I00
S'\x1d\xd7\x12>'
p3100
tp3101
bag14
(g15
(I0
tp3102
g17
tp3103
Rp3104
(I1
(I1
tp3105
g23
I00
S':|\x01='
p3106
tp3107
baa(lp3108
g14
(g15
(I0
tp3109
g17
tp3110
Rp3111
(I1
(I1
tp3112
g23
I00
S'\xdd\x1cs<'
p3113
tp3114
bag14
(g15
(I0
tp3115
g17
tp3116
Rp3117
(I1
(I1
tp3118
g23
I00
S'Q;z='
p3119
tp3120
bag14
(g15
(I0
tp3121
g17
tp3122
Rp3123
(I1
(I1
tp3124
g23
I00
S'`\x8a\x17>'
p3125
tp3126
bag14
(g15
(I0
tp3127
g17
tp3128
Rp3129
(I1
(I1
tp3130
g23
I00
S'\xbc\xb9\x84='
p3131
tp3132
bag14
(g15
(I0
tp3133
g17
tp3134
Rp3135
(I1
(I1
tp3136
g23
I00
S'\xf8mH='
p3137
tp3138
bag14
(g15
(I0
tp3139
g17
tp3140
Rp3141
(I1
(I1
tp3142
g23
I00
S'=T\x9f<'
p3143
tp3144
bag14
(g15
(I0
tp3145
g17
tp3146
Rp3147
(I1
(I1
tp3148
g23
I00
S'\xbb\xa2\x90<'
p3149
tp3150
bag14
(g15
(I0
tp3151
g17
tp3152
Rp3153
(I1
(I1
tp3154
g23
I00
S'\xd3r\x0f='
p3155
tp3156
bag14
(g15
(I0
tp3157
g17
tp3158
Rp3159
(I1
(I1
tp3160
g23
I00
S')\xbeq='
p3161
tp3162
bag14
(g15
(I0
tp3163
g17
tp3164
Rp3165
(I1
(I1
tp3166
g23
I00
S'\x06\xbc\x99<'
p3167
tp3168
bag14
(g15
(I0
tp3169
g17
tp3170
Rp3171
(I1
(I1
tp3172
g23
I00
S'LN\xbc<'
p3173
tp3174
bag14
(g15
(I0
tp3175
g17
tp3176
Rp3177
(I1
(I1
tp3178
g23
I00
S'\x8b\xc4}<'
p3179
tp3180
bag14
(g15
(I0
tp3181
g17
tp3182
Rp3183
(I1
(I1
tp3184
g23
I00
S'\x0fsF='
p3185
tp3186
bag14
(g15
(I0
tp3187
g17
tp3188
Rp3189
(I1
(I1
tp3190
g23
I00
S'\xebiz<'
p3191
tp3192
bag14
(g15
(I0
tp3193
g17
tp3194
Rp3195
(I1
(I1
tp3196
g23
I00
S'\x1bd\x92<'
p3197
tp3198
bag14
(g15
(I0
tp3199
g17
tp3200
Rp3201
(I1
(I1
tp3202
g23
I00
S'\x95C\x14='
p3203
tp3204
bag14
(g15
(I0
tp3205
g17
tp3206
Rp3207
(I1
(I1
tp3208
g23
I00
S'\x06\xfam='
p3209
tp3210
bag14
(g15
(I0
tp3211
g17
tp3212
Rp3213
(I1
(I1
tp3214
g23
I00
S'\xdd\\"='
p3215
tp3216
bag14
(g15
(I0
tp3217
g17
tp3218
Rp3219
(I1
(I1
tp3220
g23
I00
S'R\n\xd9<'
p3221
tp3222
bag14
(g15
(I0
tp3223
g17
tp3224
Rp3225
(I1
(I1
tp3226
g23
I00
S'\x8b%\x80='
p3227
tp3228
bag14
(g15
(I0
tp3229
g17
tp3230
Rp3231
(I1
(I1
tp3232
g23
I00
S'\xc4\xdc\n>'
p3233
tp3234
bag14
(g15
(I0
tp3235
g17
tp3236
Rp3237
(I1
(I1
tp3238
g23
I00
S'W2\n='
p3239
tp3240
baasg2
(g6
S'\x08\x00\x00\x00\x00\x00\x00\x00'
p3241
tp3242
Rp3243
(lp3244
(lp3245
g14
(g15
(I0
tp3246
g17
tp3247
Rp3248
(I1
(I1
tp3249
g23
I00
S'@;&='
p3250
tp3251
bag14
(g15
(I0
tp3252
g17
tp3253
Rp3254
(I1
(I1
tp3255
g23
I00
S'\x85JK='
p3256
tp3257
bag14
(g15
(I0
tp3258
g17
tp3259
Rp3260
(I1
(I1
tp3261
g23
I00
S'\xf5\xd10='
p3262
tp3263
bag14
(g15
(I0
tp3264
g17
tp3265
Rp3266
(I1
(I1
tp3267
g23
I00
S'F\xf2A='
p3268
tp3269
bag14
(g15
(I0
tp3270
g17
tp3271
Rp3272
(I1
(I1
tp3273
g23
I00
S'\x8d^>='
p3274
tp3275
bag14
(g15
(I0
tp3276
g17
tp3277
Rp3278
(I1
(I1
tp3279
g23
I00
S'\x87\xeaC='
p3280
tp3281
bag14
(g15
(I0
tp3282
g17
tp3283
Rp3284
(I1
(I1
tp3285
g23
I00
S"\xc3\xbc'="
p3286
tp3287
bag14
(g15
(I0
tp3288
g17
tp3289
Rp3290
(I1
(I1
tp3291
g23
I00
S'O7\x19='
p3292
tp3293
bag14
(g15
(I0
tp3294
g17
tp3295
Rp3296
(I1
(I1
tp3297
g23
I00
S'd\x7f4='
p3298
tp3299
bag14
(g15
(I0
tp3300
g17
tp3301
Rp3302
(I1
(I1
tp3303
g23
I00
S'\x8eCf='
p3304
tp3305
bag14
(g15
(I0
tp3306
g17
tp3307
Rp3308
(I1
(I1
tp3309
g23
I00
S'i\x11F='
p3310
tp3311
bag14
(g15
(I0
tp3312
g17
tp3313
Rp3314
(I1
(I1
tp3315
g23
I00
S'\x13T\xd5<'
p3316
tp3317
bag14
(g15
(I0
tp3318
g17
tp3319
Rp3320
(I1
(I1
tp3321
g23
I00
S'\x00/\x04='
p3322
tp3323
bag14
(g15
(I0
tp3324
g17
tp3325
Rp3326
(I1
(I1
tp3327
g23
I00
S'\xef-\xaa='
p3328
tp3329
bag14
(g15
(I0
tp3330
g17
tp3331
Rp3332
(I1
(I1
tp3333
g23
I00
S'a\xbdI='
p3334
tp3335
bag14
(g15
(I0
tp3336
g17
tp3337
Rp3338
(I1
(I1
tp3339
g23
I00
S't/\x10='
p3340
tp3341
bag14
(g15
(I0
tp3342
g17
tp3343
Rp3344
(I1
(I1
tp3345
g23
I00
S'\xda\x8a\x1e='
p3346
tp3347
bag14
(g15
(I0
tp3348
g17
tp3349
Rp3350
(I1
(I1
tp3351
g23
I00
S'"JC='
p3352
tp3353
bag14
(g15
(I0
tp3354
g17
tp3355
Rp3356
(I1
(I1
tp3357
g23
I00
S'\x0e9L='
p3358
tp3359
bag14
(g15
(I0
tp3360
g17
tp3361
Rp3362
(I1
(I1
tp3363
g23
I00
S'\\\x9c:='
p3364
tp3365
bag14
(g15
(I0
tp3366
g17
tp3367
Rp3368
(I1
(I1
tp3369
g23
I00
S'\x08\x87-='
p3370
tp3371
bag14
(g15
(I0
tp3372
g17
tp3373
Rp3374
(I1
(I1
tp3375
g23
I00
S'YQD='
p3376
tp3377
baa(lp3378
g14
(g15
(I0
tp3379
g17
tp3380
Rp3381
(I1
(I1
tp3382
g23
I00
S'Z\x0e\x17='
p3383
tp3384
bag14
(g15
(I0
tp3385
g17
tp3386
Rp3387
(I1
(I1
tp3388
g23
I00
S'\xbb\xc5G='
p3389
tp3390
bag14
(g15
(I0
tp3391
g17
tp3392
Rp3393
(I1
(I1
tp3394
g23
I00
S'\xb6#!='
p3395
tp3396
bag14
(g15
(I0
tp3397
g17
tp3398
Rp3399
(I1
(I1
tp3400
g23
I00
S'7\xe7<='
p3401
tp3402
bag14
(g15
(I0
tp3403
g17
tp3404
Rp3405
(I1
(I1
tp3406
g23
I00
S'\xff\x0f.='
p3407
tp3408
bag14
(g15
(I0
tp3409
g17
tp3410
Rp3411
(I1
(I1
tp3412
g23
I00
S'\t\x0e>='
p3413
tp3414
bag14
(g15
(I0
tp3415
g17
tp3416
Rp3417
(I1
(I1
tp3418
g23
I00
S'%\xd2\x0f='
p3419
tp3420
bag14
(g15
(I0
tp3421
g17
tp3422
Rp3423
(I1
(I1
tp3424
g23
I00
S'\xd8\x86\x04='
p3425
tp3426
bag14
(g15
(I0
tp3427
g17
tp3428
Rp3429
(I1
(I1
tp3430
g23
I00
S'\x8c\xab,='
p3431
tp3432
bag14
(g15
(I0
tp3433
g17
tp3434
Rp3435
(I1
(I1
tp3436
g23
I00
S'\xdf\xbc\x85='
p3437
tp3438
bag14
(g15
(I0
tp3439
g17
tp3440
Rp3441
(I1
(I1
tp3442
g23
I00
S'\xc7\x14P='
p3443
tp3444
bag14
(g15
(I0
tp3445
g17
tp3446
Rp3447
(I1
(I1
tp3448
g23
I00
S'V\x93~<'
p3449
tp3450
bag14
(g15
(I0
tp3451
g17
tp3452
Rp3453
(I1
(I1
tp3454
g23
I00
S'%_\xb1<'
p3455
tp3456
bag14
(g15
(I0
tp3457
g17
tp3458
Rp3459
(I1
(I1
tp3460
g23
I00
S'*\xa7\x11>'
p3461
tp3462
bag14
(g15
(I0
tp3463
g17
tp3464
Rp3465
(I1
(I1
tp3466
g23
I00
S'k\xcdO='
p3467
tp3468
bag14
(g15
(I0
tp3469
g17
tp3470
Rp3471
(I1
(I1
tp3472
g23
I00
S'g*\xe1<'
p3473
tp3474
bag14
(g15
(I0
tp3475
g17
tp3476
Rp3477
(I1
(I1
tp3478
g23
I00
S'6b\xf3<'
p3479
tp3480
bag14
(g15
(I0
tp3481
g17
tp3482
Rp3483
(I1
(I1
tp3484
g23
I00
S'v\xc2>='
p3485
tp3486
bag14
(g15
(I0
tp3487
g17
tp3488
Rp3489
(I1
(I1
tp3490
g23
I00
S'^\xfdZ='
p3491
tp3492
bag14
(g15
(I0
tp3493
g17
tp3494
Rp3495
(I1
(I1
tp3496
g23
I00
S'0I.='
p3497
tp3498
bag14
(g15
(I0
tp3499
g17
tp3500
Rp3501
(I1
(I1
tp3502
g23
I00
S'\xf0\xcc\x12='
p3503
tp3504
bag14
(g15
(I0
tp3505
g17
tp3506
Rp3507
(I1
(I1
tp3508
g23
I00
S'.\x95F='
p3509
tp3510
baa(lp3511
g14
(g15
(I0
tp3512
g17
tp3513
Rp3514
(I1
(I1
tp3515
g23
I00
S'\xf2\xa9\xa4<'
p3516
tp3517
bag14
(g15
(I0
tp3518
g17
tp3519
Rp3520
(I1
(I1
tp3521
g23
I00
S'\x18\x9d\x99='
p3522
tp3523
bag14
(g15
(I0
tp3524
g17
tp3525
Rp3526
(I1
(I1
tp3527
g23
I00
S'\xad\xc8\xd2='
p3528
tp3529
bag14
(g15
(I0
tp3530
g17
tp3531
Rp3532
(I1
(I1
tp3533
g23
I00
S'\x84Vv='
p3534
tp3535
bag14
(g15
(I0
tp3536
g17
tp3537
Rp3538
(I1
(I1
tp3539
g23
I00
S'\xd1\xdd!='
p3540
tp3541
bag14
(g15
(I0
tp3542
g17
tp3543
Rp3544
(I1
(I1
tp3545
g23
I00
S'\xb2F,='
p3546
tp3547
bag14
(g15
(I0
tp3548
g17
tp3549
Rp3550
(I1
(I1
tp3551
g23
I00
S'\xda\xb3\xac<'
p3552
tp3553
bag14
(g15
(I0
tp3554
g17
tp3555
Rp3556
(I1
(I1
tp3557
g23
I00
S'}/\x04='
p3558
tp3559
bag14
(g15
(I0
tp3560
g17
tp3561
Rp3562
(I1
(I1
tp3563
g23
I00
S'\xed\na='
p3564
tp3565
bag14
(g15
(I0
tp3566
g17
tp3567
Rp3568
(I1
(I1
tp3569
g23
I00
S'\x97\x8d/='
p3570
tp3571
bag14
(g15
(I0
tp3572
g17
tp3573
Rp3574
(I1
(I1
tp3575
g23
I00
S'^\x9c\x1a='
p3576
tp3577
bag14
(g15
(I0
tp3578
g17
tp3579
Rp3580
(I1
(I1
tp3581
g23
I00
S'\x08\xdf\n<'
p3582
tp3583
bag14
(g15
(I0
tp3584
g17
tp3585
Rp3586
(I1
(I1
tp3587
g23
I00
S'\xe1\xe6\xc3<'
p3588
tp3589
bag14
(g15
(I0
tp3590
g17
tp3591
Rp3592
(I1
(I1
tp3593
g23
I00
S'7L\xdd='
p3594
tp3595
bag14
(g15
(I0
tp3596
g17
tp3597
Rp3598
(I1
(I1
tp3599
g23
I00
S'\xe4V\x07='
p3600
tp3601
bag14
(g15
(I0
tp3602
g17
tp3603
Rp3604
(I1
(I1
tp3605
g23
I00
S'\xc2\xb8\x14='
p3606
tp3607
bag14
(g15
(I0
tp3608
g17
tp3609
Rp3610
(I1
(I1
tp3611
g23
I00
S'%!\x03='
p3612
tp3613
bag14
(g15
(I0
tp3614
g17
tp3615
Rp3616
(I1
(I1
tp3617
g23
I00
S'\xe0\x8d,='
p3618
tp3619
bag14
(g15
(I0
tp3620
g17
tp3621
Rp3622
(I1
(I1
tp3623
g23
I00
S'\x9f\x920='
p3624
tp3625
bag14
(g15
(I0
tp3626
g17
tp3627
Rp3628
(I1
(I1
tp3629
g23
I00
S'\xe4\x96O='
p3630
tp3631
bag14
(g15
(I0
tp3632
g17
tp3633
Rp3634
(I1
(I1
tp3635
g23
I00
S'\xdd\xdb8='
p3636
tp3637
bag14
(g15
(I0
tp3638
g17
tp3639
Rp3640
(I1
(I1
tp3641
g23
I00
S'b\x9eF='
p3642
tp3643
baasg2
(g6
S'\t\x00\x00\x00\x00\x00\x00\x00'
p3644
tp3645
Rp3646
(lp3647
(lp3648
g14
(g15
(I0
tp3649
g17
tp3650
Rp3651
(I1
(I1
tp3652
g23
I00
S'1\xc9\xc1<'
p3653
tp3654
bag14
(g15
(I0
tp3655
g17
tp3656
Rp3657
(I1
(I1
tp3658
g23
I00
S'\xd3)\r='
p3659
tp3660
bag14
(g15
(I0
tp3661
g17
tp3662
Rp3663
(I1
(I1
tp3664
g23
I00
S'\xe1k\xee<'
p3665
tp3666
bag14
(g15
(I0
tp3667
g17
tp3668
Rp3669
(I1
(I1
tp3670
g23
I00
S'q\x1f\xf9<'
p3671
tp3672
bag14
(g15
(I0
tp3673
g17
tp3674
Rp3675
(I1
(I1
tp3676
g23
I00
S'\x0b\xe2\x12='
p3677
tp3678
bag14
(g15
(I0
tp3679
g17
tp3680
Rp3681
(I1
(I1
tp3682
g23
I00
S'l\xcc3='
p3683
tp3684
bag14
(g15
(I0
tp3685
g17
tp3686
Rp3687
(I1
(I1
tp3688
g23
I00
S'?E\xbf<'
p3689
tp3690
bag14
(g15
(I0
tp3691
g17
tp3692
Rp3693
(I1
(I1
tp3694
g23
I00
S'9\r^='
p3695
tp3696
bag14
(g15
(I0
tp3697
g17
tp3698
Rp3699
(I1
(I1
tp3700
g23
I00
S'Y\xba\x00='
p3701
tp3702
bag14
(g15
(I0
tp3703
g17
tp3704
Rp3705
(I1
(I1
tp3706
g23
I00
S'Cy0='
p3707
tp3708
bag14
(g15
(I0
tp3709
g17
tp3710
Rp3711
(I1
(I1
tp3712
g23
I00
S'\rJ\xe8<'
p3713
tp3714
bag14
(g15
(I0
tp3715
g17
tp3716
Rp3717
(I1
(I1
tp3718
g23
I00
S'\xa41r<'
p3719
tp3720
bag14
(g15
(I0
tp3721
g17
tp3722
Rp3723
(I1
(I1
tp3724
g23
I00
S'\xfc\x18\xb3<'
p3725
tp3726
bag14
(g15
(I0
tp3727
g17
tp3728
Rp3729
(I1
(I1
tp3730
g23
I00
S'\xb5\xe6J>'
p3731
tp3732
bag14
(g15
(I0
tp3733
g17
tp3734
Rp3735
(I1
(I1
tp3736
g23
I00
S'I8\x02>'
p3737
tp3738
bag14
(g15
(I0
tp3739
g17
tp3740
Rp3741
(I1
(I1
tp3742
g23
I00
S'H]]='
p3743
tp3744
bag14
(g15
(I0
tp3745
g17
tp3746
Rp3747
(I1
(I1
tp3748
g23
I00
S'\x90\xf0\xb4<'
p3749
tp3750
bag14
(g15
(I0
tp3751
g17
tp3752
Rp3753
(I1
(I1
tp3754
g23
I00
S'\xf8"\xdb<'
p3755
tp3756
bag14
(g15
(I0
tp3757
g17
tp3758
Rp3759
(I1
(I1
tp3760
g23
I00
S'!*\x91='
p3761
tp3762
bag14
(g15
(I0
tp3763
g17
tp3764
Rp3765
(I1
(I1
tp3766
g23
I00
S'V\x83\xd4<'
p3767
tp3768
bag14
(g15
(I0
tp3769
g17
tp3770
Rp3771
(I1
(I1
tp3772
g23
I00
S'\xf9\xdb\xf9<'
p3773
tp3774
bag14
(g15
(I0
tp3775
g17
tp3776
Rp3777
(I1
(I1
tp3778
g23
I00
S'M\xea\xf5<'
p3779
tp3780
baa(lp3781
g14
(g15
(I0
tp3782
g17
tp3783
Rp3784
(I1
(I1
tp3785
g23
I00
S"'\xdf\x03<"
p3786
tp3787
bag14
(g15
(I0
tp3788
g17
tp3789
Rp3790
(I1
(I1
tp3791
g23
I00
S'\x17\xc5q<'
p3792
tp3793
bag14
(g15
(I0
tp3794
g17
tp3795
Rp3796
(I1
(I1
tp3797
g23
I00
S'\xb1\xb01<'
p3798
tp3799
bag14
(g15
(I0
tp3800
g17
tp3801
Rp3802
(I1
(I1
tp3803
g23
I00
S'\xab\x8fE<'
p3804
tp3805
bag14
(g15
(I0
tp3806
g17
tp3807
Rp3808
(I1
(I1
tp3809
g23
I00
S'G\xd1\x80<'
p3810
tp3811
bag14
(g15
(I0
tp3812
g17
tp3813
Rp3814
(I1
(I1
tp3815
g23
I00
S'\xa9S\xbe<'
p3816
tp3817
bag14
(g15
(I0
tp3818
g17
tp3819
Rp3820
(I1
(I1
tp3821
g23
I00
S'\x0b\x1f\xdf;'
p3822
tp3823
bag14
(g15
(I0
tp3824
g17
tp3825
Rp3826
(I1
(I1
tp3827
g23
I00
S'hv\x19='
p3828
tp3829
bag14
(g15
(I0
tp3830
g17
tp3831
Rp3832
(I1
(I1
tp3833
g23
I00
S'*)U<'
p3834
tp3835
bag14
(g15
(I0
tp3836
g17
tp3837
Rp3838
(I1
(I1
tp3839
g23
I00
S'\x9c\x03\xce<'
p3840
tp3841
bag14
(g15
(I0
tp3842
g17
tp3843
Rp3844
(I1
(I1
tp3845
g23
I00
S'\xd4z?<'
p3846
tp3847
bag14
(g15
(I0
tp3848
g17
tp3849
Rp3850
(I1
(I1
tp3851
g23
I00
S'\xea\xbbD;'
p3852
tp3853
bag14
(g15
(I0
tp3854
g17
tp3855
Rp3856
(I1
(I1
tp3857
g23
I00
S'\xe8\x16\xaf;'
p3858
tp3859
bag14
(g15
(I0
tp3860
g17
tp3861
Rp3862
(I1
(I1
tp3863
g23
I00
S'\xbe\xa5\xf9>'
p3864
tp3865
bag14
(g15
(I0
tp3866
g17
tp3867
Rp3868
(I1
(I1
tp3869
g23
I00
S'\xa72<>'
p3870
tp3871
bag14
(g15
(I0
tp3872
g17
tp3873
Rp3874
(I1
(I1
tp3875
g23
I00
S'\xcb\xe2\x0f='
p3876
tp3877
bag14
(g15
(I0
tp3878
g17
tp3879
Rp3880
(I1
(I1
tp3881
g23
I00
S'\x93\x08\xb4;'
p3882
tp3883
bag14
(g15
(I0
tp3884
g17
tp3885
Rp3886
(I1
(I1
tp3887
g23
I00
S'\x9d\xcd\x1c<'
p3888
tp3889
bag14
(g15
(I0
tp3890
g17
tp3891
Rp3892
(I1
(I1
tp3893
g23
I00
S'K\x81m='
p3894
tp3895
bag14
(g15
(I0
tp3896
g17
tp3897
Rp3898
(I1
(I1
tp3899
g23
I00
S'\xfd"\x0e<'
p3900
tp3901
bag14
(g15
(I0
tp3902
g17
tp3903
Rp3904
(I1
(I1
tp3905
g23
I00
S'\xednG<'
p3906
tp3907
bag14
(g15
(I0
tp3908
g17
tp3909
Rp3910
(I1
(I1
tp3911
g23
I00
S'_,L<'
p3912
tp3913
baa(lp3914
g14
(g15
(I0
tp3915
g17
tp3916
Rp3917
(I1
(I1
tp3918
g23
I00
S'*;\xd2;'
p3919
tp3920
bag14
(g15
(I0
tp3921
g17
tp3922
Rp3923
(I1
(I1
tp3924
g23
I00
S'k\xc6\x05='
p3925
tp3926
bag14
(g15
(I0
tp3927
g17
tp3928
Rp3929
(I1
(I1
tp3930
g23
I00
S'|\xf3\x1a='
p3931
tp3932
bag14
(g15
(I0
tp3933
g17
tp3934
Rp3935
(I1
(I1
tp3936
g23
I00
S'\x16\xb5\xb7<'
p3937
tp3938
bag14
(g15
(I0
tp3939
g17
tp3940
Rp3941
(I1
(I1
tp3942
g23
I00
S'\x13R\xa8<'
p3943
tp3944
bag14
(g15
(I0
tp3945
g17
tp3946
Rp3947
(I1
(I1
tp3948
g23
I00
S'.\x04\xd7<'
p3949
tp3950
bag14
(g15
(I0
tp3951
g17
tp3952
Rp3953
(I1
(I1
tp3954
g23
I00
S'X\xb4\xb1;'
p3955
tp3956
bag14
(g15
(I0
tp3957
g17
tp3958
Rp3959
(I1
(I1
tp3960
g23
I00
S'\x15\x9f*='
p3961
tp3962
bag14
(g15
(I0
tp3963
g17
tp3964
Rp3965
(I1
(I1
tp3966
g23
I00
S'\xb5\xa5\xbf<'
p3967
tp3968
bag14
(g15
(I0
tp3969
g17
tp3970
Rp3971
(I1
(I1
tp3972
g23
I00
S'ln\xcd<'
p3973
tp3974
bag14
(g15
(I0
tp3975
g17
tp3976
Rp3977
(I1
(I1
tp3978
g23
I00
S'\xdd\xd7j<'
p3979
tp3980
bag14
(g15
(I0
tp3981
g17
tp3982
Rp3983
(I1
(I1
tp3984
g23
I00
S'\xaa\xa3\r;'
p3985
tp3986
bag14
(g15
(I0
tp3987
g17
tp3988
Rp3989
(I1
(I1
tp3990
g23
I00
S'4\x15\xd5;'
p3991
tp3992
bag14
(g15
(I0
tp3993
g17
tp3994
Rp3995
(I1
(I1
tp3996
g23
I00
S'\x14\x98\xde>'
p3997
tp3998
bag14
(g15
(I0
tp3999
g17
tp4000
Rp4001
(I1
(I1
tp4002
g23
I00
S'\xe0\xbb\xf9='
p4003
tp4004
bag14
(g15
(I0
tp4005
g17
tp4006
Rp4007
(I1
(I1
tp4008
g23
I00
S'\xe6\x9aU='
p4009
tp4010
bag14
(g15
(I0
tp4011
g17
tp4012
Rp4013
(I1
(I1
tp4014
g23
I00
S'\xf4J\xe8;'
p4015
tp4016
bag14
(g15
(I0
tp4017
g17
tp4018
Rp4019
(I1
(I1
tp4020
g23
I00
S'\xa0.V<'
p4021
tp4022
bag14
(g15
(I0
tp4023
g17
tp4024
Rp4025
(I1
(I1
tp4026
g23
I00
S'\xd4\xd3K='
p4027
tp4028
bag14
(g15
(I0
tp4029
g17
tp4030
Rp4031
(I1
(I1
tp4032
g23
I00
S'a\x17t<'
p4033
tp4034
bag14
(g15
(I0
tp4035
g17
tp4036
Rp4037
(I1
(I1
tp4038
g23
I00
S'\xd3z\xb9<'
p4039
tp4040
bag14
(g15
(I0
tp4041
g17
tp4042
Rp4043
(I1
(I1
tp4044
g23
I00
S'N\xce\x9b<'
p4045
tp4046
baasg2
(g6
S'\n\x00\x00\x00\x00\x00\x00\x00'
p4047
tp4048
Rp4049
(lp4050
(lp4051
g14
(g15
(I0
tp4052
g17
tp4053
Rp4054
(I1
(I1
tp4055
g23
I00
S'\xfd\xf1\x80<'
p4056
tp4057
bag14
(g15
(I0
tp4058
g17
tp4059
Rp4060
(I1
(I1
tp4061
g23
I00
S'-\x12x>'
p4062
tp4063
bag14
(g15
(I0
tp4064
g17
tp4065
Rp4066
(I1
(I1
tp4067
g23
I00
S'W\x15H='
p4068
tp4069
bag14
(g15
(I0
tp4070
g17
tp4071
Rp4072
(I1
(I1
tp4073
g23
I00
S'\x16\xca\x16='
p4074
tp4075
bag14
(g15
(I0
tp4076
g17
tp4077
Rp4078
(I1
(I1
tp4079
g23
I00
S'\xda0\xd8<'
p4080
tp4081
bag14
(g15
(I0
tp4082
g17
tp4083
Rp4084
(I1
(I1
tp4085
g23
I00
S'k\x8c\xa9='
p4086
tp4087
bag14
(g15
(I0
tp4088
g17
tp4089
Rp4090
(I1
(I1
tp4091
g23
I00
S'*\xbf\x01='
p4092
tp4093
bag14
(g15
(I0
tp4094
g17
tp4095
Rp4096
(I1
(I1
tp4097
g23
I00
S'%[\xf9<'
p4098
tp4099
bag14
(g15
(I0
tp4100
g17
tp4101
Rp4102
(I1
(I1
tp4103
g23
I00
S'\xceWN='
p4104
tp4105
bag14
(g15
(I0
tp4106
g17
tp4107
Rp4108
(I1
(I1
tp4109
g23
I00
S'\tH\x14='
p4110
tp4111
bag14
(g15
(I0
tp4112
g17
tp4113
Rp4114
(I1
(I1
tp4115
g23
I00
S'\xaf\x7f\x03='
p4116
tp4117
bag14
(g15
(I0
tp4118
g17
tp4119
Rp4120
(I1
(I1
tp4121
g23
I00
S'C\x05\x14='
p4122
tp4123
bag14
(g15
(I0
tp4124
g17
tp4125
Rp4126
(I1
(I1
tp4127
g23
I00
S'`\x19,='
p4128
tp4129
bag14
(g15
(I0
tp4130
g17
tp4131
Rp4132
(I1
(I1
tp4133
g23
I00
S'\xd3!\x10='
p4134
tp4135
bag14
(g15
(I0
tp4136
g17
tp4137
Rp4138
(I1
(I1
tp4139
g23
I00
S'<S\xd5<'
p4140
tp4141
bag14
(g15
(I0
tp4142
g17
tp4143
Rp4144
(I1
(I1
tp4145
g23
I00
S'\xc2\xc9)='
p4146
tp4147
bag14
(g15
(I0
tp4148
g17
tp4149
Rp4150
(I1
(I1
tp4151
g23
I00
S'\xfd\x14\r='
p4152
tp4153
bag14
(g15
(I0
tp4154
g17
tp4155
Rp4156
(I1
(I1
tp4157
g23
I00
S'\x99T\xa2<'
p4158
tp4159
bag14
(g15
(I0
tp4160
g17
tp4161
Rp4162
(I1
(I1
tp4163
g23
I00
S'\x92\xdc\xc3<'
p4164
tp4165
bag14
(g15
(I0
tp4166
g17
tp4167
Rp4168
(I1
(I1
tp4169
g23
I00
S'\x93\xec\xe5<'
p4170
tp4171
bag14
(g15
(I0
tp4172
g17
tp4173
Rp4174
(I1
(I1
tp4175
g23
I00
S'\xb8\xe2\t='
p4176
tp4177
bag14
(g15
(I0
tp4178
g17
tp4179
Rp4180
(I1
(I1
tp4181
g23
I00
S'\xec\xe6:='
p4182
tp4183
baa(lp4184
g14
(g15
(I0
tp4185
g17
tp4186
Rp4187
(I1
(I1
tp4188
g23
I00
S'\xa5&S;'
p4189
tp4190
bag14
(g15
(I0
tp4191
g17
tp4192
Rp4193
(I1
(I1
tp4194
g23
I00
S'\x120#?'
p4195
tp4196
bag14
(g15
(I0
tp4197
g17
tp4198
Rp4199
(I1
(I1
tp4200
g23
I00
S'+\x1a\xe8<'
p4201
tp4202
bag14
(g15
(I0
tp4203
g17
tp4204
Rp4205
(I1
(I1
tp4206
g23
I00
S'\xc3\x11\x80<'
p4207
tp4208
bag14
(g15
(I0
tp4209
g17
tp4210
Rp4211
(I1
(I1
tp4212
g23
I00
S'X9\x1d<'
p4213
tp4214
bag14
(g15
(I0
tp4215
g17
tp4216
Rp4217
(I1
(I1
tp4218
g23
I00
S'\xa9N\x97='
p4219
tp4220
bag14
(g15
(I0
tp4221
g17
tp4222
Rp4223
(I1
(I1
tp4224
g23
I00
S'<\xccV<'
p4225
tp4226
bag14
(g15
(I0
tp4227
g17
tp4228
Rp4229
(I1
(I1
tp4230
g23
I00
S'\xae\xea<<'
p4231
tp4232
bag14
(g15
(I0
tp4233
g17
tp4234
Rp4235
(I1
(I1
tp4236
g23
I00
S'nk\xf3<'
p4237
tp4238
bag14
(g15
(I0
tp4239
g17
tp4240
Rp4241
(I1
(I1
tp4242
g23
I00
S'\x1b\x94W<'
p4243
tp4244
bag14
(g15
(I0
tp4245
g17
tp4246
Rp4247
(I1
(I1
tp4248
g23
I00
S'\x8e\x80M<'
p4249
tp4250
bag14
(g15
(I0
tp4251
g17
tp4252
Rp4253
(I1
(I1
tp4254
g23
I00
S'\xff\xa0p<'
p4255
tp4256
bag14
(g15
(I0
tp4257
g17
tp4258
Rp4259
(I1
(I1
tp4260
g23
I00
S'\x8e\x95\xa4<'
p4261
tp4262
bag14
(g15
(I0
tp4263
g17
tp4264
Rp4265
(I1
(I1
tp4266
g23
I00
S'\xf3\xa8]<'
p4267
tp4268
bag14
(g15
(I0
tp4269
g17
tp4270
Rp4271
(I1
(I1
tp4272
g23
I00
S'2\xf6\t<'
p4273
tp4274
bag14
(g15
(I0
tp4275
g17
tp4276
Rp4277
(I1
(I1
tp4278
g23
I00
S'\xef\xf3\xb5<'
p4279
tp4280
bag14
(g15
(I0
tp4281
g17
tp4282
Rp4283
(I1
(I1
tp4284
g23
I00
S'\x8a\x14^<'
p4285
tp4286
bag14
(g15
(I0
tp4287
g17
tp4288
Rp4289
(I1
(I1
tp4290
g23
I00
S'\\?\xa6;'
p4291
tp4292
bag14
(g15
(I0
tp4293
g17
tp4294
Rp4295
(I1
(I1
tp4296
g23
I00
S'\xa8\xd8\xe0;'
p4297
tp4298
bag14
(g15
(I0
tp4299
g17
tp4300
Rp4301
(I1
(I1
tp4302
g23
I00
S'\x8cH\x1a<'
p4303
tp4304
bag14
(g15
(I0
tp4305
g17
tp4306
Rp4307
(I1
(I1
tp4308
g23
I00
S'\xcf\xb5a<'
p4309
tp4310
bag14
(g15
(I0
tp4311
g17
tp4312
Rp4313
(I1
(I1
tp4314
g23
I00
S'iK\xc6<'
p4315
tp4316
baa(lp4317
g14
(g15
(I0
tp4318
g17
tp4319
Rp4320
(I1
(I1
tp4321
g23
I00
S'\x1cU\xd3:'
p4322
tp4323
bag14
(g15
(I0
tp4324
g17
tp4325
Rp4326
(I1
(I1
tp4327
g23
I00
S'\xa2\x8e,?'
p4328
tp4329
bag14
(g15
(I0
tp4330
g17
tp4331
Rp4332
(I1
(I1
tp4333
g23
I00
S'\xa2_t='
p4334
tp4335
bag14
(g15
(I0
tp4336
g17
tp4337
Rp4338
(I1
(I1
tp4339
g23
I00
S'\x06\x85\x86<'
p4340
tp4341
bag14
(g15
(I0
tp4342
g17
tp4343
Rp4344
(I1
(I1
tp4345
g23
I00
S'h\xbd.<'
p4346
tp4347
bag14
(g15
(I0
tp4348
g17
tp4349
Rp4350
(I1
(I1
tp4351
g23
I00
S'\xc4\x8fC='
p4352
tp4353
bag14
(g15
(I0
tp4354
g17
tp4355
Rp4356
(I1
(I1
tp4357
g23
I00
S'#\xbc\xf6;'
p4358
tp4359
bag14
(g15
(I0
tp4360
g17
tp4361
Rp4362
(I1
(I1
tp4363
g23
I00
S'j\xd8\x17<'
p4364
tp4365
bag14
(g15
(I0
tp4366
g17
tp4367
Rp4368
(I1
(I1
tp4369
g23
I00
S'\xa3\xca\xf0<'
p4370
tp4371
bag14
(g15
(I0
tp4372
g17
tp4373
Rp4374
(I1
(I1
tp4375
g23
I00
S'i{\xb6;'
p4376
tp4377
bag14
(g15
(I0
tp4378
g17
tp4379
Rp4380
(I1
(I1
tp4381
g23
I00
S'\xab\xad\xf7;'
p4382
tp4383
bag14
(g15
(I0
tp4384
g17
tp4385
Rp4386
(I1
(I1
tp4387
g23
I00
S'LE\xaa;'
p4388
tp4389
bag14
(g15
(I0
tp4390
g17
tp4391
Rp4392
(I1
(I1
tp4393
g23
I00
S'\xbe\x8d\x88<'
p4394
tp4395
bag14
(g15
(I0
tp4396
g17
tp4397
Rp4398
(I1
(I1
tp4399
g23
I00
S's9\x08<'
p4400
tp4401
bag14
(g15
(I0
tp4402
g17
tp4403
Rp4404
(I1
(I1
tp4405
g23
I00
S'\xe2D\xa9;'
p4406
tp4407
bag14
(g15
(I0
tp4408
g17
tp4409
Rp4410
(I1
(I1
tp4411
g23
I00
S'\xc5\xa1\xd8<'
p4412
tp4413
bag14
(g15
(I0
tp4414
g17
tp4415
Rp4416
(I1
(I1
tp4417
g23
I00
S'\xb9-O<'
p4418
tp4419
bag14
(g15
(I0
tp4420
g17
tp4421
Rp4422
(I1
(I1
tp4423
g23
I00
S'\x90\x13\x9b;'
p4424
tp4425
bag14
(g15
(I0
tp4426
g17
tp4427
Rp4428
(I1
(I1
tp4429
g23
I00
S'*J\xa0;'
p4430
tp4431
bag14
(g15
(I0
tp4432
g17
tp4433
Rp4434
(I1
(I1
tp4435
g23
I00
S'`4+<'
p4436
tp4437
bag14
(g15
(I0
tp4438
g17
tp4439
Rp4440
(I1
(I1
tp4441
g23
I00
S'u\xe7\x87<'
p4442
tp4443
bag14
(g15
(I0
tp4444
g17
tp4445
Rp4446
(I1
(I1
tp4447
g23
I00
S':%\x9f<'
p4448
tp4449
baasg2
(g6
S'\x0b\x00\x00\x00\x00\x00\x00\x00'
p4450
tp4451
Rp4452
(lp4453
(lp4454
g14
(g15
(I0
tp4455
g17
tp4456
Rp4457
(I1
(I1
tp4458
g23
I00
S'\x0e\x9c\xbe<'
p4459
tp4460
bag14
(g15
(I0
tp4461
g17
tp4462
Rp4463
(I1
(I1
tp4464
g23
I00
S'2&"='
p4465
tp4466
bag14
(g15
(I0
tp4467
g17
tp4468
Rp4469
(I1
(I1
tp4470
g23
I00
S'\xca$&='
p4471
tp4472
bag14
(g15
(I0
tp4473
g17
tp4474
Rp4475
(I1
(I1
tp4476
g23
I00
S'\xdc)J='
p4477
tp4478
bag14
(g15
(I0
tp4479
g17
tp4480
Rp4481
(I1
(I1
tp4482
g23
I00
S'\x9ft!='
p4483
tp4484
bag14
(g15
(I0
tp4485
g17
tp4486
Rp4487
(I1
(I1
tp4488
g23
I00
S'\xf1\xe3\xac<'
p4489
tp4490
bag14
(g15
(I0
tp4491
g17
tp4492
Rp4493
(I1
(I1
tp4494
g23
I00
S'\xeb\xb5\x06='
p4495
tp4496
bag14
(g15
(I0
tp4497
g17
tp4498
Rp4499
(I1
(I1
tp4500
g23
I00
S'$\xd8/='
p4501
tp4502
bag14
(g15
(I0
tp4503
g17
tp4504
Rp4505
(I1
(I1
tp4506
g23
I00
S'\x84\x84b='
p4507
tp4508
bag14
(g15
(I0
tp4509
g17
tp4510
Rp4511
(I1
(I1
tp4512
g23
I00
S'\xa1\x93\x02='
p4513
tp4514
bag14
(g15
(I0
tp4515
g17
tp4516
Rp4517
(I1
(I1
tp4518
g23
I00
S'\x86\xb9\xa5<'
p4519
tp4520
bag14
(g15
(I0
tp4521
g17
tp4522
Rp4523
(I1
(I1
tp4524
g23
I00
S'\xf56q<'
p4525
tp4526
bag14
(g15
(I0
tp4527
g17
tp4528
Rp4529
(I1
(I1
tp4530
g23
I00
S'\x89HF>'
p4531
tp4532
bag14
(g15
(I0
tp4533
g17
tp4534
Rp4535
(I1
(I1
tp4536
g23
I00
S'uE\x01='
p4537
tp4538
bag14
(g15
(I0
tp4539
g17
tp4540
Rp4541
(I1
(I1
tp4542
g23
I00
S'Aw\xbb<'
p4543
tp4544
bag14
(g15
(I0
tp4545
g17
tp4546
Rp4547
(I1
(I1
tp4548
g23
I00
S'+\\7='
p4549
tp4550
bag14
(g15
(I0
tp4551
g17
tp4552
Rp4553
(I1
(I1
tp4554
g23
I00
S'\x84\xa2\xbc='
p4555
tp4556
bag14
(g15
(I0
tp4557
g17
tp4558
Rp4559
(I1
(I1
tp4560
g23
I00
S"^\xd2'="
p4561
tp4562
bag14
(g15
(I0
tp4563
g17
tp4564
Rp4565
(I1
(I1
tp4566
g23
I00
S"{`'="
p4567
tp4568
bag14
(g15
(I0
tp4569
g17
tp4570
Rp4571
(I1
(I1
tp4572
g23
I00
S'iE\x15='
p4573
tp4574
bag14
(g15
(I0
tp4575
g17
tp4576
Rp4577
(I1
(I1
tp4578
g23
I00
S']\xa7\n='
p4579
tp4580
bag14
(g15
(I0
tp4581
g17
tp4582
Rp4583
(I1
(I1
tp4584
g23
I00
S'\xc8\xa1S='
p4585
tp4586
baa(lp4587
g14
(g15
(I0
tp4588
g17
tp4589
Rp4590
(I1
(I1
tp4591
g23
I00
S'\xd7)\x03<'
p4592
tp4593
bag14
(g15
(I0
tp4594
g17
tp4595
Rp4596
(I1
(I1
tp4597
g23
I00
S'h\x81\xad<'
p4598
tp4599
bag14
(g15
(I0
tp4600
g17
tp4601
Rp4602
(I1
(I1
tp4603
g23
I00
S'\xe2\x12\xb4<'
p4604
tp4605
bag14
(g15
(I0
tp4606
g17
tp4607
Rp4608
(I1
(I1
tp4609
g23
I00
S'6j\x04='
p4610
tp4611
bag14
(g15
(I0
tp4612
g17
tp4613
Rp4614
(I1
(I1
tp4615
g23
I00
S'i\xc1\xb2<'
p4616
tp4617
bag14
(g15
(I0
tp4618
g17
tp4619
Rp4620
(I1
(I1
tp4621
g23
I00
S'\x03\x15\xc7;'
p4622
tp4623
bag14
(g15
(I0
tp4624
g17
tp4625
Rp4626
(I1
(I1
tp4627
g23
I00
S'\xa0\xa7\x81<'
p4628
tp4629
bag14
(g15
(I0
tp4630
g17
tp4631
Rp4632
(I1
(I1
tp4633
g23
I00
S'D\xc1\xbf<'
p4634
tp4635
bag14
(g15
(I0
tp4636
g17
tp4637
Rp4638
(I1
(I1
tp4639
g23
I00
S'"x!='
p4640
tp4641
bag14
(g15
(I0
tp4642
g17
tp4643
Rp4644
(I1
(I1
tp4645
g23
I00
S'\xe4\x057<'
p4646
tp4647
bag14
(g15
(I0
tp4648
g17
tp4649
Rp4650
(I1
(I1
tp4651
g23
I00
S'\xe0\x16\xaf;'
p4652
tp4653
bag14
(g15
(I0
tp4654
g17
tp4655
Rp4656
(I1
(I1
tp4657
g23
I00
S'=\xa1\x81;'
p4658
tp4659
bag14
(g15
(I0
tp4660
g17
tp4661
Rp4662
(I1
(I1
tp4663
g23
I00
S'\xbaF\x00?'
p4664
tp4665
bag14
(g15
(I0
tp4666
g17
tp4667
Rp4668
(I1
(I1
tp4669
g23
I00
S'\xaf\x86C<'
p4670
tp4671
bag14
(g15
(I0
tp4672
g17
tp4673
Rp4674
(I1
(I1
tp4675
g23
I00
S'~\xed\xcf;'
p4676
tp4677
bag14
(g15
(I0
tp4678
g17
tp4679
Rp4680
(I1
(I1
tp4681
g23
I00
S'\xae\xc0\xd7<'
p4682
tp4683
bag14
(g15
(I0
tp4684
g17
tp4685
Rp4686
(I1
(I1
tp4687
g23
I00
S'\xc88\x07>'
p4688
tp4689
bag14
(g15
(I0
tp4690
g17
tp4691
Rp4692
(I1
(I1
tp4693
g23
I00
S'\xd0\xa9\xc7<'
p4694
tp4695
bag14
(g15
(I0
tp4696
g17
tp4697
Rp4698
(I1
(I1
tp4699
g23
I00
S'i\x9b\xa1<'
p4700
tp4701
bag14
(g15
(I0
tp4702
g17
tp4703
Rp4704
(I1
(I1
tp4705
g23
I00
S'J\xb2\xa3<'
p4706
tp4707
bag14
(g15
(I0
tp4708
g17
tp4709
Rp4710
(I1
(I1
tp4711
g23
I00
S'`\xf0T<'
p4712
tp4713
bag14
(g15
(I0
tp4714
g17
tp4715
Rp4716
(I1
(I1
tp4717
g23
I00
S'\x8d\xf2\r='
p4718
tp4719
baa(lp4720
g14
(g15
(I0
tp4721
g17
tp4722
Rp4723
(I1
(I1
tp4724
g23
I00
S'\x1d\xa0\x93;'
p4725
tp4726
bag14
(g15
(I0
tp4727
g17
tp4728
Rp4729
(I1
(I1
tp4730
g23
I00
S'\x1a\xb3\x16='
p4731
tp4732
bag14
(g15
(I0
tp4733
g17
tp4734
Rp4735
(I1
(I1
tp4736
g23
I00
S's\x8eX='
p4737
tp4738
bag14
(g15
(I0
tp4739
g17
tp4740
Rp4741
(I1
(I1
tp4742
g23
I00
S'v\x08\x1d='
p4743
tp4744
bag14
(g15
(I0
tp4745
g17
tp4746
Rp4747
(I1
(I1
tp4748
g23
I00
S'F\x00\xb0<'
p4749
tp4750
bag14
(g15
(I0
tp4751
g17
tp4752
Rp4753
(I1
(I1
tp4754
g23
I00
S'(0\xb6;'
p4755
tp4756
bag14
(g15
(I0
tp4757
g17
tp4758
Rp4759
(I1
(I1
tp4760
g23
I00
S'\x93\xd8.<'
p4761
tp4762
bag14
(g15
(I0
tp4763
g17
tp4764
Rp4765
(I1
(I1
tp4766
g23
I00
S'x\x84\x8a<'
p4767
tp4768
bag14
(g15
(I0
tp4769
g17
tp4770
Rp4771
(I1
(I1
tp4772
g23
I00
S'\xfdh-='
p4773
tp4774
bag14
(g15
(I0
tp4775
g17
tp4776
Rp4777
(I1
(I1
tp4778
g23
I00
S'M\xcb\x9c;'
p4779
tp4780
bag14
(g15
(I0
tp4781
g17
tp4782
Rp4783
(I1
(I1
tp4784
g23
I00
S'\xc1Hd;'
p4785
tp4786
bag14
(g15
(I0
tp4787
g17
tp4788
Rp4789
(I1
(I1
tp4790
g23
I00
S'\xf0\x8dO;'
p4791
tp4792
bag14
(g15
(I0
tp4793
g17
tp4794
Rp4795
(I1
(I1
tp4796
g23
I00
S'\xe4\x7f\xe2>'
p4797
tp4798
bag14
(g15
(I0
tp4799
g17
tp4800
Rp4801
(I1
(I1
tp4802
g23
I00
S'u\x9f\xf6;'
p4803
tp4804
bag14
(g15
(I0
tp4805
g17
tp4806
Rp4807
(I1
(I1
tp4808
g23
I00
S'Ll\\;'
p4809
tp4810
bag14
(g15
(I0
tp4811
g17
tp4812
Rp4813
(I1
(I1
tp4814
g23
I00
S'|<\xde<'
p4815
tp4816
bag14
(g15
(I0
tp4817
g17
tp4818
Rp4819
(I1
(I1
tp4820
g23
I00
S'\xb5B/>'
p4821
tp4822
bag14
(g15
(I0
tp4823
g17
tp4824
Rp4825
(I1
(I1
tp4826
g23
I00
S'1v\xc8<'
p4827
tp4828
bag14
(g15
(I0
tp4829
g17
tp4830
Rp4831
(I1
(I1
tp4832
g23
I00
S'\xee\x8a2<'
p4833
tp4834
bag14
(g15
(I0
tp4835
g17
tp4836
Rp4837
(I1
(I1
tp4838
g23
I00
S'\xfc\x12\xed<'
p4839
tp4840
bag14
(g15
(I0
tp4841
g17
tp4842
Rp4843
(I1
(I1
tp4844
g23
I00
S'\xa8\xb0U<'
p4845
tp4846
bag14
(g15
(I0
tp4847
g17
tp4848
Rp4849
(I1
(I1
tp4850
g23
I00
S'\xb9Z\xf7<'
p4851
tp4852
baasg2
(g6
S'\x0c\x00\x00\x00\x00\x00\x00\x00'
p4853
tp4854
Rp4855
(lp4856
(lp4857
g14
(g15
(I0
tp4858
g17
tp4859
Rp4860
(I1
(I1
tp4861
g23
I00
S'U>\xf3<'
p4862
tp4863
bag14
(g15
(I0
tp4864
g17
tp4865
Rp4866
(I1
(I1
tp4867
g23
I00
S'\\X"='
p4868
tp4869
bag14
(g15
(I0
tp4870
g17
tp4871
Rp4872
(I1
(I1
tp4873
g23
I00
S'H\xdd9='
p4874
tp4875
bag14
(g15
(I0
tp4876
g17
tp4877
Rp4878
(I1
(I1
tp4879
g23
I00
S'A\x1e6='
p4880
tp4881
bag14
(g15
(I0
tp4882
g17
tp4883
Rp4884
(I1
(I1
tp4885
g23
I00
S'\xe8\x11\x02='
p4886
tp4887
bag14
(g15
(I0
tp4888
g17
tp4889
Rp4890
(I1
(I1
tp4891
g23
I00
S'":\xc8<'
p4892
tp4893
bag14
(g15
(I0
tp4894
g17
tp4895
Rp4896
(I1
(I1
tp4897
g23
I00
S'\x80E\x15='
p4898
tp4899
bag14
(g15
(I0
tp4900
g17
tp4901
Rp4902
(I1
(I1
tp4903
g23
I00
S'\xc8\xde,='
p4904
tp4905
bag14
(g15
(I0
tp4906
g17
tp4907
Rp4908
(I1
(I1
tp4909
g23
I00
S'\x9a\x9a\xf5<'
p4910
tp4911
bag14
(g15
(I0
tp4912
g17
tp4913
Rp4914
(I1
(I1
tp4915
g23
I00
S'\xd9,\xe7<'
p4916
tp4917
bag14
(g15
(I0
tp4918
g17
tp4919
Rp4920
(I1
(I1
tp4921
g23
I00
S'\x8c\x90\xb6<'
p4922
tp4923
bag14
(g15
(I0
tp4924
g17
tp4925
Rp4926
(I1
(I1
tp4927
g23
I00
S'\x8d\x0e\xb3='
p4928
tp4929
bag14
(g15
(I0
tp4930
g17
tp4931
Rp4932
(I1
(I1
tp4933
g23
I00
S'\xac1<='
p4934
tp4935
bag14
(g15
(I0
tp4936
g17
tp4937
Rp4938
(I1
(I1
tp4939
g23
I00
S'!\xb8\xaa<'
p4940
tp4941
bag14
(g15
(I0
tp4942
g17
tp4943
Rp4944
(I1
(I1
tp4945
g23
I00
S'~\xd6\xc7<'
p4946
tp4947
bag14
(g15
(I0
tp4948
g17
tp4949
Rp4950
(I1
(I1
tp4951
g23
I00
S'\n\x16\x18='
p4952
tp4953
bag14
(g15
(I0
tp4954
g17
tp4955
Rp4956
(I1
(I1
tp4957
g23
I00
S'd[Z>'
p4958
tp4959
bag14
(g15
(I0
tp4960
g17
tp4961
Rp4962
(I1
(I1
tp4963
g23
I00
S'\x1c2^='
p4964
tp4965
bag14
(g15
(I0
tp4966
g17
tp4967
Rp4968
(I1
(I1
tp4969
g23
I00
S'\x05\xd6\xf8<'
p4970
tp4971
bag14
(g15
(I0
tp4972
g17
tp4973
Rp4974
(I1
(I1
tp4975
g23
I00
S'\xc1\xcb5='
p4976
tp4977
bag14
(g15
(I0
tp4978
g17
tp4979
Rp4980
(I1
(I1
tp4981
g23
I00
S'\xdb]\x13='
p4982
tp4983
bag14
(g15
(I0
tp4984
g17
tp4985
Rp4986
(I1
(I1
tp4987
g23
I00
S'K-\x01='
p4988
tp4989
baa(lp4990
g14
(g15
(I0
tp4991
g17
tp4992
Rp4993
(I1
(I1
tp4994
g23
I00
S'X\xf6I<'
p4995
tp4996
bag14
(g15
(I0
tp4997
g17
tp4998
Rp4999
(I1
(I1
tp5000
g23
I00
S'\x16\x86\xbb<'
p5001
tp5002
bag14
(g15
(I0
tp5003
g17
tp5004
Rp5005
(I1
(I1
tp5006
g23
I00
S'\x7f\xad\xd0<'
p5007
tp5008
bag14
(g15
(I0
tp5009
g17
tp5010
Rp5011
(I1
(I1
tp5012
g23
I00
S'\xfes\xc4<'
p5013
tp5014
bag14
(g15
(I0
tp5015
g17
tp5016
Rp5017
(I1
(I1
tp5018
g23
I00
S'\x1f\xbab<'
p5019
tp5020
bag14
(g15
(I0
tp5021
g17
tp5022
Rp5023
(I1
(I1
tp5024
g23
I00
S'\xd63\x0b<'
p5025
tp5026
bag14
(g15
(I0
tp5027
g17
tp5028
Rp5029
(I1
(I1
tp5030
g23
I00
S'ZS\x9f<'
p5031
tp5032
bag14
(g15
(I0
tp5033
g17
tp5034
Rp5035
(I1
(I1
tp5036
g23
I00
S'\xc5F\xbc<'
p5037
tp5038
bag14
(g15
(I0
tp5039
g17
tp5040
Rp5041
(I1
(I1
tp5042
g23
I00
S'%qX<'
p5043
tp5044
bag14
(g15
(I0
tp5045
g17
tp5046
Rp5047
(I1
(I1
tp5048
g23
I00
S'\xe7\xf5&<'
p5049
tp5050
bag14
(g15
(I0
tp5051
g17
tp5052
Rp5053
(I1
(I1
tp5054
g23
I00
S'=*\xe7;'
p5055
tp5056
bag14
(g15
(I0
tp5057
g17
tp5058
Rp5059
(I1
(I1
tp5060
g23
I00
S'7\xf5\xd6='
p5061
tp5062
bag14
(g15
(I0
tp5063
g17
tp5064
Rp5065
(I1
(I1
tp5066
g23
I00
S'\xde;\xee<'
p5067
tp5068
bag14
(g15
(I0
tp5069
g17
tp5070
Rp5071
(I1
(I1
tp5072
g23
I00
S'\x19\x1f\xbe;'
p5073
tp5074
bag14
(g15
(I0
tp5075
g17
tp5076
Rp5077
(I1
(I1
tp5078
g23
I00
S'\x9b\x9b\xfa;'
p5079
tp5080
bag14
(g15
(I0
tp5081
g17
tp5082
Rp5083
(I1
(I1
tp5084
g23
I00
S'M\xe4\x9a<'
p5085
tp5086
bag14
(g15
(I0
tp5087
g17
tp5088
Rp5089
(I1
(I1
tp5090
g23
I00
S'TF\x0b?'
p5091
tp5092
bag14
(g15
(I0
tp5093
g17
tp5094
Rp5095
(I1
(I1
tp5096
g23
I00
S'\xd5\x11\x1f='
p5097
tp5098
bag14
(g15
(I0
tp5099
g17
tp5100
Rp5101
(I1
(I1
tp5102
g23
I00
S'\xf7EX<'
p5103
tp5104
bag14
(g15
(I0
tp5105
g17
tp5106
Rp5107
(I1
(I1
tp5108
g23
I00
S'\xde\x88\xd6<'
p5109
tp5110
bag14
(g15
(I0
tp5111
g17
tp5112
Rp5113
(I1
(I1
tp5114
g23
I00
S'\xfa\xe0\x91<'
p5115
tp5116
bag14
(g15
(I0
tp5117
g17
tp5118
Rp5119
(I1
(I1
tp5120
g23
I00
S')__<'
p5121
tp5122
baa(lp5123
g14
(g15
(I0
tp5124
g17
tp5125
Rp5126
(I1
(I1
tp5127
g23
I00
S'\xfb]\xe0;'
p5128
tp5129
bag14
(g15
(I0
tp5130
g17
tp5131
Rp5132
(I1
(I1
tp5133
g23
I00
S'<:I='
p5134
tp5135
bag14
(g15
(I0
tp5136
g17
tp5137
Rp5138
(I1
(I1
tp5139
g23
I00
S'\x0e }='
p5140
tp5141
bag14
(g15
(I0
tp5142
g17
tp5143
Rp5144
(I1
(I1
tp5145
g23
I00
S'\x0f\xbf\xef<'
p5146
tp5147
bag14
(g15
(I0
tp5148
g17
tp5149
Rp5150
(I1
(I1
tp5151
g23
I00
S'X#\x81<'
p5152
tp5153
bag14
(g15
(I0
tp5154
g17
tp5155
Rp5156
(I1
(I1
tp5157
g23
I00
S'|X&<'
p5158
tp5159
bag14
(g15
(I0
tp5160
g17
tp5161
Rp5162
(I1
(I1
tp5163
g23
I00
S'\xd0\x9ct<'
p5164
tp5165
bag14
(g15
(I0
tp5166
g17
tp5167
Rp5168
(I1
(I1
tp5169
g23
I00
S'N\x1c\x9c<'
p5170
tp5171
bag14
(g15
(I0
tp5172
g17
tp5173
Rp5174
(I1
(I1
tp5175
g23
I00
S'\xcbP\xad<'
p5176
tp5177
bag14
(g15
(I0
tp5178
g17
tp5179
Rp5180
(I1
(I1
tp5181
g23
I00
S'*\xc7\xd5;'
p5182
tp5183
bag14
(g15
(I0
tp5184
g17
tp5185
Rp5186
(I1
(I1
tp5187
g23
I00
S'\x81\x17\xc2;'
p5188
tp5189
bag14
(g15
(I0
tp5190
g17
tp5191
Rp5192
(I1
(I1
tp5193
g23
I00
S'\x90gH='
p5194
tp5195
bag14
(g15
(I0
tp5196
g17
tp5197
Rp5198
(I1
(I1
tp5199
g23
I00
S"'\x86\x16="
p5200
tp5201
bag14
(g15
(I0
tp5202
g17
tp5203
Rp5204
(I1
(I1
tp5205
g23
I00
S'\xc61\x9d;'
p5206
tp5207
bag14
(g15
(I0
tp5208
g17
tp5209
Rp5210
(I1
(I1
tp5211
g23
I00
S'\x06\xe7\xa6;'
p5212
tp5213
bag14
(g15
(I0
tp5214
g17
tp5215
Rp5216
(I1
(I1
tp5217
g23
I00
S'\x96\x89\xca<'
p5218
tp5219
bag14
(g15
(I0
tp5220
g17
tp5221
Rp5222
(I1
(I1
tp5223
g23
I00
S'[\xdc\x03?'
p5224
tp5225
bag14
(g15
(I0
tp5226
g17
tp5227
Rp5228
(I1
(I1
tp5229
g23
I00
S'1\xca\x14='
p5230
tp5231
bag14
(g15
(I0
tp5232
g17
tp5233
Rp5234
(I1
(I1
tp5235
g23
I00
S'\x8e\xa1K<'
p5236
tp5237
bag14
(g15
(I0
tp5238
g17
tp5239
Rp5240
(I1
(I1
tp5241
g23
I00
S'J\xcc\t='
p5242
tp5243
bag14
(g15
(I0
tp5244
g17
tp5245
Rp5246
(I1
(I1
tp5247
g23
I00
S'm\xe2\xde<'
p5248
tp5249
bag14
(g15
(I0
tp5250
g17
tp5251
Rp5252
(I1
(I1
tp5253
g23
I00
S'\xab6m<'
p5254
tp5255
baasg2
(g6
S'\r\x00\x00\x00\x00\x00\x00\x00'
p5256
tp5257
Rp5258
(lp5259
(lp5260
g14
(g15
(I0
tp5261
g17
tp5262
Rp5263
(I1
(I1
tp5264
g23
I00
S'\x1b\xdc\xbd<'
p5265
tp5266
bag14
(g15
(I0
tp5267
g17
tp5268
Rp5269
(I1
(I1
tp5270
g23
I00
S'\x9b\xa1\x18='
p5271
tp5272
bag14
(g15
(I0
tp5273
g17
tp5274
Rp5275
(I1
(I1
tp5276
g23
I00
S'Vi\xc9<'
p5277
tp5278
bag14
(g15
(I0
tp5279
g17
tp5280
Rp5281
(I1
(I1
tp5282
g23
I00
S'\xe2B\xbf<'
p5283
tp5284
bag14
(g15
(I0
tp5285
g17
tp5286
Rp5287
(I1
(I1
tp5288
g23
I00
S'\x12a9='
p5289
tp5290
bag14
(g15
(I0
tp5291
g17
tp5292
Rp5293
(I1
(I1
tp5294
g23
I00
S'\xf3\n\x1a='
p5295
tp5296
bag14
(g15
(I0
tp5297
g17
tp5298
Rp5299
(I1
(I1
tp5300
g23
I00
S'+/\xea<'
p5301
tp5302
bag14
(g15
(I0
tp5303
g17
tp5304
Rp5305
(I1
(I1
tp5306
g23
I00
S'\xd4\x93\n='
p5307
tp5308
bag14
(g15
(I0
tp5309
g17
tp5310
Rp5311
(I1
(I1
tp5312
g23
I00
S'8\x1fR='
p5313
tp5314
bag14
(g15
(I0
tp5315
g17
tp5316
Rp5317
(I1
(I1
tp5318
g23
I00
S'\x01.\x7f>'
p5319
tp5320
bag14
(g15
(I0
tp5321
g17
tp5322
Rp5323
(I1
(I1
tp5324
g23
I00
S'|+?='
p5325
tp5326
bag14
(g15
(I0
tp5327
g17
tp5328
Rp5329
(I1
(I1
tp5330
g23
I00
S';w\x99<'
p5331
tp5332
bag14
(g15
(I0
tp5333
g17
tp5334
Rp5335
(I1
(I1
tp5336
g23
I00
S'\xd4"\x0e='
p5337
tp5338
bag14
(g15
(I0
tp5339
g17
tp5340
Rp5341
(I1
(I1
tp5342
g23
I00
S'\x9e\xd88='
p5343
tp5344
bag14
(g15
(I0
tp5345
g17
tp5346
Rp5347
(I1
(I1
tp5348
g23
I00
S'.\xbeu='
p5349
tp5350
bag14
(g15
(I0
tp5351
g17
tp5352
Rp5353
(I1
(I1
tp5354
g23
I00
S'?Y4='
p5355
tp5356
bag14
(g15
(I0
tp5357
g17
tp5358
Rp5359
(I1
(I1
tp5360
g23
I00
S'I\x8e\xdd<'
p5361
tp5362
bag14
(g15
(I0
tp5363
g17
tp5364
Rp5365
(I1
(I1
tp5366
g23
I00
S'\xdb=\xf5<'
p5367
tp5368
bag14
(g15
(I0
tp5369
g17
tp5370
Rp5371
(I1
(I1
tp5372
g23
I00
S'\x1c0>='
p5373
tp5374
bag14
(g15
(I0
tp5375
g17
tp5376
Rp5377
(I1
(I1
tp5378
g23
I00
S'\xe8c\xce<'
p5379
tp5380
bag14
(g15
(I0
tp5381
g17
tp5382
Rp5383
(I1
(I1
tp5384
g23
I00
S"{\xe5'="
p5385
tp5386
bag14
(g15
(I0
tp5387
g17
tp5388
Rp5389
(I1
(I1
tp5390
g23
I00
S'\xde\x07\xdd<'
p5391
tp5392
baa(lp5393
g14
(g15
(I0
tp5394
g17
tp5395
Rp5396
(I1
(I1
tp5397
g23
I00
S'K\x07\xe7;'
p5398
tp5399
bag14
(g15
(I0
tp5400
g17
tp5401
Rp5402
(I1
(I1
tp5403
g23
I00
S's\x10o<'
p5404
tp5405
bag14
(g15
(I0
tp5406
g17
tp5407
Rp5408
(I1
(I1
tp5409
g23
I00
S'\x03\xcd\xdc;'
p5410
tp5411
bag14
(g15
(I0
tp5412
g17
tp5413
Rp5414
(I1
(I1
tp5415
g23
I00
S'\x82\x06\xe1;'
p5416
tp5417
bag14
(g15
(I0
tp5418
g17
tp5419
Rp5420
(I1
(I1
tp5421
g23
I00
S'\xcd\n\xc6<'
p5422
tp5423
bag14
(g15
(I0
tp5424
g17
tp5425
Rp5426
(I1
(I1
tp5427
g23
I00
S'\xaa@\x8b<'
p5428
tp5429
bag14
(g15
(I0
tp5430
g17
tp5431
Rp5432
(I1
(I1
tp5433
g23
I00
S'\xe4N(<'
p5434
tp5435
bag14
(g15
(I0
tp5436
g17
tp5437
Rp5438
(I1
(I1
tp5439
g23
I00
S'\xc9\xfen<'
p5440
tp5441
bag14
(g15
(I0
tp5442
g17
tp5443
Rp5444
(I1
(I1
tp5445
g23
I00
S')\xc3\xec<'
p5446
tp5447
bag14
(g15
(I0
tp5448
g17
tp5449
Rp5450
(I1
(I1
tp5451
g23
I00
S'\x8a\xd2%?'
p5452
tp5453
bag14
(g15
(I0
tp5454
g17
tp5455
Rp5456
(I1
(I1
tp5457
g23
I00
S'\xac\x0b\xdf<'
p5458
tp5459
bag14
(g15
(I0
tp5460
g17
tp5461
Rp5462
(I1
(I1
tp5463
g23
I00
S'oz\x95;'
p5464
tp5465
bag14
(g15
(I0
tp5466
g17
tp5467
Rp5468
(I1
(I1
tp5469
g23
I00
S'4\xfaZ<'
p5470
tp5471
bag14
(g15
(I0
tp5472
g17
tp5473
Rp5474
(I1
(I1
tp5475
g23
I00
S'\xf1\xa4\xdc<'
p5476
tp5477
bag14
(g15
(I0
tp5478
g17
tp5479
Rp5480
(I1
(I1
tp5481
g23
I00
S'h\x9b0='
p5482
tp5483
bag14
(g15
(I0
tp5484
g17
tp5485
Rp5486
(I1
(I1
tp5487
g23
I00
S'\xdb5\xbf<'
p5488
tp5489
bag14
(g15
(I0
tp5490
g17
tp5491
Rp5492
(I1
(I1
tp5493
g23
I00
S'\xdbv\t<'
p5494
tp5495
bag14
(g15
(I0
tp5496
g17
tp5497
Rp5498
(I1
(I1
tp5499
g23
I00
S'\xdd\xf4?<'
p5500
tp5501
bag14
(g15
(I0
tp5502
g17
tp5503
Rp5504
(I1
(I1
tp5505
g23
I00
S'D\x89\xdd<'
p5506
tp5507
bag14
(g15
(I0
tp5508
g17
tp5509
Rp5510
(I1
(I1
tp5511
g23
I00
S'\x11\xb1\x01<'
p5512
tp5513
bag14
(g15
(I0
tp5514
g17
tp5515
Rp5516
(I1
(I1
tp5517
g23
I00
S'8g\x99<'
p5518
tp5519
bag14
(g15
(I0
tp5520
g17
tp5521
Rp5522
(I1
(I1
tp5523
g23
I00
S'\xba\x84\x1f<'
p5524
tp5525
baa(lp5526
g14
(g15
(I0
tp5527
g17
tp5528
Rp5529
(I1
(I1
tp5530
g23
I00
S'$\xa5\xd1;'
p5531
tp5532
bag14
(g15
(I0
tp5533
g17
tp5534
Rp5535
(I1
(I1
tp5536
g23
I00
S'\xdcq\t='
p5537
tp5538
bag14
(g15
(I0
tp5539
g17
tp5540
Rp5541
(I1
(I1
tp5542
g23
I00
S'\xf6\x96\xd1<'
p5543
tp5544
bag14
(g15
(I0
tp5545
g17
tp5546
Rp5547
(I1
(I1
tp5548
g23
I00
S'\x88\xc2\x89<'
p5549
tp5550
bag14
(g15
(I0
tp5551
g17
tp5552
Rp5553
(I1
(I1
tp5554
g23
I00
S'I\xa8\x16='
p5555
tp5556
bag14
(g15
(I0
tp5557
g17
tp5558
Rp5559
(I1
(I1
tp5560
g23
I00
S'\x97H\xcd<'
p5561
tp5562
bag14
(g15
(I0
tp5563
g17
tp5564
Rp5565
(I1
(I1
tp5566
g23
I00
S'\xfc\x81*<'
p5567
tp5568
bag14
(g15
(I0
tp5569
g17
tp5570
Rp5571
(I1
(I1
tp5572
g23
I00
S'Lm\xb6<'
p5573
tp5574
bag14
(g15
(I0
tp5575
g17
tp5576
Rp5577
(I1
(I1
tp5578
g23
I00
S'=\x97F='
p5579
tp5580
bag14
(g15
(I0
tp5581
g17
tp5582
Rp5583
(I1
(I1
tp5584
g23
I00
S'\x0b\x14\xe5>'
p5585
tp5586
bag14
(g15
(I0
tp5587
g17
tp5588
Rp5589
(I1
(I1
tp5590
g23
I00
S'\x02\xdf\x04='
p5591
tp5592
bag14
(g15
(I0
tp5593
g17
tp5594
Rp5595
(I1
(I1
tp5596
g23
I00
S'\xd9p\x80;'
p5597
tp5598
bag14
(g15
(I0
tp5599
g17
tp5600
Rp5601
(I1
(I1
tp5602
g23
I00
S'\xba\x05\xaa<'
p5603
tp5604
bag14
(g15
(I0
tp5605
g17
tp5606
Rp5607
(I1
(I1
tp5608
g23
I00
S'\xf7\x8a-='
p5609
tp5610
bag14
(g15
(I0
tp5611
g17
tp5612
Rp5613
(I1
(I1
tp5614
g23
I00
S'\xa2\x804='
p5615
tp5616
bag14
(g15
(I0
tp5617
g17
tp5618
Rp5619
(I1
(I1
tp5620
g23
I00
S'\xe7\xa17='
p5621
tp5622
bag14
(g15
(I0
tp5623
g17
tp5624
Rp5625
(I1
(I1
tp5626
g23
I00
S'H\xbeq<'
p5627
tp5628
bag14
(g15
(I0
tp5629
g17
tp5630
Rp5631
(I1
(I1
tp5632
g23
I00
S'3!\x9c<'
p5633
tp5634
bag14
(g15
(I0
tp5635
g17
tp5636
Rp5637
(I1
(I1
tp5638
g23
I00
S'\xa5\xf7\x0e='
p5639
tp5640
bag14
(g15
(I0
tp5641
g17
tp5642
Rp5643
(I1
(I1
tp5644
g23
I00
S'\xf2|\x84<'
p5645
tp5646
bag14
(g15
(I0
tp5647
g17
tp5648
Rp5649
(I1
(I1
tp5650
g23
I00
S'\x9a\x1f\x11='
p5651
tp5652
bag14
(g15
(I0
tp5653
g17
tp5654
Rp5655
(I1
(I1
tp5656
g23
I00
S'\x16\xbc\x97<'
p5657
tp5658
baasg2
(g6
S'\x0e\x00\x00\x00\x00\x00\x00\x00'
p5659
tp5660
Rp5661
(lp5662
(lp5663
g14
(g15
(I0
tp5664
g17
tp5665
Rp5666
(I1
(I1
tp5667
g23
I00
S'\x06\xcb\xfd<'
p5668
tp5669
bag14
(g15
(I0
tp5670
g17
tp5671
Rp5672
(I1
(I1
tp5673
g23
I00
S'\x18\x9f\xf2<'
p5674
tp5675
bag14
(g15
(I0
tp5676
g17
tp5677
Rp5678
(I1
(I1
tp5679
g23
I00
S'b/\xcf<'
p5680
tp5681
bag14
(g15
(I0
tp5682
g17
tp5683
Rp5684
(I1
(I1
tp5685
g23
I00
S'\xc3\xe9\x0c='
p5686
tp5687
bag14
(g15
(I0
tp5688
g17
tp5689
Rp5690
(I1
(I1
tp5691
g23
I00
S'5\xcd\x02='
p5692
tp5693
bag14
(g15
(I0
tp5694
g17
tp5695
Rp5696
(I1
(I1
tp5697
g23
I00
S'I\xc1&='
p5698
tp5699
bag14
(g15
(I0
tp5700
g17
tp5701
Rp5702
(I1
(I1
tp5703
g23
I00
S'{\x82\xc7<'
p5704
tp5705
bag14
(g15
(I0
tp5706
g17
tp5707
Rp5708
(I1
(I1
tp5709
g23
I00
S'\xcb:\x01='
p5710
tp5711
bag14
(g15
(I0
tp5712
g17
tp5713
Rp5714
(I1
(I1
tp5715
g23
I00
S'\xee\xb8F='
p5716
tp5717
bag14
(g15
(I0
tp5718
g17
tp5719
Rp5720
(I1
(I1
tp5721
g23
I00
S'\xec8\x94='
p5722
tp5723
bag14
(g15
(I0
tp5724
g17
tp5725
Rp5726
(I1
(I1
tp5727
g23
I00
S'\x82qE='
p5728
tp5729
bag14
(g15
(I0
tp5730
g17
tp5731
Rp5732
(I1
(I1
tp5733
g23
I00
S'\x07\xb5\x83<'
p5734
tp5735
bag14
(g15
(I0
tp5736
g17
tp5737
Rp5738
(I1
(I1
tp5739
g23
I00
S']\xf7\xc3<'
p5740
tp5741
bag14
(g15
(I0
tp5742
g17
tp5743
Rp5744
(I1
(I1
tp5745
g23
I00
S'Rm\x91>'
p5746
tp5747
bag14
(g15
(I0
tp5748
g17
tp5749
Rp5750
(I1
(I1
tp5751
g23
I00
S'\xb3\x81\x12='
p5752
tp5753
bag14
(g15
(I0
tp5754
g17
tp5755
Rp5756
(I1
(I1
tp5757
g23
I00
S'\xa5\x01\x05='
p5758
tp5759
bag14
(g15
(I0
tp5760
g17
tp5761
Rp5762
(I1
(I1
tp5763
g23
I00
S'\xf1\x15\xa5<'
p5764
tp5765
bag14
(g15
(I0
tp5766
g17
tp5767
Rp5768
(I1
(I1
tp5769
g23
I00
S'D\xbf\x11='
p5770
tp5771
bag14
(g15
(I0
tp5772
g17
tp5773
Rp5774
(I1
(I1
tp5775
g23
I00
S'\xc4jm='
p5776
tp5777
bag14
(g15
(I0
tp5778
g17
tp5779
Rp5780
(I1
(I1
tp5781
g23
I00
S'\x17\xef\xdc<'
p5782
tp5783
bag14
(g15
(I0
tp5784
g17
tp5785
Rp5786
(I1
(I1
tp5787
g23
I00
S'\xf3\xc6\xe7<'
p5788
tp5789
bag14
(g15
(I0
tp5790
g17
tp5791
Rp5792
(I1
(I1
tp5793
g23
I00
S'L\x9d\xaa<'
p5794
tp5795
baa(lp5796
g14
(g15
(I0
tp5797
g17
tp5798
Rp5799
(I1
(I1
tp5800
g23
I00
S'\x07\x16\x1b<'
p5801
tp5802
bag14
(g15
(I0
tp5803
g17
tp5804
Rp5805
(I1
(I1
tp5806
g23
I00
S'\xde#\xff;'
p5807
tp5808
bag14
(g15
(I0
tp5809
g17
tp5810
Rp5811
(I1
(I1
tp5812
g23
I00
S'\x0en\xb6;'
p5813
tp5814
bag14
(g15
(I0
tp5815
g17
tp5816
Rp5817
(I1
(I1
tp5818
g23
I00
S']\xdc0<'
p5819
tp5820
bag14
(g15
(I0
tp5821
g17
tp5822
Rp5823
(I1
(I1
tp5824
g23
I00
S'\x94"\x11<'
p5825
tp5826
bag14
(g15
(I0
tp5827
g17
tp5828
Rp5829
(I1
(I1
tp5830
g23
I00
S'D\xabe<'
p5831
tp5832
bag14
(g15
(I0
tp5833
g17
tp5834
Rp5835
(I1
(I1
tp5836
g23
I00
S'\xe7\xcd\xb5;'
p5837
tp5838
bag14
(g15
(I0
tp5839
g17
tp5840
Rp5841
(I1
(I1
tp5842
g23
I00
S'L\r)<'
p5843
tp5844
bag14
(g15
(I0
tp5845
g17
tp5846
Rp5847
(I1
(I1
tp5848
g23
I00
S'\xfc\x9f\xb0<'
p5849
tp5850
bag14
(g15
(I0
tp5851
g17
tp5852
Rp5853
(I1
(I1
tp5854
g23
I00
S'?\x99O='
p5855
tp5856
bag14
(g15
(I0
tp5857
g17
tp5858
Rp5859
(I1
(I1
tp5860
g23
I00
S'\x99g\xb0<'
p5861
tp5862
bag14
(g15
(I0
tp5863
g17
tp5864
Rp5865
(I1
(I1
tp5866
g23
I00
S'\x8b_%;'
p5867
tp5868
bag14
(g15
(I0
tp5869
g17
tp5870
Rp5871
(I1
(I1
tp5872
g23
I00
S'4\xee\xa2;'
p5873
tp5874
bag14
(g15
(I0
tp5875
g17
tp5876
Rp5877
(I1
(I1
tp5878
g23
I00
S'M[=?'
p5879
tp5880
bag14
(g15
(I0
tp5881
g17
tp5882
Rp5883
(I1
(I1
tp5884
g23
I00
S'\x14R=<'
p5885
tp5886
bag14
(g15
(I0
tp5887
g17
tp5888
Rp5889
(I1
(I1
tp5890
g23
I00
S'k\x9b\x1d<'
p5891
tp5892
bag14
(g15
(I0
tp5893
g17
tp5894
Rp5895
(I1
(I1
tp5896
g23
I00
S'$\x8fs;'
p5897
tp5898
bag14
(g15
(I0
tp5899
g17
tp5900
Rp5901
(I1
(I1
tp5902
g23
I00
S'N\xf8H<'
p5903
tp5904
bag14
(g15
(I0
tp5905
g17
tp5906
Rp5907
(I1
(I1
tp5908
g23
I00
S'xs\xfd<'
p5909
tp5910
bag14
(g15
(I0
tp5911
g17
tp5912
Rp5913
(I1
(I1
tp5914
g23
I00
S'%\xc4\xe5;'
p5915
tp5916
bag14
(g15
(I0
tp5917
g17
tp5918
Rp5919
(I1
(I1
tp5920
g23
I00
S'\xfa\xb7\xd8;'
p5921
tp5922
bag14
(g15
(I0
tp5923
g17
tp5924
Rp5925
(I1
(I1
tp5926
g23
I00
S'\xa2\xfa\xa2;'
p5927
tp5928
baa(lp5929
g14
(g15
(I0
tp5930
g17
tp5931
Rp5932
(I1
(I1
tp5933
g23
I00
S'\x99\x1b\xe8;'
p5934
tp5935
bag14
(g15
(I0
tp5936
g17
tp5937
Rp5938
(I1
(I1
tp5939
g23
I00
S'Q\xbd\x8c<'
p5940
tp5941
bag14
(g15
(I0
tp5942
g17
tp5943
Rp5944
(I1
(I1
tp5945
g23
I00
S'\xc9\xab\x95<'
p5946
tp5947
bag14
(g15
(I0
tp5948
g17
tp5949
Rp5950
(I1
(I1
tp5951
g23
I00
S'\x0ef\x9d<'
p5952
tp5953
bag14
(g15
(I0
tp5954
g17
tp5955
Rp5956
(I1
(I1
tp5957
g23
I00
S'\xb9\xf7<<'
p5958
tp5959
bag14
(g15
(I0
tp5960
g17
tp5961
Rp5962
(I1
(I1
tp5963
g23
I00
S'y|y<'
p5964
tp5965
bag14
(g15
(I0
tp5966
g17
tp5967
Rp5968
(I1
(I1
tp5969
g23
I00
S'\xe5O\x97;'
p5970
tp5971
bag14
(g15
(I0
tp5972
g17
tp5973
Rp5974
(I1
(I1
tp5975
g23
I00
S'\xce\xder<'
p5976
tp5977
bag14
(g15
(I0
tp5978
g17
tp5979
Rp5980
(I1
(I1
tp5981
g23
I00
S'\xd5\xb6\x10='
p5982
tp5983
bag14
(g15
(I0
tp5984
g17
tp5985
Rp5986
(I1
(I1
tp5987
g23
I00
S'\x1e\x1a<='
p5988
tp5989
bag14
(g15
(I0
tp5990
g17
tp5991
Rp5992
(I1
(I1
tp5993
g23
I00
S'\x08@\xa9<'
p5994
tp5995
bag14
(g15
(I0
tp5996
g17
tp5997
Rp5998
(I1
(I1
tp5999
g23
I00
S'\xeb\x95\xec:'
p6000
tp6001
bag14
(g15
(I0
tp6002
g17
tp6003
Rp6004
(I1
(I1
tp6005
g23
I00
S'\xca\xe1\xe1;'
p6006
tp6007
bag14
(g15
(I0
tp6008
g17
tp6009
Rp6010
(I1
(I1
tp6011
g23
I00
S'\xf99+?'
p6012
tp6013
bag14
(g15
(I0
tp6014
g17
tp6015
Rp6016
(I1
(I1
tp6017
g23
I00
S'\xe5,(<'
p6018
tp6019
bag14
(g15
(I0
tp6020
g17
tp6021
Rp6022
(I1
(I1
tp6023
g23
I00
S'\xdd\xa8|<'
p6024
tp6025
bag14
(g15
(I0
tp6026
g17
tp6027
Rp6028
(I1
(I1
tp6029
g23
I00
S'<\xc3\xc7;'
p6030
tp6031
bag14
(g15
(I0
tp6032
g17
tp6033
Rp6034
(I1
(I1
tp6035
g23
I00
S'\x1b+\x8c<'
p6036
tp6037
bag14
(g15
(I0
tp6038
g17
tp6039
Rp6040
(I1
(I1
tp6041
g23
I00
S'+\xc9\xf9<'
p6042
tp6043
bag14
(g15
(I0
tp6044
g17
tp6045
Rp6046
(I1
(I1
tp6047
g23
I00
S'\x81xR<'
p6048
tp6049
bag14
(g15
(I0
tp6050
g17
tp6051
Rp6052
(I1
(I1
tp6053
g23
I00
S'\xd0\xd9(<'
p6054
tp6055
bag14
(g15
(I0
tp6056
g17
tp6057
Rp6058
(I1
(I1
tp6059
g23
I00
S'\r\xa1$<'
p6060
tp6061
baasg2
(g6
S'\x0f\x00\x00\x00\x00\x00\x00\x00'
p6062
tp6063
Rp6064
(lp6065
(lp6066
g14
(g15
(I0
tp6067
g17
tp6068
Rp6069
(I1
(I1
tp6070
g23
I00
S'\xe5\xa8\x1e='
p6071
tp6072
bag14
(g15
(I0
tp6073
g17
tp6074
Rp6075
(I1
(I1
tp6076
g23
I00
S'\xbfRZ='
p6077
tp6078
bag14
(g15
(I0
tp6079
g17
tp6080
Rp6081
(I1
(I1
tp6082
g23
I00
S'\x1ea6='
p6083
tp6084
bag14
(g15
(I0
tp6085
g17
tp6086
Rp6087
(I1
(I1
tp6088
g23
I00
S'\x1aN(='
p6089
tp6090
bag14
(g15
(I0
tp6091
g17
tp6092
Rp6093
(I1
(I1
tp6094
g23
I00
S'\xe1\xf8&='
p6095
tp6096
bag14
(g15
(I0
tp6097
g17
tp6098
Rp6099
(I1
(I1
tp6100
g23
I00
S'\xa6\xe3S='
p6101
tp6102
bag14
(g15
(I0
tp6103
g17
tp6104
Rp6105
(I1
(I1
tp6106
g23
I00
S'MQ/='
p6107
tp6108
bag14
(g15
(I0
tp6109
g17
tp6110
Rp6111
(I1
(I1
tp6112
g23
I00
S'\xa1\xb0P='
p6113
tp6114
bag14
(g15
(I0
tp6115
g17
tp6116
Rp6117
(I1
(I1
tp6118
g23
I00
S'v\x89\x1c='
p6119
tp6120
bag14
(g15
(I0
tp6121
g17
tp6122
Rp6123
(I1
(I1
tp6124
g23
I00
S'fmB='
p6125
tp6126
bag14
(g15
(I0
tp6127
g17
tp6128
Rp6129
(I1
(I1
tp6130
g23
I00
S'\xf1XC='
p6131
tp6132
bag14
(g15
(I0
tp6133
g17
tp6134
Rp6135
(I1
(I1
tp6136
g23
I00
S'\xfc6\x18='
p6137
tp6138
bag14
(g15
(I0
tp6139
g17
tp6140
Rp6141
(I1
(I1
tp6142
g23
I00
S'\x9e\xa2V='
p6143
tp6144
bag14
(g15
(I0
tp6145
g17
tp6146
Rp6147
(I1
(I1
tp6148
g23
I00
S'\xcf8X='
p6149
tp6150
bag14
(g15
(I0
tp6151
g17
tp6152
Rp6153
(I1
(I1
tp6154
g23
I00
S'?=T='
p6155
tp6156
bag14
(g15
(I0
tp6157
g17
tp6158
Rp6159
(I1
(I1
tp6160
g23
I00
S'\x12-L='
p6161
tp6162
bag14
(g15
(I0
tp6163
g17
tp6164
Rp6165
(I1
(I1
tp6166
g23
I00
S'_\xdeM='
p6167
tp6168
bag14
(g15
(I0
tp6169
g17
tp6170
Rp6171
(I1
(I1
tp6172
g23
I00
S'1v0='
p6173
tp6174
bag14
(g15
(I0
tp6175
g17
tp6176
Rp6177
(I1
(I1
tp6178
g23
I00
S'\xbf\x1e\x19='
p6179
tp6180
bag14
(g15
(I0
tp6181
g17
tp6182
Rp6183
(I1
(I1
tp6184
g23
I00
S'\xc8\x1bD='
p6185
tp6186
bag14
(g15
(I0
tp6187
g17
tp6188
Rp6189
(I1
(I1
tp6190
g23
I00
S'OB\x15='
p6191
tp6192
bag14
(g15
(I0
tp6193
g17
tp6194
Rp6195
(I1
(I1
tp6196
g23
I00
S'\xce\xd82='
p6197
tp6198
baa(lp6199
g14
(g15
(I0
tp6200
g17
tp6201
Rp6202
(I1
(I1
tp6203
g23
I00
S'\xfe\x1c\r='
p6204
tp6205
bag14
(g15
(I0
tp6206
g17
tp6207
Rp6208
(I1
(I1
tp6209
g23
I00
S'\x97\x93x='
p6210
tp6211
bag14
(g15
(I0
tp6212
g17
tp6213
Rp6214
(I1
(I1
tp6215
g23
I00
S'h\xd2)='
p6216
tp6217
bag14
(g15
(I0
tp6218
g17
tp6219
Rp6220
(I1
(I1
tp6221
g23
I00
S'\x93R\x16='
p6222
tp6223
bag14
(g15
(I0
tp6224
g17
tp6225
Rp6226
(I1
(I1
tp6227
g23
I00
S'\xc5n\x1b='
p6228
tp6229
bag14
(g15
(I0
tp6230
g17
tp6231
Rp6232
(I1
(I1
tp6233
g23
I00
S'\xdfbd='
p6234
tp6235
bag14
(g15
(I0
tp6236
g17
tp6237
Rp6238
(I1
(I1
tp6239
g23
I00
S"\x15@'="
p6240
tp6241
bag14
(g15
(I0
tp6242
g17
tp6243
Rp6244
(I1
(I1
tp6245
g23
I00
S'\xd8\x8fc='
p6246
tp6247
bag14
(g15
(I0
tp6248
g17
tp6249
Rp6250
(I1
(I1
tp6251
g23
I00
S'\x1e\xca\x07='
p6252
tp6253
bag14
(g15
(I0
tp6254
g17
tp6255
Rp6256
(I1
(I1
tp6257
g23
I00
S'?\xcdD='
p6258
tp6259
bag14
(g15
(I0
tp6260
g17
tp6261
Rp6262
(I1
(I1
tp6263
g23
I00
S'\xda\xe7H='
p6264
tp6265
bag14
(g15
(I0
tp6266
g17
tp6267
Rp6268
(I1
(I1
tp6269
g23
I00
S'\x80\x8c\x08='
p6270
tp6271
bag14
(g15
(I0
tp6272
g17
tp6273
Rp6274
(I1
(I1
tp6275
g23
I00
S'\xe5\xebp='
p6276
tp6277
bag14
(g15
(I0
tp6278
g17
tp6279
Rp6280
(I1
(I1
tp6281
g23
I00
S'\xc5\xfei='
p6282
tp6283
bag14
(g15
(I0
tp6284
g17
tp6285
Rp6286
(I1
(I1
tp6287
g23
I00
S'\x18\x1ai='
p6288
tp6289
bag14
(g15
(I0
tp6290
g17
tp6291
Rp6292
(I1
(I1
tp6293
g23
I00
S'\xd0E_='
p6294
tp6295
bag14
(g15
(I0
tp6296
g17
tp6297
Rp6298
(I1
(I1
tp6299
g23
I00
S'kTY='
p6300
tp6301
bag14
(g15
(I0
tp6302
g17
tp6303
Rp6304
(I1
(I1
tp6305
g23
I00
S"\xd1'*="
p6306
tp6307
bag14
(g15
(I0
tp6308
g17
tp6309
Rp6310
(I1
(I1
tp6311
g23
I00
S'%\xfe\x04='
p6312
tp6313
bag14
(g15
(I0
tp6314
g17
tp6315
Rp6316
(I1
(I1
tp6317
g23
I00
S'\xf5\x9aB='
p6318
tp6319
bag14
(g15
(I0
tp6320
g17
tp6321
Rp6322
(I1
(I1
tp6323
g23
I00
S'\xb4"\xee<'
p6324
tp6325
bag14
(g15
(I0
tp6326
g17
tp6327
Rp6328
(I1
(I1
tp6329
g23
I00
S'\xda\x0b,='
p6330
tp6331
baa(lp6332
g14
(g15
(I0
tp6333
g17
tp6334
Rp6335
(I1
(I1
tp6336
g23
I00
S'\x1e\x1a\x91<'
p6337
tp6338
bag14
(g15
(I0
tp6339
g17
tp6340
Rp6341
(I1
(I1
tp6342
g23
I00
S'+I\xc8='
p6343
tp6344
bag14
(g15
(I0
tp6345
g17
tp6346
Rp6347
(I1
(I1
tp6348
g23
I00
S'.\x05\xc9='
p6349
tp6350
bag14
(g15
(I0
tp6351
g17
tp6352
Rp6353
(I1
(I1
tp6354
g23
I00
S'\xe1\xa4@='
p6355
tp6356
bag14
(g15
(I0
tp6357
g17
tp6358
Rp6359
(I1
(I1
tp6360
g23
I00
S'\xf5\xcc%='
p6361
tp6362
bag14
(g15
(I0
tp6363
g17
tp6364
Rp6365
(I1
(I1
tp6366
g23
I00
S'\xa2SD='
p6367
tp6368
bag14
(g15
(I0
tp6369
g17
tp6370
Rp6371
(I1
(I1
tp6372
g23
I00
S'\xc9"\xd0<'
p6373
tp6374
bag14
(g15
(I0
tp6375
g17
tp6376
Rp6377
(I1
(I1
tp6378
g23
I00
S'zB6='
p6379
tp6380
bag14
(g15
(I0
tp6381
g17
tp6382
Rp6383
(I1
(I1
tp6384
g23
I00
S'+;/='
p6385
tp6386
bag14
(g15
(I0
tp6387
g17
tp6388
Rp6389
(I1
(I1
tp6390
g23
I00
S'\x99\xea\xf4<'
p6391
tp6392
bag14
(g15
(I0
tp6393
g17
tp6394
Rp6395
(I1
(I1
tp6396
g23
I00
S'\xe3\xb9\x07='
p6397
tp6398
bag14
(g15
(I0
tp6399
g17
tp6400
Rp6401
(I1
(I1
tp6402
g23
I00
S'\x1e-\x91<'
p6403
tp6404
bag14
(g15
(I0
tp6405
g17
tp6406
Rp6407
(I1
(I1
tp6408
g23
I00
S'b\xeay='
p6409
tp6410
bag14
(g15
(I0
tp6411
g17
tp6412
Rp6413
(I1
(I1
tp6414
g23
I00
S'\xa5\xdc&='
p6415
tp6416
bag14
(g15
(I0
tp6417
g17
tp6418
Rp6419
(I1
(I1
tp6420
g23
I00
S'\xf4\xaf\x0c='
p6421
tp6422
bag14
(g15
(I0
tp6423
g17
tp6424
Rp6425
(I1
(I1
tp6426
g23
I00
S':\xab\x82='
p6427
tp6428
bag14
(g15
(I0
tp6429
g17
tp6430
Rp6431
(I1
(I1
tp6432
g23
I00
S'8\xa8n='
p6433
tp6434
bag14
(g15
(I0
tp6435
g17
tp6436
Rp6437
(I1
(I1
tp6438
g23
I00
S'\xe9\x8f\x1f='
p6439
tp6440
bag14
(g15
(I0
tp6441
g17
tp6442
Rp6443
(I1
(I1
tp6444
g23
I00
S'\xec\xee\xda<'
p6445
tp6446
bag14
(g15
(I0
tp6447
g17
tp6448
Rp6449
(I1
(I1
tp6450
g23
I00
S'\xa9\xbbW='
p6451
tp6452
bag14
(g15
(I0
tp6453
g17
tp6454
Rp6455
(I1
(I1
tp6456
g23
I00
S'\xbc\xd2\x1f='
p6457
tp6458
bag14
(g15
(I0
tp6459
g17
tp6460
Rp6461
(I1
(I1
tp6462
g23
I00
S'\x93\xb0+='
p6463
tp6464
baasg2
(g6
S'\x10\x00\x00\x00\x00\x00\x00\x00'
p6465
tp6466
Rp6467
(lp6468
(lp6469
g14
(g15
(I0
tp6470
g17
tp6471
Rp6472
(I1
(I1
tp6473
g23
I00
S'Xa\x10='
p6474
tp6475
bag14
(g15
(I0
tp6476
g17
tp6477
Rp6478
(I1
(I1
tp6479
g23
I00
S'[4\x19='
p6480
tp6481
bag14
(g15
(I0
tp6482
g17
tp6483
Rp6484
(I1
(I1
tp6485
g23
I00
S'\x01d9='
p6486
tp6487
bag14
(g15
(I0
tp6488
g17
tp6489
Rp6490
(I1
(I1
tp6491
g23
I00
S'\xf02$='
p6492
tp6493
bag14
(g15
(I0
tp6494
g17
tp6495
Rp6496
(I1
(I1
tp6497
g23
I00
S'\xfce\xe3<'
p6498
tp6499
bag14
(g15
(I0
tp6500
g17
tp6501
Rp6502
(I1
(I1
tp6503
g23
I00
S'}\n\xb2<'
p6504
tp6505
bag14
(g15
(I0
tp6506
g17
tp6507
Rp6508
(I1
(I1
tp6509
g23
I00
S'\x84\xef\x07='
p6510
tp6511
bag14
(g15
(I0
tp6512
g17
tp6513
Rp6514
(I1
(I1
tp6515
g23
I00
S'"\xf2\xe5<'
p6516
tp6517
bag14
(g15
(I0
tp6518
g17
tp6519
Rp6520
(I1
(I1
tp6521
g23
I00
S'\x1e\xee\xe2<'
p6522
tp6523
bag14
(g15
(I0
tp6524
g17
tp6525
Rp6526
(I1
(I1
tp6527
g23
I00
S'\xe2\xd5\xd6<'
p6528
tp6529
bag14
(g15
(I0
tp6530
g17
tp6531
Rp6532
(I1
(I1
tp6533
g23
I00
S'\x1f@\xc5<'
p6534
tp6535
bag14
(g15
(I0
tp6536
g17
tp6537
Rp6538
(I1
(I1
tp6539
g23
I00
S'{\xd1Q='
p6540
tp6541
bag14
(g15
(I0
tp6542
g17
tp6543
Rp6544
(I1
(I1
tp6545
g23
I00
S'N\x0e\x96>'
p6546
tp6547
bag14
(g15
(I0
tp6548
g17
tp6549
Rp6550
(I1
(I1
tp6551
g23
I00
S'\xce\x14\xaf<'
p6552
tp6553
bag14
(g15
(I0
tp6554
g17
tp6555
Rp6556
(I1
(I1
tp6557
g23
I00
S'u\xf1\xbd<'
p6558
tp6559
bag14
(g15
(I0
tp6560
g17
tp6561
Rp6562
(I1
(I1
tp6563
g23
I00
S'`\x08\n='
p6564
tp6565
bag14
(g15
(I0
tp6566
g17
tp6567
Rp6568
(I1
(I1
tp6569
g23
I00
S'\xff\xb0h='
p6570
tp6571
bag14
(g15
(I0
tp6572
g17
tp6573
Rp6574
(I1
(I1
tp6575
g23
I00
S'\x9cB0='
p6576
tp6577
bag14
(g15
(I0
tp6578
g17
tp6579
Rp6580
(I1
(I1
tp6581
g23
I00
S'\x0e\x05\x15='
p6582
tp6583
bag14
(g15
(I0
tp6584
g17
tp6585
Rp6586
(I1
(I1
tp6587
g23
I00
S'Yv<='
p6588
tp6589
bag14
(g15
(I0
tp6590
g17
tp6591
Rp6592
(I1
(I1
tp6593
g23
I00
S'\x86\x02\xd6<'
p6594
tp6595
bag14
(g15
(I0
tp6596
g17
tp6597
Rp6598
(I1
(I1
tp6599
g23
I00
S'\xa1\xe1\xb6<'
p6600
tp6601
baa(lp6602
g14
(g15
(I0
tp6603
g17
tp6604
Rp6605
(I1
(I1
tp6606
g23
I00
S'\xcc\x8cG<'
p6607
tp6608
bag14
(g15
(I0
tp6609
g17
tp6610
Rp6611
(I1
(I1
tp6612
g23
I00
S'{8^<'
p6613
tp6614
bag14
(g15
(I0
tp6615
g17
tp6616
Rp6617
(I1
(I1
tp6618
g23
I00
S'z\xc5\x95<'
p6619
tp6620
bag14
(g15
(I0
tp6621
g17
tp6622
Rp6623
(I1
(I1
tp6624
g23
I00
S'\x98_{<'
p6625
tp6626
bag14
(g15
(I0
tp6627
g17
tp6628
Rp6629
(I1
(I1
tp6630
g23
I00
S'\xdf\xde\x03<'
p6631
tp6632
bag14
(g15
(I0
tp6633
g17
tp6634
Rp6635
(I1
(I1
tp6636
g23
I00
S'k\xbd\xa3;'
p6637
tp6638
bag14
(g15
(I0
tp6639
g17
tp6640
Rp6641
(I1
(I1
tp6642
g23
I00
S'\xe5`E<'
p6643
tp6644
bag14
(g15
(I0
tp6645
g17
tp6646
Rp6647
(I1
(I1
tp6648
g23
I00
S'\x1b\xfe\x04<'
p6649
tp6650
bag14
(g15
(I0
tp6651
g17
tp6652
Rp6653
(I1
(I1
tp6654
g23
I00
S'E|\x03<'
p6655
tp6656
bag14
(g15
(I0
tp6657
g17
tp6658
Rp6659
(I1
(I1
tp6660
g23
I00
S'\xdd1\xd4;'
p6661
tp6662
bag14
(g15
(I0
tp6663
g17
tp6664
Rp6665
(I1
(I1
tp6666
g23
I00
S')E\xc2;'
p6667
tp6668
bag14
(g15
(I0
tp6669
g17
tp6670
Rp6671
(I1
(I1
tp6672
g23
I00
S'\xd8q\xda<'
p6673
tp6674
bag14
(g15
(I0
tp6675
g17
tp6676
Rp6677
(I1
(I1
tp6678
g23
I00
S'\xfc\xd5=?'
p6679
tp6680
bag14
(g15
(I0
tp6681
g17
tp6682
Rp6683
(I1
(I1
tp6684
g23
I00
S'h\x02\x8a;'
p6685
tp6686
bag14
(g15
(I0
tp6687
g17
tp6688
Rp6689
(I1
(I1
tp6690
g23
I00
S'\xd5\x16\xa1;'
p6691
tp6692
bag14
(g15
(I0
tp6693
g17
tp6694
Rp6695
(I1
(I1
tp6696
g23
I00
S'\x05\xc27<'
p6697
tp6698
bag14
(g15
(I0
tp6699
g17
tp6700
Rp6701
(I1
(I1
tp6702
g23
I00
S'WT\t='
p6703
tp6704
bag14
(g15
(I0
tp6705
g17
tp6706
Rp6707
(I1
(I1
tp6708
g23
I00
S'\x0b+\x9c<'
p6709
tp6710
bag14
(g15
(I0
tp6711
g17
tp6712
Rp6713
(I1
(I1
tp6714
g23
I00
S'\xfa\xe6@<'
p6715
tp6716
bag14
(g15
(I0
tp6717
g17
tp6718
Rp6719
(I1
(I1
tp6720
g23
I00
S'\x8b\x80\xb2<'
p6721
tp6722
bag14
(g15
(I0
tp6723
g17
tp6724
Rp6725
(I1
(I1
tp6726
g23
I00
S'6g\xdb;'
p6727
tp6728
bag14
(g15
(I0
tp6729
g17
tp6730
Rp6731
(I1
(I1
tp6732
g23
I00
S'C\x0e\xb7;'
p6733
tp6734
baa(lp6735
g14
(g15
(I0
tp6736
g17
tp6737
Rp6738
(I1
(I1
tp6739
g23
I00
S'\xcc\xc8\xdb;'
p6740
tp6741
bag14
(g15
(I0
tp6742
g17
tp6743
Rp6744
(I1
(I1
tp6745
g23
I00
S'\xc33\xdf<'
p6746
tp6747
bag14
(g15
(I0
tp6748
g17
tp6749
Rp6750
(I1
(I1
tp6751
g23
I00
S'\xb8,?='
p6752
tp6753
bag14
(g15
(I0
tp6754
g17
tp6755
Rp6756
(I1
(I1
tp6757
g23
I00
S'\xeb\xaa\xbe<'
p6758
tp6759
bag14
(g15
(I0
tp6760
g17
tp6761
Rp6762
(I1
(I1
tp6763
g23
I00
S'\x14\x91.<'
p6764
tp6765
bag14
(g15
(I0
tp6766
g17
tp6767
Rp6768
(I1
(I1
tp6769
g23
I00
S'X\x8d\xc7;'
p6770
tp6771
bag14
(g15
(I0
tp6772
g17
tp6773
Rp6774
(I1
(I1
tp6775
g23
I00
S'\x05C+<'
p6776
tp6777
bag14
(g15
(I0
tp6778
g17
tp6779
Rp6780
(I1
(I1
tp6781
g23
I00
S'\x029\x11<'
p6782
tp6783
bag14
(g15
(I0
tp6784
g17
tp6785
Rp6786
(I1
(I1
tp6787
g23
I00
S'\xf3\r^<'
p6788
tp6789
bag14
(g15
(I0
tp6790
g17
tp6791
Rp6792
(I1
(I1
tp6793
g23
I00
S'\x84;\x92;'
p6794
tp6795
bag14
(g15
(I0
tp6796
g17
tp6797
Rp6798
(I1
(I1
tp6799
g23
I00
S'1\xc9\xa1;'
p6800
tp6801
bag14
(g15
(I0
tp6802
g17
tp6803
Rp6804
(I1
(I1
tp6805
g23
I00
S'\xf3kx<'
p6806
tp6807
bag14
(g15
(I0
tp6808
g17
tp6809
Rp6810
(I1
(I1
tp6811
g23
I00
S'V\x18*?'
p6812
tp6813
bag14
(g15
(I0
tp6814
g17
tp6815
Rp6816
(I1
(I1
tp6817
g23
I00
S'\x80\xf3\\;'
p6818
tp6819
bag14
(g15
(I0
tp6820
g17
tp6821
Rp6822
(I1
(I1
tp6823
g23
I00
S'4\xf2\\;'
p6824
tp6825
bag14
(g15
(I0
tp6826
g17
tp6827
Rp6828
(I1
(I1
tp6829
g23
I00
S'\xdd\xe6v<'
p6830
tp6831
bag14
(g15
(I0
tp6832
g17
tp6833
Rp6834
(I1
(I1
tp6835
g23
I00
S'V\x8a_='
p6836
tp6837
bag14
(g15
(I0
tp6838
g17
tp6839
Rp6840
(I1
(I1
tp6841
g23
I00
S'#\xf1\xb3<'
p6842
tp6843
bag14
(g15
(I0
tp6844
g17
tp6845
Rp6846
(I1
(I1
tp6847
g23
I00
S'T\xc0\x0b<'
p6848
tp6849
bag14
(g15
(I0
tp6850
g17
tp6851
Rp6852
(I1
(I1
tp6853
g23
I00
S'0\x8f\x02='
p6854
tp6855
bag14
(g15
(I0
tp6856
g17
tp6857
Rp6858
(I1
(I1
tp6859
g23
I00
S'Bw/<'
p6860
tp6861
bag14
(g15
(I0
tp6862
g17
tp6863
Rp6864
(I1
(I1
tp6865
g23
I00
S'\x8ce\x03<'
p6866
tp6867
baasg2
(g6
S'\x11\x00\x00\x00\x00\x00\x00\x00'
p6868
tp6869
Rp6870
(lp6871
(lp6872
g14
(g15
(I0
tp6873
g17
tp6874
Rp6875
(I1
(I1
tp6876
g23
I00
S'r\xe2\x15='
p6877
tp6878
bag14
(g15
(I0
tp6879
g17
tp6880
Rp6881
(I1
(I1
tp6882
g23
I00
S'\xd0\x02\x19='
p6883
tp6884
bag14
(g15
(I0
tp6885
g17
tp6886
Rp6887
(I1
(I1
tp6888
g23
I00
S"S\xb4'="
p6889
tp6890
bag14
(g15
(I0
tp6891
g17
tp6892
Rp6893
(I1
(I1
tp6894
g23
I00
S'xy1='
p6895
tp6896
bag14
(g15
(I0
tp6897
g17
tp6898
Rp6899
(I1
(I1
tp6900
g23
I00
S'\xe1\xa0R='
p6901
tp6902
bag14
(g15
(I0
tp6903
g17
tp6904
Rp6905
(I1
(I1
tp6906
g23
I00
S'h\xa4)='
p6907
tp6908
bag14
(g15
(I0
tp6909
g17
tp6910
Rp6911
(I1
(I1
tp6912
g23
I00
S'9.a='
p6913
tp6914
bag14
(g15
(I0
tp6915
g17
tp6916
Rp6917
(I1
(I1
tp6918
g23
I00
S'\xcb\x8f\xec<'
p6919
tp6920
bag14
(g15
(I0
tp6921
g17
tp6922
Rp6923
(I1
(I1
tp6924
g23
I00
S'\x8a!+='
p6925
tp6926
bag14
(g15
(I0
tp6927
g17
tp6928
Rp6929
(I1
(I1
tp6930
g23
I00
S'G\xdbQ='
p6931
tp6932
bag14
(g15
(I0
tp6933
g17
tp6934
Rp6935
(I1
(I1
tp6936
g23
I00
S'\xc6\xf5Z='
p6937
tp6938
bag14
(g15
(I0
tp6939
g17
tp6940
Rp6941
(I1
(I1
tp6942
g23
I00
S'\xc0\xc6<='
p6943
tp6944
bag14
(g15
(I0
tp6945
g17
tp6946
Rp6947
(I1
(I1
tp6948
g23
I00
S'\xbc\x14H='
p6949
tp6950
bag14
(g15
(I0
tp6951
g17
tp6952
Rp6953
(I1
(I1
tp6954
g23
I00
S'\xd5!u='
p6955
tp6956
bag14
(g15
(I0
tp6957
g17
tp6958
Rp6959
(I1
(I1
tp6960
g23
I00
S'\xd3\xef\x1a='
p6961
tp6962
bag14
(g15
(I0
tp6963
g17
tp6964
Rp6965
(I1
(I1
tp6966
g23
I00
S'4\xd6\x12='
p6967
tp6968
bag14
(g15
(I0
tp6969
g17
tp6970
Rp6971
(I1
(I1
tp6972
g23
I00
S'\x13\xfdH='
p6973
tp6974
bag14
(g15
(I0
tp6975
g17
tp6976
Rp6977
(I1
(I1
tp6978
g23
I00
S'%(H='
p6979
tp6980
bag14
(g15
(I0
tp6981
g17
tp6982
Rp6983
(I1
(I1
tp6984
g23
I00
S',>a='
p6985
tp6986
bag14
(g15
(I0
tp6987
g17
tp6988
Rp6989
(I1
(I1
tp6990
g23
I00
S'\xdc\x1b8='
p6991
tp6992
bag14
(g15
(I0
tp6993
g17
tp6994
Rp6995
(I1
(I1
tp6996
g23
I00
S'\x14wF='
p6997
tp6998
bag14
(g15
(I0
tp6999
g17
tp7000
Rp7001
(I1
(I1
tp7002
g23
I00
S'E\x853='
p7003
tp7004
baa(lp7005
g14
(g15
(I0
tp7006
g17
tp7007
Rp7008
(I1
(I1
tp7009
g23
I00
S'o\xfb\xfd<'
p7010
tp7011
bag14
(g15
(I0
tp7012
g17
tp7013
Rp7014
(I1
(I1
tp7015
g23
I00
S'"T\xff<'
p7016
tp7017
bag14
(g15
(I0
tp7018
g17
tp7019
Rp7020
(I1
(I1
tp7021
g23
I00
S';2\x12='
p7022
tp7023
bag14
(g15
(I0
tp7024
g17
tp7025
Rp7026
(I1
(I1
tp7027
g23
I00
S'\x11t%='
p7028
tp7029
bag14
(g15
(I0
tp7030
g17
tp7031
Rp7032
(I1
(I1
tp7033
g23
I00
S'\x1b X='
p7034
tp7035
bag14
(g15
(I0
tp7036
g17
tp7037
Rp7038
(I1
(I1
tp7039
g23
I00
S'\x10=\x1c='
p7040
tp7041
bag14
(g15
(I0
tp7042
g17
tp7043
Rp7044
(I1
(I1
tp7045
g23
I00
S'\x87\x87v='
p7046
tp7047
bag14
(g15
(I0
tp7048
g17
tp7049
Rp7050
(I1
(I1
tp7051
g23
I00
S'q<\xb0<'
p7052
tp7053
bag14
(g15
(I0
tp7054
g17
tp7055
Rp7056
(I1
(I1
tp7057
g23
I00
S'\x19\xc4!='
p7058
tp7059
bag14
(g15
(I0
tp7060
g17
tp7061
Rp7062
(I1
(I1
tp7063
g23
I00
S'\xb9\xffi='
p7064
tp7065
bag14
(g15
(I0
tp7066
g17
tp7067
Rp7068
(I1
(I1
tp7069
g23
I00
S'cMw='
p7070
tp7071
bag14
(g15
(I0
tp7072
g17
tp7073
Rp7074
(I1
(I1
tp7075
g23
I00
S'$\x1f9='
p7076
tp7077
bag14
(g15
(I0
tp7078
g17
tp7079
Rp7080
(I1
(I1
tp7081
g23
I00
S'\x16\xc6Q='
p7082
tp7083
bag14
(g15
(I0
tp7084
g17
tp7085
Rp7086
(I1
(I1
tp7087
g23
I00
S'\xe0S\x9a='
p7088
tp7089
bag14
(g15
(I0
tp7090
g17
tp7091
Rp7092
(I1
(I1
tp7093
g23
I00
S'\xdc\xe0\x02='
p7094
tp7095
bag14
(g15
(I0
tp7096
g17
tp7097
Rp7098
(I1
(I1
tp7099
g23
I00
S'Tj\xeb<'
p7100
tp7101
bag14
(g15
(I0
tp7102
g17
tp7103
Rp7104
(I1
(I1
tp7105
g23
I00
S'\xccWT='
p7106
tp7107
bag14
(g15
(I0
tp7108
g17
tp7109
Rp7110
(I1
(I1
tp7111
g23
I00
S"'\x18S="
p7112
tp7113
bag14
(g15
(I0
tp7114
g17
tp7115
Rp7116
(I1
(I1
tp7117
g23
I00
S'\x82*\x80='
p7118
tp7119
bag14
(g15
(I0
tp7120
g17
tp7121
Rp7122
(I1
(I1
tp7123
g23
I00
S'\xcf\r7='
p7124
tp7125
bag14
(g15
(I0
tp7126
g17
tp7127
Rp7128
(I1
(I1
tp7129
g23
I00
S'\xed\x9c;='
p7130
tp7131
bag14
(g15
(I0
tp7132
g17
tp7133
Rp7134
(I1
(I1
tp7135
g23
I00
S'\x0c\x0b1='
p7136
tp7137
baa(lp7138
g14
(g15
(I0
tp7139
g17
tp7140
Rp7141
(I1
(I1
tp7142
g23
I00
S'\xf0\xe6\x88<'
p7143
tp7144
bag14
(g15
(I0
tp7145
g17
tp7146
Rp7147
(I1
(I1
tp7148
g23
I00
S'\xcfMf='
p7149
tp7150
bag14
(g15
(I0
tp7151
g17
tp7152
Rp7153
(I1
(I1
tp7154
g23
I00
S'\x08`\xbb='
p7155
tp7156
bag14
(g15
(I0
tp7157
g17
tp7158
Rp7159
(I1
(I1
tp7160
g23
I00
S'\xda\x0ba='
p7161
tp7162
bag14
(g15
(I0
tp7163
g17
tp7164
Rp7165
(I1
(I1
tp7166
g23
I00
S'\xcf\nD='
p7167
tp7168
bag14
(g15
(I0
tp7169
g17
tp7170
Rp7171
(I1
(I1
tp7172
g23
I00
S'\xff?\x1b='
p7173
tp7174
bag14
(g15
(I0
tp7175
g17
tp7176
Rp7177
(I1
(I1
tp7178
g23
I00
S'\xa2\x9b\x08='
p7179
tp7180
bag14
(g15
(I0
tp7181
g17
tp7182
Rp7183
(I1
(I1
tp7184
g23
I00
S'\xc01\xc5<'
p7185
tp7186
bag14
(g15
(I0
tp7187
g17
tp7188
Rp7189
(I1
(I1
tp7190
g23
I00
S'\x85wT='
p7191
tp7192
bag14
(g15
(I0
tp7193
g17
tp7194
Rp7195
(I1
(I1
tp7196
g23
I00
S'\x82\x11\x1d='
p7197
tp7198
bag14
(g15
(I0
tp7199
g17
tp7200
Rp7201
(I1
(I1
tp7202
g23
I00
S'\xe9\xc2)='
p7203
tp7204
bag14
(g15
(I0
tp7205
g17
tp7206
Rp7207
(I1
(I1
tp7208
g23
I00
S'G\xc0\xa8<'
p7209
tp7210
bag14
(g15
(I0
tp7211
g17
tp7212
Rp7213
(I1
(I1
tp7214
g23
I00
S'l!i='
p7215
tp7216
bag14
(g15
(I0
tp7217
g17
tp7218
Rp7219
(I1
(I1
tp7220
g23
I00
S'xdj='
p7221
tp7222
bag14
(g15
(I0
tp7223
g17
tp7224
Rp7225
(I1
(I1
tp7226
g23
I00
S'%\xbd\xb2<'
p7227
tp7228
bag14
(g15
(I0
tp7229
g17
tp7230
Rp7231
(I1
(I1
tp7232
g23
I00
S'u\x86\x16='
p7233
tp7234
bag14
(g15
(I0
tp7235
g17
tp7236
Rp7237
(I1
(I1
tp7238
g23
I00
S'-\xfe\x80='
p7239
tp7240
bag14
(g15
(I0
tp7241
g17
tp7242
Rp7243
(I1
(I1
tp7244
g23
I00
S' &F='
p7245
tp7246
bag14
(g15
(I0
tp7247
g17
tp7248
Rp7249
(I1
(I1
tp7250
g23
I00
S'\x15\x0e5='
p7251
tp7252
bag14
(g15
(I0
tp7253
g17
tp7254
Rp7255
(I1
(I1
tp7256
g23
I00
S'\xca`j='
p7257
tp7258
bag14
(g15
(I0
tp7259
g17
tp7260
Rp7261
(I1
(I1
tp7262
g23
I00
S'\xaf\x83[='
p7263
tp7264
bag14
(g15
(I0
tp7265
g17
tp7266
Rp7267
(I1
(I1
tp7268
g23
I00
S'\x84\xc7<='
p7269
tp7270
baasg2
(g6
S'\x12\x00\x00\x00\x00\x00\x00\x00'
p7271
tp7272
Rp7273
(lp7274
(lp7275
g14
(g15
(I0
tp7276
g17
tp7277
Rp7278
(I1
(I1
tp7279
g23
I00
S'\x90!1='
p7280
tp7281
bag14
(g15
(I0
tp7282
g17
tp7283
Rp7284
(I1
(I1
tp7285
g23
I00
S'\xf98T='
p7286
tp7287
bag14
(g15
(I0
tp7288
g17
tp7289
Rp7290
(I1
(I1
tp7291
g23
I00
S'_>R='
p7292
tp7293
bag14
(g15
(I0
tp7294
g17
tp7295
Rp7296
(I1
(I1
tp7297
g23
I00
S'F\x1e9='
p7298
tp7299
bag14
(g15
(I0
tp7300
g17
tp7301
Rp7302
(I1
(I1
tp7303
g23
I00
S'q\x02A='
p7304
tp7305
bag14
(g15
(I0
tp7306
g17
tp7307
Rp7308
(I1
(I1
tp7309
g23
I00
S'}\xa4?='
p7310
tp7311
bag14
(g15
(I0
tp7312
g17
tp7313
Rp7314
(I1
(I1
tp7315
g23
I00
S'<\xe2(='
p7316
tp7317
bag14
(g15
(I0
tp7318
g17
tp7319
Rp7320
(I1
(I1
tp7321
g23
I00
S'&Z?='
p7322
tp7323
bag14
(g15
(I0
tp7324
g17
tp7325
Rp7326
(I1
(I1
tp7327
g23
I00
S'S\xeci='
p7328
tp7329
bag14
(g15
(I0
tp7330
g17
tp7331
Rp7332
(I1
(I1
tp7333
g23
I00
S'\xb8\xe5\x05='
p7334
tp7335
bag14
(g15
(I0
tp7336
g17
tp7337
Rp7338
(I1
(I1
tp7339
g23
I00
S'D\xbc-='
p7340
tp7341
bag14
(g15
(I0
tp7342
g17
tp7343
Rp7344
(I1
(I1
tp7345
g23
I00
S'\xf0qG='
p7346
tp7347
bag14
(g15
(I0
tp7348
g17
tp7349
Rp7350
(I1
(I1
tp7351
g23
I00
S'\xfd\xd1\x88='
p7352
tp7353
bag14
(g15
(I0
tp7354
g17
tp7355
Rp7356
(I1
(I1
tp7357
g23
I00
S'@\xc0E='
p7358
tp7359
bag14
(g15
(I0
tp7360
g17
tp7361
Rp7362
(I1
(I1
tp7363
g23
I00
S'\xfd\xea\r='
p7364
tp7365
bag14
(g15
(I0
tp7366
g17
tp7367
Rp7368
(I1
(I1
tp7369
g23
I00
S'\x0f\xdd ='
p7370
tp7371
bag14
(g15
(I0
tp7372
g17
tp7373
Rp7374
(I1
(I1
tp7375
g23
I00
S'c\xf8*='
p7376
tp7377
bag14
(g15
(I0
tp7378
g17
tp7379
Rp7380
(I1
(I1
tp7381
g23
I00
S'\ta\x1b='
p7382
tp7383
bag14
(g15
(I0
tp7384
g17
tp7385
Rp7386
(I1
(I1
tp7387
g23
I00
S'\x8c\xdc ='
p7388
tp7389
bag14
(g15
(I0
tp7390
g17
tp7391
Rp7392
(I1
(I1
tp7393
g23
I00
S'8\xe4O='
p7394
tp7395
bag14
(g15
(I0
tp7396
g17
tp7397
Rp7398
(I1
(I1
tp7399
g23
I00
S'\xe9\x92q='
p7400
tp7401
bag14
(g15
(I0
tp7402
g17
tp7403
Rp7404
(I1
(I1
tp7405
g23
I00
S'\xb3\x17\xe5<'
p7406
tp7407
baa(lp7408
g14
(g15
(I0
tp7409
g17
tp7410
Rp7411
(I1
(I1
tp7412
g23
I00
S'y\x8f$='
p7413
tp7414
bag14
(g15
(I0
tp7415
g17
tp7416
Rp7417
(I1
(I1
tp7418
g23
I00
S'n\xd2f='
p7419
tp7420
bag14
(g15
(I0
tp7421
g17
tp7422
Rp7423
(I1
(I1
tp7424
g23
I00
S'!\x0ec='
p7425
tp7426
bag14
(g15
(I0
tp7427
g17
tp7428
Rp7429
(I1
(I1
tp7430
g23
I00
S'\xc9r:='
p7431
tp7432
bag14
(g15
(I0
tp7433
g17
tp7434
Rp7435
(I1
(I1
tp7436
g23
I00
S'\xf4\\E='
p7437
tp7438
bag14
(g15
(I0
tp7439
g17
tp7440
Rp7441
(I1
(I1
tp7442
g23
I00
S'\xab\xf2:='
p7443
tp7444
bag14
(g15
(I0
tp7445
g17
tp7446
Rp7447
(I1
(I1
tp7448
g23
I00
S'\xb7\xac\x16='
p7449
tp7450
bag14
(g15
(I0
tp7451
g17
tp7452
Rp7453
(I1
(I1
tp7454
g23
I00
S'H<D='
p7455
tp7456
bag14
(g15
(I0
tp7457
g17
tp7458
Rp7459
(I1
(I1
tp7460
g23
I00
S'\x13\x89\x83='
p7461
tp7462
bag14
(g15
(I0
tp7463
g17
tp7464
Rp7465
(I1
(I1
tp7466
g23
I00
S' 3\xba<'
p7467
tp7468
bag14
(g15
(I0
tp7469
g17
tp7470
Rp7471
(I1
(I1
tp7472
g23
I00
S'\xbc\xb8\x1b='
p7473
tp7474
bag14
(g15
(I0
tp7475
g17
tp7476
Rp7477
(I1
(I1
tp7478
g23
I00
S':OO='
p7479
tp7480
bag14
(g15
(I0
tp7481
g17
tp7482
Rp7483
(I1
(I1
tp7484
g23
I00
S'\xca\xb3\xb6='
p7485
tp7486
bag14
(g15
(I0
tp7487
g17
tp7488
Rp7489
(I1
(I1
tp7490
g23
I00
S'\xb6\xbb9='
p7491
tp7492
bag14
(g15
(I0
tp7493
g17
tp7494
Rp7495
(I1
(I1
tp7496
g23
I00
S'\xf4p\xda<'
p7497
tp7498
bag14
(g15
(I0
tp7499
g17
tp7500
Rp7501
(I1
(I1
tp7502
g23
I00
S'\xce\xe4\x0f='
p7503
tp7504
bag14
(g15
(I0
tp7505
g17
tp7506
Rp7507
(I1
(I1
tp7508
g23
I00
S'{\x18\x1f='
p7509
tp7510
bag14
(g15
(I0
tp7511
g17
tp7512
Rp7513
(I1
(I1
tp7514
g23
I00
S'\xf7\xe9\x05='
p7515
tp7516
bag14
(g15
(I0
tp7517
g17
tp7518
Rp7519
(I1
(I1
tp7520
g23
I00
S'\x8c\xc6\r='
p7521
tp7522
bag14
(g15
(I0
tp7523
g17
tp7524
Rp7525
(I1
(I1
tp7526
g23
I00
S'^\x0bY='
p7527
tp7528
bag14
(g15
(I0
tp7529
g17
tp7530
Rp7531
(I1
(I1
tp7532
g23
I00
S'Y\x84\x96='
p7533
tp7534
bag14
(g15
(I0
tp7535
g17
tp7536
Rp7537
(I1
(I1
tp7538
g23
I00
S'r&\x9f<'
p7539
tp7540
baa(lp7541
g14
(g15
(I0
tp7542
g17
tp7543
Rp7544
(I1
(I1
tp7545
g23
I00
S'\xce\xfb\x94<'
p7546
tp7547
bag14
(g15
(I0
tp7548
g17
tp7549
Rp7550
(I1
(I1
tp7551
g23
I00
S'\t\xeb\xaf='
p7552
tp7553
bag14
(g15
(I0
tp7554
g17
tp7555
Rp7556
(I1
(I1
tp7557
g23
I00
S'\x0cD\x03>'
p7558
tp7559
bag14
(g15
(I0
tp7560
g17
tp7561
Rp7562
(I1
(I1
tp7563
g23
I00
S'K:s='
p7564
tp7565
bag14
(g15
(I0
tp7566
g17
tp7567
Rp7568
(I1
(I1
tp7569
g23
I00
S'\xb5{;='
p7570
tp7571
bag14
(g15
(I0
tp7572
g17
tp7573
Rp7574
(I1
(I1
tp7575
g23
I00
S'\x9dN\x1b='
p7576
tp7577
bag14
(g15
(I0
tp7578
g17
tp7579
Rp7580
(I1
(I1
tp7581
g23
I00
S'5\x96\xb0<'
p7582
tp7583
bag14
(g15
(I0
tp7584
g17
tp7585
Rp7586
(I1
(I1
tp7587
g23
I00
S'\x8b\x07 ='
p7588
tp7589
bag14
(g15
(I0
tp7590
g17
tp7591
Rp7592
(I1
(I1
tp7593
g23
I00
S'v\xbf\x87='
p7594
tp7595
bag14
(g15
(I0
tp7596
g17
tp7597
Rp7598
(I1
(I1
tp7599
g23
I00
S'\x8c\x8eX<'
p7600
tp7601
bag14
(g15
(I0
tp7602
g17
tp7603
Rp7604
(I1
(I1
tp7605
g23
I00
S'\xa8\x95\xc4<'
p7606
tp7607
bag14
(g15
(I0
tp7608
g17
tp7609
Rp7610
(I1
(I1
tp7611
g23
I00
S'fi\xae<'
p7612
tp7613
bag14
(g15
(I0
tp7614
g17
tp7615
Rp7616
(I1
(I1
tp7617
g23
I00
S'\xeb\xa6\xa8='
p7618
tp7619
bag14
(g15
(I0
tp7620
g17
tp7621
Rp7622
(I1
(I1
tp7623
g23
I00
S'\x01\xb1\xe9<'
p7624
tp7625
bag14
(g15
(I0
tp7626
g17
tp7627
Rp7628
(I1
(I1
tp7629
g23
I00
S'[l\x88<'
p7630
tp7631
bag14
(g15
(I0
tp7632
g17
tp7633
Rp7634
(I1
(I1
tp7635
g23
I00
S'\xcd\xf2.='
p7636
tp7637
bag14
(g15
(I0
tp7638
g17
tp7639
Rp7640
(I1
(I1
tp7641
g23
I00
S'\xfc}=='
p7642
tp7643
bag14
(g15
(I0
tp7644
g17
tp7645
Rp7646
(I1
(I1
tp7647
g23
I00
S'K\xe3\xf8<'
p7648
tp7649
bag14
(g15
(I0
tp7650
g17
tp7651
Rp7652
(I1
(I1
tp7653
g23
I00
S'\xca\x89\xd2<'
p7654
tp7655
bag14
(g15
(I0
tp7656
g17
tp7657
Rp7658
(I1
(I1
tp7659
g23
I00
S'\x800h='
p7660
tp7661
bag14
(g15
(I0
tp7662
g17
tp7663
Rp7664
(I1
(I1
tp7665
g23
I00
S'\\\xb0\xb3='
p7666
tp7667
bag14
(g15
(I0
tp7668
g17
tp7669
Rp7670
(I1
(I1
tp7671
g23
I00
S'\xf3\x1a\xb6<'
p7672
tp7673
baasg2
(g6
S'\x13\x00\x00\x00\x00\x00\x00\x00'
p7674
tp7675
Rp7676
(lp7677
(lp7678
g14
(g15
(I0
tp7679
g17
tp7680
Rp7681
(I1
(I1
tp7682
g23
I00
S'\xcb\xab\x05='
p7683
tp7684
bag14
(g15
(I0
tp7685
g17
tp7686
Rp7687
(I1
(I1
tp7688
g23
I00
S' \xedX='
p7689
tp7690
bag14
(g15
(I0
tp7691
g17
tp7692
Rp7693
(I1
(I1
tp7694
g23
I00
S'Kgn='
p7695
tp7696
bag14
(g15
(I0
tp7697
g17
tp7698
Rp7699
(I1
(I1
tp7700
g23
I00
S'b\xcd6='
p7701
tp7702
bag14
(g15
(I0
tp7703
g17
tp7704
Rp7705
(I1
(I1
tp7706
g23
I00
S'\xe1$/='
p7707
tp7708
bag14
(g15
(I0
tp7709
g17
tp7710
Rp7711
(I1
(I1
tp7712
g23
I00
S'\xd8)m='
p7713
tp7714
bag14
(g15
(I0
tp7715
g17
tp7716
Rp7717
(I1
(I1
tp7718
g23
I00
S'm\xd2\xf9<'
p7719
tp7720
bag14
(g15
(I0
tp7721
g17
tp7722
Rp7723
(I1
(I1
tp7724
g23
I00
S'\xe8\x99E='
p7725
tp7726
bag14
(g15
(I0
tp7727
g17
tp7728
Rp7729
(I1
(I1
tp7730
g23
I00
S'\x024,='
p7731
tp7732
bag14
(g15
(I0
tp7733
g17
tp7734
Rp7735
(I1
(I1
tp7736
g23
I00
S'\xe0\x9cS='
p7737
tp7738
bag14
(g15
(I0
tp7739
g17
tp7740
Rp7741
(I1
(I1
tp7742
g23
I00
S'L\xcb!='
p7743
tp7744
bag14
(g15
(I0
tp7745
g17
tp7746
Rp7747
(I1
(I1
tp7748
g23
I00
S'[\xc2\xf6<'
p7749
tp7750
bag14
(g15
(I0
tp7751
g17
tp7752
Rp7753
(I1
(I1
tp7754
g23
I00
S'\xda\xd2/='
p7755
tp7756
bag14
(g15
(I0
tp7757
g17
tp7758
Rp7759
(I1
(I1
tp7760
g23
I00
S'Z\x9c\x81='
p7761
tp7762
bag14
(g15
(I0
tp7763
g17
tp7764
Rp7765
(I1
(I1
tp7766
g23
I00
S'\x8aI9='
p7767
tp7768
bag14
(g15
(I0
tp7769
g17
tp7770
Rp7771
(I1
(I1
tp7772
g23
I00
S'\x03}\x80='
p7773
tp7774
bag14
(g15
(I0
tp7775
g17
tp7776
Rp7777
(I1
(I1
tp7778
g23
I00
S'\x87}9='
p7779
tp7780
bag14
(g15
(I0
tp7781
g17
tp7782
Rp7783
(I1
(I1
tp7784
g23
I00
S'="\x1d='
p7785
tp7786
bag14
(g15
(I0
tp7787
g17
tp7788
Rp7789
(I1
(I1
tp7790
g23
I00
S'\xd7zL='
p7791
tp7792
bag14
(g15
(I0
tp7793
g17
tp7794
Rp7795
(I1
(I1
tp7796
g23
I00
S'<\x04\x16='
p7797
tp7798
bag14
(g15
(I0
tp7799
g17
tp7800
Rp7801
(I1
(I1
tp7802
g23
I00
S'\x86DP='
p7803
tp7804
bag14
(g15
(I0
tp7805
g17
tp7806
Rp7807
(I1
(I1
tp7808
g23
I00
S'\xbd\xb0\t='
p7809
tp7810
baa(lp7811
g14
(g15
(I0
tp7812
g17
tp7813
Rp7814
(I1
(I1
tp7815
g23
I00
S'o\x1b\xc9<'
p7816
tp7817
bag14
(g15
(I0
tp7818
g17
tp7819
Rp7820
(I1
(I1
tp7821
g23
I00
S'7\xces='
p7822
tp7823
bag14
(g15
(I0
tp7824
g17
tp7825
Rp7826
(I1
(I1
tp7827
g23
I00
S'6\xaa\x88='
p7828
tp7829
bag14
(g15
(I0
tp7830
g17
tp7831
Rp7832
(I1
(I1
tp7833
g23
I00
S'Z\x81,='
p7834
tp7835
bag14
(g15
(I0
tp7836
g17
tp7837
Rp7838
(I1
(I1
tp7839
g23
I00
S';\xe9$='
p7840
tp7841
bag14
(g15
(I0
tp7842
g17
tp7843
Rp7844
(I1
(I1
tp7845
g23
I00
S'\xe7\x97\x85='
p7846
tp7847
bag14
(g15
(I0
tp7848
g17
tp7849
Rp7850
(I1
(I1
tp7851
g23
I00
S'\x96n\xb3<'
p7852
tp7853
bag14
(g15
(I0
tp7854
g17
tp7855
Rp7856
(I1
(I1
tp7857
g23
I00
S']\x11M='
p7858
tp7859
bag14
(g15
(I0
tp7860
g17
tp7861
Rp7862
(I1
(I1
tp7863
g23
I00
S'j#&='
p7864
tp7865
bag14
(g15
(I0
tp7866
g17
tp7867
Rp7868
(I1
(I1
tp7869
g23
I00
S'\x1f\x87O='
p7870
tp7871
bag14
(g15
(I0
tp7872
g17
tp7873
Rp7874
(I1
(I1
tp7875
g23
I00
S'\x87(\x11='
p7876
tp7877
bag14
(g15
(I0
tp7878
g17
tp7879
Rp7880
(I1
(I1
tp7881
g23
I00
S'\xe1\xcb\xb1<'
p7882
tp7883
bag14
(g15
(I0
tp7884
g17
tp7885
Rp7886
(I1
(I1
tp7887
g23
I00
S'q\x99\x1d='
p7888
tp7889
bag14
(g15
(I0
tp7890
g17
tp7891
Rp7892
(I1
(I1
tp7893
g23
I00
S'\xdd\x0c\xa5='
p7894
tp7895
bag14
(g15
(I0
tp7896
g17
tp7897
Rp7898
(I1
(I1
tp7899
g23
I00
S'0=,='
p7900
tp7901
bag14
(g15
(I0
tp7902
g17
tp7903
Rp7904
(I1
(I1
tp7905
g23
I00
S'&\xe3\xa4='
p7906
tp7907
bag14
(g15
(I0
tp7908
g17
tp7909
Rp7910
(I1
(I1
tp7911
g23
I00
S'j\x121='
p7912
tp7913
bag14
(g15
(I0
tp7914
g17
tp7915
Rp7916
(I1
(I1
tp7917
g23
I00
S'\x1a\xc4\x04='
p7918
tp7919
bag14
(g15
(I0
tp7920
g17
tp7921
Rp7922
(I1
(I1
tp7923
g23
I00
S'9?Q='
p7924
tp7925
bag14
(g15
(I0
tp7926
g17
tp7927
Rp7928
(I1
(I1
tp7929
g23
I00
S'\xfe~\xfd<'
p7930
tp7931
bag14
(g15
(I0
tp7932
g17
tp7933
Rp7934
(I1
(I1
tp7935
g23
I00
S'\xa7\x02e='
p7936
tp7937
bag14
(g15
(I0
tp7938
g17
tp7939
Rp7940
(I1
(I1
tp7941
g23
I00
S'\x0bJ\xd5<'
p7942
tp7943
baa(lp7944
g14
(g15
(I0
tp7945
g17
tp7946
Rp7947
(I1
(I1
tp7948
g23
I00
S'o\xa3J<'
p7949
tp7950
bag14
(g15
(I0
tp7951
g17
tp7952
Rp7953
(I1
(I1
tp7954
g23
I00
S'\xc5m\xbd='
p7955
tp7956
bag14
(g15
(I0
tp7957
g17
tp7958
Rp7959
(I1
(I1
tp7960
g23
I00
S'\x06l\x11>'
p7961
tp7962
bag14
(g15
(I0
tp7963
g17
tp7964
Rp7965
(I1
(I1
tp7966
g23
I00
S'W\x97P='
p7967
tp7968
bag14
(g15
(I0
tp7969
g17
tp7970
Rp7971
(I1
(I1
tp7972
g23
I00
S':\xc5"='
p7973
tp7974
bag14
(g15
(I0
tp7975
g17
tp7976
Rp7977
(I1
(I1
tp7978
g23
I00
S'\x08}M='
p7979
tp7980
bag14
(g15
(I0
tp7981
g17
tp7982
Rp7983
(I1
(I1
tp7984
g23
I00
S'd\xf8p<'
p7985
tp7986
bag14
(g15
(I0
tp7987
g17
tp7988
Rp7989
(I1
(I1
tp7990
g23
I00
S'\xecU"='
p7991
tp7992
bag14
(g15
(I0
tp7993
g17
tp7994
Rp7995
(I1
(I1
tp7996
g23
I00
S'\xaf\x00U='
p7997
tp7998
bag14
(g15
(I0
tp7999
g17
tp8000
Rp8001
(I1
(I1
tp8002
g23
I00
S'\xad\xa8\xcc<'
p8003
tp8004
bag14
(g15
(I0
tp8005
g17
tp8006
Rp8007
(I1
(I1
tp8008
g23
I00
S'<B\xd2<'
p8009
tp8010
bag14
(g15
(I0
tp8011
g17
tp8012
Rp8013
(I1
(I1
tp8014
g23
I00
S'\x83{5<'
p8015
tp8016
bag14
(g15
(I0
tp8017
g17
tp8018
Rp8019
(I1
(I1
tp8020
g23
I00
S'\xc5\xe0\x19='
p8021
tp8022
bag14
(g15
(I0
tp8023
g17
tp8024
Rp8025
(I1
(I1
tp8026
g23
I00
S'M$Y='
p8027
tp8028
bag14
(g15
(I0
tp8029
g17
tp8030
Rp8031
(I1
(I1
tp8032
g23
I00
S',\x97\xbf<'
p8033
tp8034
bag14
(g15
(I0
tp8035
g17
tp8036
Rp8037
(I1
(I1
tp8038
g23
I00
S'i\xc2\xa9='
p8039
tp8040
bag14
(g15
(I0
tp8041
g17
tp8042
Rp8043
(I1
(I1
tp8044
g23
I00
S'\xaeC=='
p8045
tp8046
bag14
(g15
(I0
tp8047
g17
tp8048
Rp8049
(I1
(I1
tp8050
g23
I00
S'A\xb6\xec<'
p8051
tp8052
bag14
(g15
(I0
tp8053
g17
tp8054
Rp8055
(I1
(I1
tp8056
g23
I00
S'S<\t='
p8057
tp8058
bag14
(g15
(I0
tp8059
g17
tp8060
Rp8061
(I1
(I1
tp8062
g23
I00
S'\xcf\xca%='
p8063
tp8064
bag14
(g15
(I0
tp8065
g17
tp8066
Rp8067
(I1
(I1
tp8068
g23
I00
S'\xe2\xd5\x90='
p8069
tp8070
bag14
(g15
(I0
tp8071
g17
tp8072
Rp8073
(I1
(I1
tp8074
g23
I00
S'A\xc3\xe1<'
p8075
tp8076
baasg2
(g6
S'\x14\x00\x00\x00\x00\x00\x00\x00'
p8077
tp8078
Rp8079
(lp8080
(lp8081
g14
(g15
(I0
tp8082
g17
tp8083
Rp8084
(I1
(I1
tp8085
g23
I00
S'V\xe8\xad<'
p8086
tp8087
bag14
(g15
(I0
tp8088
g17
tp8089
Rp8090
(I1
(I1
tp8091
g23
I00
S'\x1c\x92\x00='
p8092
tp8093
bag14
(g15
(I0
tp8094
g17
tp8095
Rp8096
(I1
(I1
tp8097
g23
I00
S'\xe0\x19\x08>'
p8098
tp8099
bag14
(g15
(I0
tp8100
g17
tp8101
Rp8102
(I1
(I1
tp8103
g23
I00
S'\x8a|\x0b>'
p8104
tp8105
bag14
(g15
(I0
tp8106
g17
tp8107
Rp8108
(I1
(I1
tp8109
g23
I00
S'5I)='
p8110
tp8111
bag14
(g15
(I0
tp8112
g17
tp8113
Rp8114
(I1
(I1
tp8115
g23
I00
S'\x9bq\x1f='
p8116
tp8117
bag14
(g15
(I0
tp8118
g17
tp8119
Rp8120
(I1
(I1
tp8121
g23
I00
S'\xa9\x94&='
p8122
tp8123
bag14
(g15
(I0
tp8124
g17
tp8125
Rp8126
(I1
(I1
tp8127
g23
I00
S'\x9d\xed&='
p8128
tp8129
bag14
(g15
(I0
tp8130
g17
tp8131
Rp8132
(I1
(I1
tp8133
g23
I00
S'\xee\x8b\x18='
p8134
tp8135
bag14
(g15
(I0
tp8136
g17
tp8137
Rp8138
(I1
(I1
tp8139
g23
I00
S'\xa0\xed\xc9<'
p8140
tp8141
bag14
(g15
(I0
tp8142
g17
tp8143
Rp8144
(I1
(I1
tp8145
g23
I00
S'\xe3\xca\x13='
p8146
tp8147
bag14
(g15
(I0
tp8148
g17
tp8149
Rp8150
(I1
(I1
tp8151
g23
I00
S'\xa1\xa0y<'
p8152
tp8153
bag14
(g15
(I0
tp8154
g17
tp8155
Rp8156
(I1
(I1
tp8157
g23
I00
S'\xee\x115='
p8158
tp8159
bag14
(g15
(I0
tp8160
g17
tp8161
Rp8162
(I1
(I1
tp8163
g23
I00
S'\xcf\xb0%='
p8164
tp8165
bag14
(g15
(I0
tp8166
g17
tp8167
Rp8168
(I1
(I1
tp8169
g23
I00
S'\xe2(\xc0<'
p8170
tp8171
bag14
(g15
(I0
tp8172
g17
tp8173
Rp8174
(I1
(I1
tp8175
g23
I00
S'\xf4\xd0\x06='
p8176
tp8177
bag14
(g15
(I0
tp8178
g17
tp8179
Rp8180
(I1
(I1
tp8181
g23
I00
S'^w0='
p8182
tp8183
bag14
(g15
(I0
tp8184
g17
tp8185
Rp8186
(I1
(I1
tp8187
g23
I00
S'A\xed\x0c='
p8188
tp8189
bag14
(g15
(I0
tp8190
g17
tp8191
Rp8192
(I1
(I1
tp8193
g23
I00
S'\xb2p;='
p8194
tp8195
bag14
(g15
(I0
tp8196
g17
tp8197
Rp8198
(I1
(I1
tp8199
g23
I00
S'\xa3\xa2Z='
p8200
tp8201
bag14
(g15
(I0
tp8202
g17
tp8203
Rp8204
(I1
(I1
tp8205
g23
I00
S'\xa7M#='
p8206
tp8207
bag14
(g15
(I0
tp8208
g17
tp8209
Rp8210
(I1
(I1
tp8211
g23
I00
S'f\xbf;='
p8212
tp8213
baa(lp8214
g14
(g15
(I0
tp8215
g17
tp8216
Rp8217
(I1
(I1
tp8218
g23
I00
S'\x10\xcd\x18<'
p8219
tp8220
bag14
(g15
(I0
tp8221
g17
tp8222
Rp8223
(I1
(I1
tp8224
g23
I00
S'\xd3H\x91<'
p8225
tp8226
bag14
(g15
(I0
tp8227
g17
tp8228
Rp8229
(I1
(I1
tp8230
g23
I00
S' \n\x86>'
p8231
tp8232
bag14
(g15
(I0
tp8233
g17
tp8234
Rp8235
(I1
(I1
tp8236
g23
I00
S'\xbd>\x87>'
p8237
tp8238
bag14
(g15
(I0
tp8239
g17
tp8240
Rp8241
(I1
(I1
tp8242
g23
I00
S'\xeao\xe7<'
p8243
tp8244
bag14
(g15
(I0
tp8245
g17
tp8246
Rp8247
(I1
(I1
tp8248
g23
I00
S'\xcc\xdf\xbe<'
p8249
tp8250
bag14
(g15
(I0
tp8251
g17
tp8252
Rp8253
(I1
(I1
tp8254
g23
I00
S'\x8d\x10\xe7<'
p8255
tp8256
bag14
(g15
(I0
tp8257
g17
tp8258
Rp8259
(I1
(I1
tp8260
g23
I00
S'\x8c#\xe2<'
p8261
tp8262
bag14
(g15
(I0
tp8263
g17
tp8264
Rp8265
(I1
(I1
tp8266
g23
I00
S'\xf0\xee\xbd<'
p8267
tp8268
bag14
(g15
(I0
tp8269
g17
tp8270
Rp8271
(I1
(I1
tp8272
g23
I00
S'L<\x1b<'
p8273
tp8274
bag14
(g15
(I0
tp8275
g17
tp8276
Rp8277
(I1
(I1
tp8278
g23
I00
S'!W\xaf<'
p8279
tp8280
bag14
(g15
(I0
tp8281
g17
tp8282
Rp8283
(I1
(I1
tp8284
g23
I00
S'\x05:\xaa;'
p8285
tp8286
bag14
(g15
(I0
tp8287
g17
tp8288
Rp8289
(I1
(I1
tp8290
g23
I00
S'\x86\xda\x10='
p8291
tp8292
bag14
(g15
(I0
tp8293
g17
tp8294
Rp8295
(I1
(I1
tp8296
g23
I00
S'\r\xa3\xc4<'
p8297
tp8298
bag14
(g15
(I0
tp8299
g17
tp8300
Rp8301
(I1
(I1
tp8302
g23
I00
S'\xee\xb4\x11<'
p8303
tp8304
bag14
(g15
(I0
tp8305
g17
tp8306
Rp8307
(I1
(I1
tp8308
g23
I00
S'\x1e,\x96<'
p8309
tp8310
bag14
(g15
(I0
tp8311
g17
tp8312
Rp8313
(I1
(I1
tp8314
g23
I00
S'\x1f1\x01='
p8315
tp8316
bag14
(g15
(I0
tp8317
g17
tp8318
Rp8319
(I1
(I1
tp8320
g23
I00
S'\xd0/\xba<'
p8321
tp8322
bag14
(g15
(I0
tp8323
g17
tp8324
Rp8325
(I1
(I1
tp8326
g23
I00
S'\xdf\xb2\xfb<'
p8327
tp8328
bag14
(g15
(I0
tp8329
g17
tp8330
Rp8331
(I1
(I1
tp8332
g23
I00
S'\xc2\x84D='
p8333
tp8334
bag14
(g15
(I0
tp8335
g17
tp8336
Rp8337
(I1
(I1
tp8338
g23
I00
S'q\x95\xd3<'
p8339
tp8340
bag14
(g15
(I0
tp8341
g17
tp8342
Rp8343
(I1
(I1
tp8344
g23
I00
S'\xd5D\x0f='
p8345
tp8346
baa(lp8347
g14
(g15
(I0
tp8348
g17
tp8349
Rp8350
(I1
(I1
tp8351
g23
I00
S'\x91\x8d\xab;'
p8352
tp8353
bag14
(g15
(I0
tp8354
g17
tp8355
Rp8356
(I1
(I1
tp8357
g23
I00
S'=n\xe8<'
p8358
tp8359
bag14
(g15
(I0
tp8360
g17
tp8361
Rp8362
(I1
(I1
tp8363
g23
I00
S'3Z\xd0>'
p8364
tp8365
bag14
(g15
(I0
tp8366
g17
tp8367
Rp8368
(I1
(I1
tp8369
g23
I00
S'b\xbcR>'
p8370
tp8371
bag14
(g15
(I0
tp8372
g17
tp8373
Rp8374
(I1
(I1
tp8375
g23
I00
S'\xdb\t\xb5<'
p8376
tp8377
bag14
(g15
(I0
tp8378
g17
tp8379
Rp8380
(I1
(I1
tp8381
g23
I00
S'\x1fWz<'
p8382
tp8383
bag14
(g15
(I0
tp8384
g17
tp8385
Rp8386
(I1
(I1
tp8387
g23
I00
S'h\x01d<'
p8388
tp8389
bag14
(g15
(I0
tp8390
g17
tp8391
Rp8392
(I1
(I1
tp8393
g23
I00
S'\xab\xb2\x9a<'
p8394
tp8395
bag14
(g15
(I0
tp8396
g17
tp8397
Rp8398
(I1
(I1
tp8399
g23
I00
S'\xcb]\xc9<'
p8400
tp8401
bag14
(g15
(I0
tp8402
g17
tp8403
Rp8404
(I1
(I1
tp8405
g23
I00
S'\xee\xb0\x95;'
p8406
tp8407
bag14
(g15
(I0
tp8408
g17
tp8409
Rp8410
(I1
(I1
tp8411
g23
I00
S'\xc8\x16D<'
p8412
tp8413
bag14
(g15
(I0
tp8414
g17
tp8415
Rp8416
(I1
(I1
tp8417
g23
I00
S'g\xb9P;'
p8418
tp8419
bag14
(g15
(I0
tp8420
g17
tp8421
Rp8422
(I1
(I1
tp8423
g23
I00
S'\xc6\x92\x14='
p8424
tp8425
bag14
(g15
(I0
tp8426
g17
tp8427
Rp8428
(I1
(I1
tp8429
g23
I00
S'\x071E<'
p8430
tp8431
bag14
(g15
(I0
tp8432
g17
tp8433
Rp8434
(I1
(I1
tp8435
g23
I00
S'\tN\x95;'
p8436
tp8437
bag14
(g15
(I0
tp8438
g17
tp8439
Rp8440
(I1
(I1
tp8441
g23
I00
S'n\xb9\x95<'
p8442
tp8443
bag14
(g15
(I0
tp8444
g17
tp8445
Rp8446
(I1
(I1
tp8447
g23
I00
S'\xab?\x01='
p8448
tp8449
bag14
(g15
(I0
tp8450
g17
tp8451
Rp8452
(I1
(I1
tp8453
g23
I00
S'\xecO\xb0<'
p8454
tp8455
bag14
(g15
(I0
tp8456
g17
tp8457
Rp8458
(I1
(I1
tp8459
g23
I00
S'\x04\xc2x<'
p8460
tp8461
bag14
(g15
(I0
tp8462
g17
tp8463
Rp8464
(I1
(I1
tp8465
g23
I00
S'n\xca;='
p8466
tp8467
bag14
(g15
(I0
tp8468
g17
tp8469
Rp8470
(I1
(I1
tp8471
g23
I00
S'\x81W\xdb<'
p8472
tp8473
bag14
(g15
(I0
tp8474
g17
tp8475
Rp8476
(I1
(I1
tp8477
g23
I00
S'"k\xde<'
p8478
tp8479
baasg2
(g6
S'\x15\x00\x00\x00\x00\x00\x00\x00'
p8480
tp8481
Rp8482
(lp8483
(lp8484
g14
(g15
(I0
tp8485
g17
tp8486
Rp8487
(I1
(I1
tp8488
g23
I00
S'\xe5\xaa\xcb<'
p8489
tp8490
bag14
(g15
(I0
tp8491
g17
tp8492
Rp8493
(I1
(I1
tp8494
g23
I00
S'\x13Y\x0b='
p8495
tp8496
bag14
(g15
(I0
tp8497
g17
tp8498
Rp8499
(I1
(I1
tp8500
g23
I00
S'\x1c\x0f\x80='
p8501
tp8502
bag14
(g15
(I0
tp8503
g17
tp8504
Rp8505
(I1
(I1
tp8506
g23
I00
S'\xe9\xf1G='
p8507
tp8508
bag14
(g15
(I0
tp8509
g17
tp8510
Rp8511
(I1
(I1
tp8512
g23
I00
S'O\xa9\x14='
p8513
tp8514
bag14
(g15
(I0
tp8515
g17
tp8516
Rp8517
(I1
(I1
tp8518
g23
I00
S'\x07\xe8\xbd<'
p8519
tp8520
bag14
(g15
(I0
tp8521
g17
tp8522
Rp8523
(I1
(I1
tp8524
g23
I00
S'IX\xe8<'
p8525
tp8526
bag14
(g15
(I0
tp8527
g17
tp8528
Rp8529
(I1
(I1
tp8530
g23
I00
S'lc\x00='
p8531
tp8532
bag14
(g15
(I0
tp8533
g17
tp8534
Rp8535
(I1
(I1
tp8536
g23
I00
S'\x9f\x828='
p8537
tp8538
bag14
(g15
(I0
tp8539
g17
tp8540
Rp8541
(I1
(I1
tp8542
g23
I00
S'\x05\x0c\xce<'
p8543
tp8544
bag14
(g15
(I0
tp8545
g17
tp8546
Rp8547
(I1
(I1
tp8548
g23
I00
S'tk\xb1<'
p8549
tp8550
bag14
(g15
(I0
tp8551
g17
tp8552
Rp8553
(I1
(I1
tp8554
g23
I00
S'\t\x14\xf0<'
p8555
tp8556
bag14
(g15
(I0
tp8557
g17
tp8558
Rp8559
(I1
(I1
tp8560
g23
I00
S'D%0>'
p8561
tp8562
bag14
(g15
(I0
tp8563
g17
tp8564
Rp8565
(I1
(I1
tp8566
g23
I00
S'\x9c\x18\x93<'
p8567
tp8568
bag14
(g15
(I0
tp8569
g17
tp8570
Rp8571
(I1
(I1
tp8572
g23
I00
S'\x03\x0fz<'
p8573
tp8574
bag14
(g15
(I0
tp8575
g17
tp8576
Rp8577
(I1
(I1
tp8578
g23
I00
S'\xa7\xa3b='
p8579
tp8580
bag14
(g15
(I0
tp8581
g17
tp8582
Rp8583
(I1
(I1
tp8584
g23
I00
S'\xb0\xb4\x18>'
p8585
tp8586
bag14
(g15
(I0
tp8587
g17
tp8588
Rp8589
(I1
(I1
tp8590
g23
I00
S'Fm!='
p8591
tp8592
bag14
(g15
(I0
tp8593
g17
tp8594
Rp8595
(I1
(I1
tp8596
g23
I00
S'\xa8\xd8\n='
p8597
tp8598
bag14
(g15
(I0
tp8599
g17
tp8600
Rp8601
(I1
(I1
tp8602
g23
I00
S'W8C='
p8603
tp8604
bag14
(g15
(I0
tp8605
g17
tp8606
Rp8607
(I1
(I1
tp8608
g23
I00
S'\xf0\xa6\x06='
p8609
tp8610
bag14
(g15
(I0
tp8611
g17
tp8612
Rp8613
(I1
(I1
tp8614
g23
I00
S'\xa7\x16\xd4<'
p8615
tp8616
baa(lp8617
g14
(g15
(I0
tp8618
g17
tp8619
Rp8620
(I1
(I1
tp8621
g23
I00
S'\xd3\x13\x07<'
p8622
tp8623
bag14
(g15
(I0
tp8624
g17
tp8625
Rp8626
(I1
(I1
tp8627
g23
I00
S'\x1f\x14\x87<'
p8628
tp8629
bag14
(g15
(I0
tp8630
g17
tp8631
Rp8632
(I1
(I1
tp8633
g23
I00
S'fG;='
p8634
tp8635
bag14
(g15
(I0
tp8636
g17
tp8637
Rp8638
(I1
(I1
tp8639
g23
I00
S'\xf9\xe5\xec<'
p8640
tp8641
bag14
(g15
(I0
tp8642
g17
tp8643
Rp8644
(I1
(I1
tp8645
g23
I00
S'S\x9b\x8c<'
p8646
tp8647
bag14
(g15
(I0
tp8648
g17
tp8649
Rp8650
(I1
(I1
tp8651
g23
I00
S'&3\xd7;'
p8652
tp8653
bag14
(g15
(I0
tp8654
g17
tp8655
Rp8656
(I1
(I1
tp8657
g23
I00
S'\x02\x18C<'
p8658
tp8659
bag14
(g15
(I0
tp8660
g17
tp8661
Rp8662
(I1
(I1
tp8663
g23
I00
S'|\xe8U<'
p8664
tp8665
bag14
(g15
(I0
tp8666
g17
tp8667
Rp8668
(I1
(I1
tp8669
g23
I00
S'\x14=\xc6<'
p8670
tp8671
bag14
(g15
(I0
tp8672
g17
tp8673
Rp8674
(I1
(I1
tp8675
g23
I00
S'[O\xe0;'
p8676
tp8677
bag14
(g15
(I0
tp8678
g17
tp8679
Rp8680
(I1
(I1
tp8681
g23
I00
S'\x14\xfe\xc4;'
p8682
tp8683
bag14
(g15
(I0
tp8684
g17
tp8685
Rp8686
(I1
(I1
tp8687
g23
I00
S'\x84\xd1\\<'
p8688
tp8689
bag14
(g15
(I0
tp8690
g17
tp8691
Rp8692
(I1
(I1
tp8693
g23
I00
S'\xf1;\xc5>'
p8694
tp8695
bag14
(g15
(I0
tp8696
g17
tp8697
Rp8698
(I1
(I1
tp8699
g23
I00
S'c\xb4[;'
p8700
tp8701
bag14
(g15
(I0
tp8702
g17
tp8703
Rp8704
(I1
(I1
tp8705
g23
I00
S'\x8b\x1c>;'
p8706
tp8707
bag14
(g15
(I0
tp8708
g17
tp8709
Rp8710
(I1
(I1
tp8711
g23
I00
S'2\xa1\x0e='
p8712
tp8713
bag14
(g15
(I0
tp8714
g17
tp8715
Rp8716
(I1
(I1
tp8717
g23
I00
S'\xbc\xdc\x93>'
p8718
tp8719
bag14
(g15
(I0
tp8720
g17
tp8721
Rp8722
(I1
(I1
tp8723
g23
I00
S'\xe2~\xb3<'
p8724
tp8725
bag14
(g15
(I0
tp8726
g17
tp8727
Rp8728
(I1
(I1
tp8729
g23
I00
S'\xe2\xbeS<'
p8730
tp8731
bag14
(g15
(I0
tp8732
g17
tp8733
Rp8734
(I1
(I1
tp8735
g23
I00
S'\x9b\x9d\xed<'
p8736
tp8737
bag14
(g15
(I0
tp8738
g17
tp8739
Rp8740
(I1
(I1
tp8741
g23
I00
S'c\xbcY<'
p8742
tp8743
bag14
(g15
(I0
tp8744
g17
tp8745
Rp8746
(I1
(I1
tp8747
g23
I00
S'8T\x16<'
p8748
tp8749
baa(lp8750
g14
(g15
(I0
tp8751
g17
tp8752
Rp8753
(I1
(I1
tp8754
g23
I00
S'\xf3\xf3z;'
p8755
tp8756
bag14
(g15
(I0
tp8757
g17
tp8758
Rp8759
(I1
(I1
tp8760
g23
I00
S"\xc4'\x00="
p8761
tp8762
bag14
(g15
(I0
tp8763
g17
tp8764
Rp8765
(I1
(I1
tp8766
g23
I00
S'\x93\xe6\xbf='
p8767
tp8768
bag14
(g15
(I0
tp8769
g17
tp8770
Rp8771
(I1
(I1
tp8772
g23
I00
S'\xfaj\x03='
p8773
tp8774
bag14
(g15
(I0
tp8775
g17
tp8776
Rp8777
(I1
(I1
tp8778
g23
I00
S'4\x89\x85<'
p8779
tp8780
bag14
(g15
(I0
tp8781
g17
tp8782
Rp8783
(I1
(I1
tp8784
g23
I00
S'\x03\x0b\xbb;'
p8785
tp8786
bag14
(g15
(I0
tp8787
g17
tp8788
Rp8789
(I1
(I1
tp8790
g23
I00
S'\x129\x14<'
p8791
tp8792
bag14
(g15
(I0
tp8793
g17
tp8794
Rp8795
(I1
(I1
tp8796
g23
I00
S'\xa2"5<'
p8797
tp8798
bag14
(g15
(I0
tp8799
g17
tp8800
Rp8801
(I1
(I1
tp8802
g23
I00
S'\xfe7\xcc<'
p8803
tp8804
bag14
(g15
(I0
tp8805
g17
tp8806
Rp8807
(I1
(I1
tp8808
g23
I00
S'g|M;'
p8809
tp8810
bag14
(g15
(I0
tp8811
g17
tp8812
Rp8813
(I1
(I1
tp8814
g23
I00
S'\xf2!\x84;'
p8815
tp8816
bag14
(g15
(I0
tp8817
g17
tp8818
Rp8819
(I1
(I1
tp8820
g23
I00
S'&\xa5\x03<'
p8821
tp8822
bag14
(g15
(I0
tp8823
g17
tp8824
Rp8825
(I1
(I1
tp8826
g23
I00
S'AQ\xaf>'
p8827
tp8828
bag14
(g15
(I0
tp8829
g17
tp8830
Rp8831
(I1
(I1
tp8832
g23
I00
S'\xcb\r\xeb:'
p8833
tp8834
bag14
(g15
(I0
tp8835
g17
tp8836
Rp8837
(I1
(I1
tp8838
g23
I00
S'V\xcd\xec:'
p8839
tp8840
bag14
(g15
(I0
tp8841
g17
tp8842
Rp8843
(I1
(I1
tp8844
g23
I00
S'*&\xf5<'
p8845
tp8846
bag14
(g15
(I0
tp8847
g17
tp8848
Rp8849
(I1
(I1
tp8850
g23
I00
S'\xb6/\x97>'
p8851
tp8852
bag14
(g15
(I0
tp8853
g17
tp8854
Rp8855
(I1
(I1
tp8856
g23
I00
S'{\x80\xa9<'
p8857
tp8858
bag14
(g15
(I0
tp8859
g17
tp8860
Rp8861
(I1
(I1
tp8862
g23
I00
S'(E\xec;'
p8863
tp8864
bag14
(g15
(I0
tp8865
g17
tp8866
Rp8867
(I1
(I1
tp8868
g23
I00
S'\x82C\x05='
p8869
tp8870
bag14
(g15
(I0
tp8871
g17
tp8872
Rp8873
(I1
(I1
tp8874
g23
I00
S'\x00\xdc\x81<'
p8875
tp8876
bag14
(g15
(I0
tp8877
g17
tp8878
Rp8879
(I1
(I1
tp8880
g23
I00
S'c\xfa\x18<'
p8881
tp8882
baasa(dp8883
g2
(g6
S'\x00\x00\x00\x00\x00\x00\x00\x00'
p8884
tp8885
Rp8886
(lp8887
g14
(g15
(I0
tp8888
g17
tp8889
Rp8890
(I1
(I1
tp8891
g23
I00
S'\x00\x00\x80?'
p8892
tp8893
bag14
(g15
(I0
tp8894
g17
tp8895
Rp8896
(I1
(I2
tp8897
g23
I00
S'R\xc3\xec>W\x9e\t?'
p8898
tp8899
bag14
(g15
(I0
tp8900
g17
tp8901
Rp8902
(I1
(I3
tp8903
g23
I00
S'z\xfd\x99>(\xf7\xaf>_\x0b\xb6>'
p8904
tp8905
basg2
(g6
S'\x01\x00\x00\x00\x00\x00\x00\x00'
p8906
tp8907
Rp8908
(lp8909
g14
(g15
(I0
tp8910
g17
tp8911
Rp8912
(I1
(I1
tp8913
g23
I00
S'\x00\x00\x80?'
p8914
tp8915
bag14
(g15
(I0
tp8916
g17
tp8917
Rp8918
(I1
(I2
tp8919
g23
I00
S'?\x0c\xf5>\xe0y\x05?'
p8920
tp8921
bag14
(g15
(I0
tp8922
g17
tp8923
Rp8924
(I1
(I3
tp8925
g23
I00
S'1\x97\x9f>OR\xac>~\x16\xb4>'
p8926
tp8927
basg2
(g6
S'\x02\x00\x00\x00\x00\x00\x00\x00'
p8928
tp8929
Rp8930
(lp8931
g14
(g15
(I0
tp8932
g17
tp8933
Rp8934
(I1
(I1
tp8935
g23
I00
S'\x00\x00\x80?'
p8936
tp8937
bag14
(g15
(I0
tp8938
g17
tp8939
Rp8940
(I1
(I2
tp8941
g23
I00
S'\xd0{\xf1>\x17B\x07?'
p8942
tp8943
bag14
(g15
(I0
tp8944
g17
tp8945
Rp8946
(I1
(I3
tp8947
g23
I00
S'\xcf`\x9d>\xc3$\xae>oz\xb4>'
p8948
tp8949
basg2
(g6
S'\x03\x00\x00\x00\x00\x00\x00\x00'
p8950
tp8951
Rp8952
(lp8953
g14
(g15
(I0
tp8954
g17
tp8955
Rp8956
(I1
(I1
tp8957
g23
I00
S'\x00\x00\x80?'
p8958
tp8959
bag14
(g15
(I0
tp8960
g17
tp8961
Rp8962
(I1
(I2
tp8963
g23
I00
S'~\x13\xf4>A\xf6\x05?'
p8964
tp8965
bag14
(g15
(I0
tp8966
g17
tp8967
Rp8968
(I1
(I3
tp8969
g23
I00
S'\x18\xfb\x9a>\x90#\xac>Y\xe1\xb8>'
p8970
tp8971
basg2
(g6
S'\x04\x00\x00\x00\x00\x00\x00\x00'
p8972
tp8973
Rp8974
(lp8975
g14
(g15
(I0
tp8976
g17
tp8977
Rp8978
(I1
(I1
tp8979
g23
I00
S'\x00\x00\x80?'
p8980
tp8981
bag14
(g15
(I0
tp8982
g17
tp8983
Rp8984
(I1
(I2
tp8985
g23
I00
S'u\x07\xfb>F|\x02?'
p8986
tp8987
bag14
(g15
(I0
tp8988
g17
tp8989
Rp8990
(I1
(I3
tp8991
g23
I00
S'^A\xa3>U\x82\xa9>M<\xb3>'
p8992
tp8993
basg2
(g6
S'\x05\x00\x00\x00\x00\x00\x00\x00'
p8994
tp8995
Rp8996
(lp8997
g14
(g15
(I0
tp8998
g17
tp8999
Rp9000
(I1
(I1
tp9001
g23
I00
S'\x00\x00\x80?'
p9002
tp9003
bag14
(g15
(I0
tp9004
g17
tp9005
Rp9006
(I1
(I2
tp9007
g23
I00
S'\xa5&\xf4>\xad\xec\x05?'
p9008
tp9009
bag14
(g15
(I0
tp9010
g17
tp9011
Rp9012
(I1
(I3
tp9013
g23
I00
S'%$\x9a>\xf2\xbe\xab>\xe7\x1c\xba>'
p9014
tp9015
basg2
(g6
S'\x06\x00\x00\x00\x00\x00\x00\x00'
p9016
tp9017
Rp9018
(lp9019
g14
(g15
(I0
tp9020
g17
tp9021
Rp9022
(I1
(I1
tp9023
g23
I00
S'\x00\x00\x80?'
p9024
tp9025
bag14
(g15
(I0
tp9026
g17
tp9027
Rp9028
(I1
(I2
tp9029
g23
I00
S'\x01"\xfc>\xff\xee\x01?'
p9030
tp9031
bag14
(g15
(I0
tp9032
g17
tp9033
Rp9034
(I1
(I3
tp9035
g23
I00
S'\x839\xa5>\xe9=\xa9>\x95\x88\xb1>'
p9036
tp9037
basg2
(g6
S'\x07\x00\x00\x00\x00\x00\x00\x00'
p9038
tp9039
Rp9040
(lp9041
g14
(g15
(I0
tp9042
g17
tp9043
Rp9044
(I1
(I1
tp9045
g23
I00
S'\x00\x00\x80?'
p9046
tp9047
bag14
(g15
(I0
tp9048
g17
tp9049
Rp9050
(I1
(I2
tp9051
g23
I00
S'\xeb\x82\xfb>\x8a>\x02?'
p9052
tp9053
bag14
(g15
(I0
tp9054
g17
tp9055
Rp9056
(I1
(I3
tp9057
g23
I00
S'\xb0\xbb\xa2>\xe5Z\xa9>i\xe9\xb3>'
p9058
tp9059
basg2
(g6
S'\x08\x00\x00\x00\x00\x00\x00\x00'
p9060
tp9061
Rp9062
(lp9063
g14
(g15
(I0
tp9064
g17
tp9065
Rp9066
(I1
(I1
tp9067
g23
I00
S'\x00\x00\x80?'
p9068
tp9069
bag14
(g15
(I0
tp9070
g17
tp9071
Rp9072
(I1
(I2
tp9073
g23
I00
S'k\xe5\xfb>J\r\x02?'
p9074
tp9075
bag14
(g15
(I0
tp9076
g17
tp9077
Rp9078
(I1
(I3
tp9079
g23
I00
S'\tM\xa5>\xf8\x88\xa9>\xff)\xb1>'
p9080
tp9081
basg2
(g6
S'\t\x00\x00\x00\x00\x00\x00\x00'
p9082
tp9083
Rp9084
(lp9085
g14
(g15
(I0
tp9086
g17
tp9087
Rp9088
(I1
(I1
tp9089
g23
I00
S'\x00\x00\x80?'
p9090
tp9091
bag14
(g15
(I0
tp9092
g17
tp9093
Rp9094
(I1
(I2
tp9095
g23
I00
S'\xd6K\xef>\x14Z\x08?'
p9096
tp9097
bag14
(g15
(I0
tp9098
g17
tp9099
Rp9100
(I1
(I3
tp9101
g23
I00
S'\x80\xb8\x9c>%H\xaf>\\\xff\xb3>'
p9102
tp9103
basg2
(g6
S'\n\x00\x00\x00\x00\x00\x00\x00'
p9104
tp9105
Rp9106
(lp9107
g14
(g15
(I0
tp9108
g17
tp9109
Rp9110
(I1
(I1
tp9111
g23
I00
S'\x00\x00\x80?'
p9112
tp9113
bag14
(g15
(I0
tp9114
g17
tp9115
Rp9116
(I1
(I2
tp9117
g23
I00
S'?\xca\xf0>\xe0\x9a\x07?'
p9118
tp9119
bag14
(g15
(I0
tp9120
g17
tp9121
Rp9122
(I1
(I3
tp9123
g23
I00
S'\xa6s\x99>\xedc\xad>n(\xb9>'
p9124
tp9125
basg2
(g6
S'\x0b\x00\x00\x00\x00\x00\x00\x00'
p9126
tp9127
Rp9128
(lp9129
g14
(g15
(I0
tp9130
g17
tp9131
Rp9132
(I1
(I1
tp9133
g23
I00
S'\x00\x00\x80?'
p9134
tp9135
bag14
(g15
(I0
tp9136
g17
tp9137
Rp9138
(I1
(I2
tp9139
g23
I00
S'p\xc8\xef>\xc8\x1b\x08?'
p9140
tp9141
bag14
(g15
(I0
tp9142
g17
tp9143
Rp9144
(I1
(I3
tp9145
g23
I00
S'qx\x97>\xe9}\xad>\xa7\t\xbb>'
p9146
tp9147
basg2
(g6
S'\x0c\x00\x00\x00\x00\x00\x00\x00'
p9148
tp9149
Rp9150
(lp9151
g14
(g15
(I0
tp9152
g17
tp9153
Rp9154
(I1
(I1
tp9155
g23
I00
S'\x00\x00\x80?'
p9156
tp9157
bag14
(g15
(I0
tp9158
g17
tp9159
Rp9160
(I1
(I2
tp9161
g23
I00
S'\x10\x97\xf2>w\xb4\x06?'
p9162
tp9163
bag14
(g15
(I0
tp9164
g17
tp9165
Rp9166
(I1
(I3
tp9167
g23
I00
S'\xaa\xed\x9b>\xf1\xc6\xac>eK\xb7>'
p9168
tp9169
basg2
(g6
S'\r\x00\x00\x00\x00\x00\x00\x00'
p9170
tp9171
Rp9172
(lp9173
g14
(g15
(I0
tp9174
g17
tp9175
Rp9176
(I1
(I1
tp9177
g23
I00
S'\x00\x00\x80?'
p9178
tp9179
bag14
(g15
(I0
tp9180
g17
tp9181
Rp9182
(I1
(I2
tp9183
g23
I00
S'_\xc1\xf3>P\x1f\x06?'
p9184
tp9185
bag14
(g15
(I0
tp9186
g17
tp9187
Rp9188
(I1
(I3
tp9189
g23
I00
S'\xcb:\xa1>\x10\x8d\xad>&8\xb1>'
p9190
tp9191
basg2
(g6
S'\x0e\x00\x00\x00\x00\x00\x00\x00'
p9192
tp9193
Rp9194
(lp9195
g14
(g15
(I0
tp9196
g17
tp9197
Rp9198
(I1
(I1
tp9199
g23
I00
S'\x00\x00\x80?'
p9200
tp9201
bag14
(g15
(I0
tp9202
g17
tp9203
Rp9204
(I1
(I2
tp9205
g23
I00
S'\xcfU\xef>\x18U\x08?'
p9206
tp9207
bag14
(g15
(I0
tp9208
g17
tp9209
Rp9210
(I1
(I3
tp9211
g23
I00
S'Q)\x9c>\xa5\x1c\xaf>\t\xba\xb4>'
p9212
tp9213
basg2
(g6
S'\x0f\x00\x00\x00\x00\x00\x00\x00'
p9214
tp9215
Rp9216
(lp9217
g14
(g15
(I0
tp9218
g17
tp9219
Rp9220
(I1
(I1
tp9221
g23
I00
S'\x00\x00\x80?'
p9222
tp9223
bag14
(g15
(I0
tp9224
g17
tp9225
Rp9226
(I1
(I2
tp9227
g23
I00
S'\xbeC\xfc>!\xde\x01?'
p9228
tp9229
bag14
(g15
(I0
tp9230
g17
tp9231
Rp9232
(I1
(I3
tp9233
g23
I00
S'\xd4,\xa5>{M\xa9>\xb1\x85\xb1>'
p9234
tp9235
basg2
(g6
S'\x10\x00\x00\x00\x00\x00\x00\x00'
p9236
tp9237
Rp9238
(lp9239
g14
(g15
(I0
tp9240
g17
tp9241
Rp9242
(I1
(I1
tp9243
g23
I00
S'\x00\x00\x80?'
p9244
tp9245
bag14
(g15
(I0
tp9246
g17
tp9247
Rp9248
(I1
(I2
tp9249
g23
I00
S'\xd4\x89\xf1>\x16;\x07?'
p9250
tp9251
bag14
(g15
(I0
tp9252
g17
tp9253
Rp9254
(I1
(I3
tp9255
g23
I00
S'\xcb\xbc\x9a>\x12C\xad>#\x00\xb8>'
p9256
tp9257
basg2
(g6
S'\x11\x00\x00\x00\x00\x00\x00\x00'
p9258
tp9259
Rp9260
(lp9261
g14
(g15
(I0
tp9262
g17
tp9263
Rp9264
(I1
(I1
tp9265
g23
I00
S'\x00\x00\x80?'
p9266
tp9267
bag14
(g15
(I0
tp9268
g17
tp9269
Rp9270
(I1
(I2
tp9271
g23
I00
S'\xc6s\xfc>\x1d\xc6\x01?'
p9272
tp9273
bag14
(g15
(I0
tp9274
g17
tp9275
Rp9276
(I1
(I3
tp9277
g23
I00
S'\xb0-\xa6>P?\xa9>\x00\x93\xb0>'
p9278
tp9279
basg2
(g6
S'\x12\x00\x00\x00\x00\x00\x00\x00'
p9280
tp9281
Rp9282
(lp9283
g14
(g15
(I0
tp9284
g17
tp9285
Rp9286
(I1
(I1
tp9287
g23
I00
S'\x00\x00\x80?'
p9288
tp9289
bag14
(g15
(I0
tp9290
g17
tp9291
Rp9292
(I1
(I2
tp9293
g23
I00
S'%\xa0\xfb>\xed/\x02?'
p9294
tp9295
bag14
(g15
(I0
tp9296
g17
tp9297
Rp9298
(I1
(I3
tp9299
g23
I00
S'\xac/\xa4>\x83`\xa9>\xd2o\xb2>'
p9300
tp9301
basg2
(g6
S'\x13\x00\x00\x00\x00\x00\x00\x00'
p9302
tp9303
Rp9304
(lp9305
g14
(g15
(I0
tp9306
g17
tp9307
Rp9308
(I1
(I1
tp9309
g23
I00
S'\x00\x00\x80?'
p9310
tp9311
bag14
(g15
(I0
tp9312
g17
tp9313
Rp9314
(I1
(I2
tp9315
g23
I00
S'H\x84\xfb>\xdb=\x02?'
p9316
tp9317
bag14
(g15
(I0
tp9318
g17
tp9319
Rp9320
(I1
(I3
tp9321
g23
I00
S'y\xb5\xa3>LZ\xa9>:\xf0\xb2>'
p9322
tp9323
basg2
(g6
S'\x14\x00\x00\x00\x00\x00\x00\x00'
p9324
tp9325
Rp9326
(lp9327
g14
(g15
(I0
tp9328
g17
tp9329
Rp9330
(I1
(I1
tp9331
g23
I00
S'\x00\x00\x80?'
p9332
tp9333
bag14
(g15
(I0
tp9334
g17
tp9335
Rp9336
(I1
(I2
tp9337
g23
I00
S'\xc2\x8c\xf3>\x9f9\x06?'
p9338
tp9339
bag14
(g15
(I0
tp9340
g17
tp9341
Rp9342
(I1
(I3
tp9343
g23
I00
S'\xe2\xa1\x9b>\xc4\x86\xac>Y\xd7\xb7>'
p9344
tp9345
basg2
(g6
S'\x15\x00\x00\x00\x00\x00\x00\x00'
p9346
tp9347
Rp9348
(lp9349
g14
(g15
(I0
tp9350
g17
tp9351
Rp9352
(I1
(I1
tp9353
g23
I00
S'\x00\x00\x80?'
p9354
tp9355
bag14
(g15
(I0
tp9356
g17
tp9357
Rp9358
(I1
(I2
tp9359
g23
I00
S"G\xb1\xeb>\\'\n?"
p9360
tp9361
bag14
(g15
(I0
tp9362
g17
tp9363
Rp9364
(I1
(I3
tp9365
g23
I00
S'\xdbp\x93>\xe7\xeb\xae>>\xa3\xbd>'
p9366
tp9367
basa.