(dp0
cnumpy.core.multiarray
scalar
p1
(cnumpy
dtype
p2
(S'i8'
p3
I0
I1
tp4
Rp5
(I3
S'<'
p6
NNNI-1
I-1
I0
tp7
bS'\x00\x00\x00\x00\x00\x00\x00\x00'
p8
tp9
Rp10
(lp11
((lp12
g1
(g2
(S'f8'
p13
I0
I1
tp14
Rp15
(I3
S'<'
p16
NNNI-1
I-1
I0
tp17
bS'\x00\x00\x00\x80K\xd6\xc7?'
p18
tp19
Rp20
tp21
a((lp22
I17
acnumpy.core.multiarray
_reconstruct
p23
(cnumpy
ndarray
p24
(I0
tp25
S'b'
p26
tp27
Rp28
(I1
(I1
tp29
g2
(S'f4'
p30
I0
I1
tp31
Rp32
(I3
S'<'
p33
NNNI-1
I-1
I0
tp34
bI00
S'c\xb5]='
p35
tp36
btp37
a((lp38
I18
ag23
(g24
(I0
tp39
g26
tp40
Rp41
(I1
(I1
tp42
g32
I00
S'&Z,='
p43
tp44
btp45
a((lp46
I13
ag23
(g24
(I0
tp47
g26
tp48
Rp49
(I1
(I1
tp50
g32
I00
S'@\x9f\x10='
p51
tp52
btp53
a((lp54
I17
ag23
(g24
(I0
tp55
g26
tp56
Rp57
(I1
(I1
tp58
g32
I00
S'\xf1\x9a\xfe<'
p59
tp60
btp61
a((lp62
I18
ag23
(g24
(I0
tp63
g26
tp64
Rp65
(I1
(I1
tp66
g32
I00
S'\xbca\xeb<'
p67
tp68
btp69
a((lp70
I13
ag23
(g24
(I0
tp71
g26
tp72
Rp73
(I1
(I1
tp74
g32
I00
S'\xb7y\xd7<'
p75
tp76
btp77
a((lp78
I8
ag23
(g24
(I0
tp79
g26
tp80
Rp81
(I1
(I1
tp82
g32
I00
S'o8\xa3<'
p83
tp84
btp85
a((lp86
I3
ag23
(g24
(I0
tp87
g26
tp88
Rp89
(I1
(I1
tp90
g32
I00
S'V5\x97<'
p91
tp92
btp93
a((lp94
I8
ag23
(g24
(I0
tp95
g26
tp96
Rp97
(I1
(I1
tp98
g32
I00
S'G\xce\x93<'
p99
tp100
btp101
a((lp102
I3
ag23
(g24
(I0
tp103
g26
tp104
Rp105
(I1
(I1
tp106
g32
I00
S'\xe2\xf2\x86<'
p107
tp108
btp109
a((lp110
I4
ag23
(g24
(I0
tp111
g26
tp112
Rp113
(I1
(I1
tp114
g32
I00
S'9\xdd\x82<'
p115
tp116
btp117
a((lp118
I2
ag23
(g24
(I0
tp119
g26
tp120
Rp121
(I1
(I1
tp122
g32
I00
S'\x96\xdbx<'
p123
tp124
btp125
a((lp126
I0
ag23
(g24
(I0
tp127
g26
tp128
Rp129
(I1
(I1
tp130
g32
I00
S'\xd8\xddV<'
p131
tp132
btp133
a((lp134
I15
ag23
(g24
(I0
tp135
g26
tp136
Rp137
(I1
(I1
tp138
g32
I00
S'\xef\xcf:<'
p139
tp140
btp141
a((lp142
I4
ag23
(g24
(I0
tp143
g26
tp144
Rp145
(I1
(I1
tp146
g32
I00
S'\xdf\xe5+<'
p147
tp148
btp149
a((lp150
I2
ag23
(g24
(I0
tp151
g26
tp152
Rp153
(I1
(I1
tp154
g32
I00
S'\xf0]$<'
p155
tp156
btp157
asg1
(g5
S'\x01\x00\x00\x00\x00\x00\x00\x00'
p158
tp159
Rp160
(lp161
((lp162
g1
(g15
S'\x00\x00\x00\x00~\xf7\xcf?'
p163
tp164
Rp165
tp166
a((lp167
I13
ag23
(g24
(I0
tp168
g26
tp169
Rp170
(I1
(I1
tp171
g32
I00
S'\x08y\xde='
p172
tp173
btp174
a((lp175
I13
ag23
(g24
(I0
tp176
g26
tp177
Rp178
(I1
(I1
tp179
g32
I00
S'\xed\x0c\x9d='
p180
tp181
btp182
a((lp183
I13
aI13
ag23
(g24
(I0
tp184
g26
tp185
Rp186
(I1
(I1
tp187
g32
I00
S'6\x9d\x05='
p188
tp189
btp190
a((lp191
I17
ag23
(g24
(I0
tp192
g26
tp193
Rp194
(I1
(I1
tp195
g32
I00
S'l\x15\xff<'
p196
tp197
btp198
a((lp199
I9
ag23
(g24
(I0
tp200
g26
tp201
Rp202
(I1
(I1
tp203
g32
I00
S'$\x86\xbc<'
p204
tp205
btp206
a((lp207
I17
ag23
(g24
(I0
tp208
g26
tp209
Rp210
(I1
(I1
tp211
g32
I00
S'\xcc#\xb2<'
p212
tp213
btp214
a((lp215
I19
ag23
(g24
(I0
tp216
g26
tp217
Rp218
(I1
(I1
tp219
g32
I00
S'o\xe1\x9d<'
p220
tp221
btp222
a((lp223
I21
ag23
(g24
(I0
tp224
g26
tp225
Rp226
(I1
(I1
tp227
g32
I00
S'\x98\xa4\x97<'
p228
tp229
btp230
a((lp231
I15
ag23
(g24
(I0
tp232
g26
tp233
Rp234
(I1
(I1
tp235
g32
I00
S'S\xdc\x95<'
p236
tp237
btp238
a((lp239
I10
ag23
(g24
(I0
tp240
g26
tp241
Rp242
(I1
(I1
tp243
g32
I00
S'\xf40y<'
p244
tp245
btp246
a((lp247
I2
ag23
(g24
(I0
tp248
g26
tp249
Rp250
(I1
(I1
tp251
g32
I00
S'\x1d3]<'
p252
tp253
btp254
a((lp255
I17
aI13
ag23
(g24
(I0
tp256
g26
tp257
Rp258
(I1
(I1
tp259
g32
I00
S'\x9a\x04Y<'
p260
tp261
btp262
a((lp263
I18
ag23
(g24
(I0
tp264
g26
tp265
Rp266
(I1
(I1
tp267
g32
I00
S'\xb4d:<'
p268
tp269
btp270
a((lp271
I9
ag23
(g24
(I0
tp272
g26
tp273
Rp274
(I1
(I1
tp275
g32
I00
S'\xad\xbb0<'
p276
tp277
btp278
a((lp279
I16
ag23
(g24
(I0
tp280
g26
tp281
Rp282
(I1
(I1
tp283
g32
I00
S'\xff\xa7)<'
p284
tp285
btp286
a((lp287
I3
ag23
(g24
(I0
tp288
g26
tp289
Rp290
(I1
(I1
tp291
g32
I00
S'6\x88(<'
p292
tp293
btp294
asg1
(g5
S'\x02\x00\x00\x00\x00\x00\x00\x00'
p295
tp296
Rp297
(lp298
((lp299
g1
(g15
S'\x00\x00\x00`\xf7#\xd3?'
p300
tp301
Rp302
tp303
a((lp304
I8
ag23
(g24
(I0
tp305
g26
tp306
Rp307
(I1
(I1
tp308
g32
I00
S'\xd1Y\xec<'
p309
tp310
btp311
a((lp312
I13
ag23
(g24
(I0
tp313
g26
tp314
Rp315
(I1
(I1
tp316
g32
I00
S'\xcez\xe1<'
p317
tp318
btp319
a((lp320
I8
ag23
(g24
(I0
tp321
g26
tp322
Rp323
(I1
(I1
tp324
g32
I00
S'\xe6&\xbf<'
p325
tp326
btp327
a((lp328
I12
ag23
(g24
(I0
tp329
g26
tp330
Rp331
(I1
(I1
tp332
g32
I00
S'\x88\x04\xb2<'
p333
tp334
btp335
a((lp336
I13
ag23
(g24
(I0
tp337
g26
tp338
Rp339
(I1
(I1
tp340
g32
I00
S'I\xe7\xb1<'
p341
tp342
btp343
a((lp344
I7
ag23
(g24
(I0
tp345
g26
tp346
Rp347
(I1
(I1
tp348
g32
I00
S'\x9f\xcb\xb0<'
p349
tp350
btp351
a((lp352
I20
ag23
(g24
(I0
tp353
g26
tp354
Rp355
(I1
(I1
tp356
g32
I00
S'\xf2\xec\x9e<'
p357
tp358
btp359
a((lp360
I1
ag23
(g24
(I0
tp361
g26
tp362
Rp363
(I1
(I1
tp364
g32
I00
S'\x97e\x9d<'
p365
tp366
btp367
a((lp368
I10
ag23
(g24
(I0
tp369
g26
tp370
Rp371
(I1
(I1
tp372
g32
I00
S'\x06\xcd\x97<'
p373
tp374
btp375
a((lp376
I15
ag23
(g24
(I0
tp377
g26
tp378
Rp379
(I1
(I1
tp380
g32
I00
S'\xbe\x8c\x8d<'
p381
tp382
btp383
a((lp384
I2
ag23
(g24
(I0
tp385
g26
tp386
Rp387
(I1
(I1
tp388
g32
I00
S'\xe25w<'
p389
tp390
btp391
a((lp392
I4
ag23
(g24
(I0
tp393
g26
tp394
Rp395
(I1
(I1
tp396
g32
I00
S'u0u<'
p397
tp398
btp399
a((lp400
I7
ag23
(g24
(I0
tp401
g26
tp402
Rp403
(I1
(I1
tp404
g32
I00
S'\x93\x14m<'
p405
tp406
btp407
a((lp408
I21
ag23
(g24
(I0
tp409
g26
tp410
Rp411
(I1
(I1
tp412
g32
I00
S'"\xd1k<'
p413
tp414
btp415
a((lp416
I9
ag23
(g24
(I0
tp417
g26
tp418
Rp419
(I1
(I1
tp420
g32
I00
S'\x11\x80k<'
p421
tp422
btp423
a((lp424
I3
ag23
(g24
(I0
tp425
g26
tp426
Rp427
(I1
(I1
tp428
g32
I00
S'C9k<'
p429
tp430
btp431
a((lp432
I12
ag23
(g24
(I0
tp433
g26
tp434
Rp435
(I1
(I1
tp436
g32
I00
S'\xc5\x0cf<'
p437
tp438
btp439
a((lp440
I5
ag23
(g24
(I0
tp441
g26
tp442
Rp443
(I1
(I1
tp444
g32
I00
S'\xe8\xcf^<'
p445
tp446
btp447
a((lp448
I6
ag23
(g24
(I0
tp449
g26
tp450
Rp451
(I1
(I1
tp452
g32
I00
S'b\x92M<'
p453
tp454
btp455
a((lp456
I1
ag23
(g24
(I0
tp457
g26
tp458
Rp459
(I1
(I1
tp460
g32
I00
S'\x98\x11E<'
p461
tp462
btp463
a((lp464
I19
ag23
(g24
(I0
tp465
g26
tp466
Rp467
(I1
(I1
tp468
g32
I00
S'\xc3\xff><'
p469
tp470
btp471
a((lp472
I20
ag23
(g24
(I0
tp473
g26
tp474
Rp475
(I1
(I1
tp476
g32
I00
S'\x96\x0b4<'
p477
tp478
btp479
a((lp480
I18
ag23
(g24
(I0
tp481
g26
tp482
Rp483
(I1
(I1
tp484
g32
I00
S'\x15\t2<'
p485
tp486
btp487
a((lp488
I10
ag23
(g24
(I0
tp489
g26
tp490
Rp491
(I1
(I1
tp492
g32
I00
S'\xe3>+<'
p493
tp494
btp495
a((lp496
I16
ag23
(g24
(I0
tp497
g26
tp498
Rp499
(I1
(I1
tp500
g32
I00
S'\xebK%<'
p501
tp502
btp503
asg1
(g5
S'\x06\x00\x00\x00\x00\x00\x00\x00'
p504
tp505
Rp506
(lp507
((lp508
g1
(g15
S'\x00\x00\x00`\x94 \xd1?'
p509
tp510
Rp511
tp512
a((lp513
I10
ag23
(g24
(I0
tp514
g26
tp515
Rp516
(I1
(I1
tp517
g32
I00
S'\xc0\x11\x13='
p518
tp519
btp520
a((lp521
I10
ag23
(g24
(I0
tp522
g26
tp523
Rp524
(I1
(I1
tp525
g32
I00
S'1q\x06='
p526
tp527
btp528
a((lp529
I13
ag23
(g24
(I0
tp530
g26
tp531
Rp532
(I1
(I1
tp533
g32
I00
S'\xdf\xbc\xd3<'
p534
tp535
btp536
a((lp537
I13
ag23
(g24
(I0
tp538
g26
tp539
Rp540
(I1
(I1
tp541
g32
I00
S'\x9d\xf7\xc7<'
p542
tp543
btp544
a((lp545
I8
ag23
(g24
(I0
tp546
g26
tp547
Rp548
(I1
(I1
tp549
g32
I00
S'\xce\x1f\xaf<'
p550
tp551
btp552
a((lp553
I3
ag23
(g24
(I0
tp554
g26
tp555
Rp556
(I1
(I1
tp557
g32
I00
S'I\xab\x9d<'
p558
tp559
btp560
a((lp561
I2
ag23
(g24
(I0
tp562
g26
tp563
Rp564
(I1
(I1
tp565
g32
I00
S'\xa0\xd1\x9b<'
p566
tp567
btp568
a((lp569
I17
ag23
(g24
(I0
tp570
g26
tp571
Rp572
(I1
(I1
tp573
g32
I00
S' \x7f\x90<'
p574
tp575
btp576
a((lp577
I15
ag23
(g24
(I0
tp578
g26
tp579
Rp580
(I1
(I1
tp581
g32
I00
S'g\x18\x8f<'
p582
tp583
btp584
a((lp585
I8
ag23
(g24
(I0
tp586
g26
tp587
Rp588
(I1
(I1
tp589
g32
I00
S'\xcb\nt<'
p590
tp591
btp592
a((lp593
I3
ag23
(g24
(I0
tp594
g26
tp595
Rp596
(I1
(I1
tp597
g32
I00
S'R\x85l<'
p598
tp599
btp600
a((lp601
I6
ag23
(g24
(I0
tp602
g26
tp603
Rp604
(I1
(I1
tp605
g32
I00
S'\xf0lj<'
p606
tp607
btp608
a((lp609
I7
ag23
(g24
(I0
tp610
g26
tp611
Rp612
(I1
(I1
tp613
g32
I00
S'&7b<'
p614
tp615
btp616
a((lp617
I12
ag23
(g24
(I0
tp618
g26
tp619
Rp620
(I1
(I1
tp621
g32
I00
S'\xd0``<'
p622
tp623
btp624
a((lp625
I18
ag23
(g24
(I0
tp626
g26
tp627
Rp628
(I1
(I1
tp629
g32
I00
S'\xfa\xf3[<'
p630
tp631
btp632
a((lp633
I2
ag23
(g24
(I0
tp634
g26
tp635
Rp636
(I1
(I1
tp637
g32
I00
S'u\xd5Z<'
p638
tp639
btp640
a((lp641
I4
ag23
(g24
(I0
tp642
g26
tp643
Rp644
(I1
(I1
tp645
g32
I00
S'8\x81T<'
p646
tp647
btp648
a((lp649
I17
ag23
(g24
(I0
tp650
g26
tp651
Rp652
(I1
(I1
tp653
g32
I00
S'\xa4\xd5S<'
p654
tp655
btp656
a((lp657
I1
ag23
(g24
(I0
tp658
g26
tp659
Rp660
(I1
(I1
tp661
g32
I00
S'\x81\xb8N<'
p662
tp663
btp664
a((lp665
I9
ag23
(g24
(I0
tp666
g26
tp667
Rp668
(I1
(I1
tp669
g32
I00
S'&1C<'
p670
tp671
btp672
a((lp673
I15
ag23
(g24
(I0
tp674
g26
tp675
Rp676
(I1
(I1
tp677
g32
I00
S'\xc4\xfa3<'
p678
tp679
btp680
a((lp681
I20
ag23
(g24
(I0
tp682
g26
tp683
Rp684
(I1
(I1
tp685
g32
I00
S"4'-<"
p686
tp687
btp688
a((lp689
I5
ag23
(g24
(I0
tp690
g26
tp691
Rp692
(I1
(I1
tp693
g32
I00
S'\xe3O(<'
p694
tp695
btp696
asg1
(g5
S'\x07\x00\x00\x00\x00\x00\x00\x00'
p697
tp698
Rp699
(lp700
((lp701
g1
(g15
S'\x00\x00\x00 m \xd2?'
p702
tp703
Rp704
tp705
a((lp706
I18
ag23
(g24
(I0
tp707
g26
tp708
Rp709
(I1
(I1
tp710
g32
I00
S'\xf08\xa5='
p711
tp712
btp713
a((lp714
I18
ag23
(g24
(I0
tp715
g26
tp716
Rp717
(I1
(I1
tp718
g32
I00
S'\x01h`='
p719
tp720
btp721
a((lp722
I8
ag23
(g24
(I0
tp723
g26
tp724
Rp725
(I1
(I1
tp726
g32
I00
S'\xf6\xc6\x9e<'
p727
tp728
btp729
a((lp730
I14
ag23
(g24
(I0
tp731
g26
tp732
Rp733
(I1
(I1
tp734
g32
I00
S'\xbc\x0f\x94<'
p735
tp736
btp737
a((lp738
I18
aI18
ag23
(g24
(I0
tp739
g26
tp740
Rp741
(I1
(I1
tp742
g32
I00
S'\xea\xa2y<'
p743
tp744
btp745
a((lp746
I9
ag23
(g24
(I0
tp747
g26
tp748
Rp749
(I1
(I1
tp750
g32
I00
S'\x10!s<'
p751
tp752
btp753
a((lp754
I6
ag23
(g24
(I0
tp755
g26
tp756
Rp757
(I1
(I1
tp758
g32
I00
S'9\x06k<'
p759
tp760
btp761
a((lp762
I10
ag23
(g24
(I0
tp763
g26
tp764
Rp765
(I1
(I1
tp766
g32
I00
S'\xbf\x8bb<'
p767
tp768
btp769
a((lp770
I15
ag23
(g24
(I0
tp771
g26
tp772
Rp773
(I1
(I1
tp774
g32
I00
S'\xc7\xd9^<'
p775
tp776
btp777
a((lp778
I17
ag23
(g24
(I0
tp779
g26
tp780
Rp781
(I1
(I1
tp782
g32
I00
S'-"^<'
p783
tp784
btp785
a((lp786
I4
ag23
(g24
(I0
tp787
g26
tp788
Rp789
(I1
(I1
tp790
g32
I00
S'\xc0hW<'
p791
tp792
btp793
a((lp794
I16
ag23
(g24
(I0
tp795
g26
tp796
Rp797
(I1
(I1
tp798
g32
I00
S'\xccyR<'
p799
tp800
btp801
a((lp802
I13
ag23
(g24
(I0
tp803
g26
tp804
Rp805
(I1
(I1
tp806
g32
I00
S'\x8a\x04R<'
p807
tp808
btp809
a((lp810
I7
ag23
(g24
(I0
tp811
g26
tp812
Rp813
(I1
(I1
tp814
g32
I00
S'\xd6mP<'
p815
tp816
btp817
a((lp818
I3
ag23
(g24
(I0
tp819
g26
tp820
Rp821
(I1
(I1
tp822
g32
I00
S'3\xf8L<'
p823
tp824
btp825
a((lp826
I8
ag23
(g24
(I0
tp827
g26
tp828
Rp829
(I1
(I1
tp830
g32
I00
S'\xfa\xb2F<'
p831
tp832
btp833
a((lp834
I5
ag23
(g24
(I0
tp835
g26
tp836
Rp837
(I1
(I1
tp838
g32
I00
S'&\x12B<'
p839
tp840
btp841
a((lp842
I1
ag23
(g24
(I0
tp843
g26
tp844
Rp845
(I1
(I1
tp846
g32
I00
S'\xa6|4<'
p847
tp848
btp849
a((lp850
I2
ag23
(g24
(I0
tp851
g26
tp852
Rp853
(I1
(I1
tp854
g32
I00
S'Q`+<'
p855
tp856
btp857
a((lp858
I12
ag23
(g24
(I0
tp859
g26
tp860
Rp861
(I1
(I1
tp862
g32
I00
S'\xec@$<'
p863
tp864
btp865
asg1
(g5
S'\x08\x00\x00\x00\x00\x00\x00\x00'
p866
tp867
Rp868
(lp869
((lp870
g1
(g15
S'\x00\x00\x00\xe0\xb35\xd3?'
p871
tp872
Rp873
tp874
a((lp875
I8
ag23
(g24
(I0
tp876
g26
tp877
Rp878
(I1
(I1
tp879
g32
I00
S'\xfa\x91\xd4<'
p880
tp881
btp882
a((lp883
I8
ag23
(g24
(I0
tp884
g26
tp885
Rp886
(I1
(I1
tp887
g32
I00
S'k\x0b\xb8<'
p888
tp889
btp890
a((lp891
I12
ag23
(g24
(I0
tp892
g26
tp893
Rp894
(I1
(I1
tp895
g32
I00
S'aZ\xb6<'
p896
tp897
btp898
a((lp899
I7
ag23
(g24
(I0
tp900
g26
tp901
Rp902
(I1
(I1
tp903
g32
I00
S'Q\r\xaf<'
p904
tp905
btp906
a((lp907
I12
ag23
(g24
(I0
tp908
g26
tp909
Rp910
(I1
(I1
tp911
g32
I00
S'b\xa9\x90<'
p912
tp913
btp914
a((lp915
I2
ag23
(g24
(I0
tp916
g26
tp917
Rp918
(I1
(I1
tp919
g32
I00
S'\x06\x0c\x8f<'
p920
tp921
btp922
a((lp923
I15
ag23
(g24
(I0
tp924
g26
tp925
Rp926
(I1
(I1
tp927
g32
I00
S'\x1b\x9f\x8d<'
p928
tp929
btp930
a((lp931
I17
ag23
(g24
(I0
tp932
g26
tp933
Rp934
(I1
(I1
tp935
g32
I00
S'q\x86\x88<'
p936
tp937
btp938
a((lp939
I13
ag23
(g24
(I0
tp940
g26
tp941
Rp942
(I1
(I1
tp943
g32
I00
S'\xc9\x86\x87<'
p944
tp945
btp946
a((lp947
I7
ag23
(g24
(I0
tp948
g26
tp949
Rp950
(I1
(I1
tp951
g32
I00
S'<+\x86<'
p952
tp953
btp954
a((lp955
I3
ag23
(g24
(I0
tp956
g26
tp957
Rp958
(I1
(I1
tp959
g32
I00
S'\x85\xb4\x85<'
p960
tp961
btp962
a((lp963
I1
ag23
(g24
(I0
tp964
g26
tp965
Rp966
(I1
(I1
tp967
g32
I00
S'{\x9b\x84<'
p968
tp969
btp970
a((lp971
I10
ag23
(g24
(I0
tp972
g26
tp973
Rp974
(I1
(I1
tp975
g32
I00
S'\xc0\xf9q<'
p976
tp977
btp978
a((lp979
I18
ag23
(g24
(I0
tp980
g26
tp981
Rp982
(I1
(I1
tp983
g32
I00
S'\x01od<'
p984
tp985
btp986
a((lp987
I6
ag23
(g24
(I0
tp988
g26
tp989
Rp990
(I1
(I1
tp991
g32
I00
S'_\x9a\\<'
p992
tp993
btp994
a((lp995
I4
ag23
(g24
(I0
tp996
g26
tp997
Rp998
(I1
(I1
tp999
g32
I00
S'\x7f\x17X<'
p1000
tp1001
btp1002
a((lp1003
I21
ag23
(g24
(I0
tp1004
g26
tp1005
Rp1006
(I1
(I1
tp1007
g32
I00
S'\x85aN<'
p1008
tp1009
btp1010
a((lp1011
I9
ag23
(g24
(I0
tp1012
g26
tp1013
Rp1014
(I1
(I1
tp1015
g32
I00
S'\x1dRI<'
p1016
tp1017
btp1018
a((lp1019
I19
ag23
(g24
(I0
tp1020
g26
tp1021
Rp1022
(I1
(I1
tp1023
g32
I00
S'\xc4v@<'
p1024
tp1025
btp1026
a((lp1027
I20
ag23
(g24
(I0
tp1028
g26
tp1029
Rp1030
(I1
(I1
tp1031
g32
I00
S'Jn><'
p1032
tp1033
btp1034
a((lp1035
I2
ag23
(g24
(I0
tp1036
g26
tp1037
Rp1038
(I1
(I1
tp1039
g32
I00
S'c8><'
p1040
tp1041
btp1042
a((lp1043
I5
ag23
(g24
(I0
tp1044
g26
tp1045
Rp1046
(I1
(I1
tp1047
g32
I00
S'\xfb\x1b:<'
p1048
tp1049
btp1050
a((lp1051
I15
ag23
(g24
(I0
tp1052
g26
tp1053
Rp1054
(I1
(I1
tp1055
g32
I00
S'h\x829<'
p1056
tp1057
btp1058
a((lp1059
I16
ag23
(g24
(I0
tp1060
g26
tp1061
Rp1062
(I1
(I1
tp1063
g32
I00
S'\xda>7<'
p1064
tp1065
btp1066
a((lp1067
I13
ag23
(g24
(I0
tp1068
g26
tp1069
Rp1070
(I1
(I1
tp1071
g32
I00
S'h\x12.<'
p1072
tp1073
btp1074
a((lp1075
I17
ag23
(g24
(I0
tp1076
g26
tp1077
Rp1078
(I1
(I1
tp1079
g32
I00
S'\xc6-%<'
p1080
tp1081
btp1082
asg1
(g5
S'\t\x00\x00\x00\x00\x00\x00\x00'
p1083
tp1084
Rp1085
(lp1086
((lp1087
g1
(g15
S'\x00\x00\x00\xa00 \xd2?'
p1088
tp1089
Rp1090
tp1091
a((lp1092
I1
ag23
(g24
(I0
tp1093
g26
tp1094
Rp1095
(I1
(I1
tp1096
g32
I00
S'\xc6\xa5\xab='
p1097
tp1098
btp1099
a((lp1100
I1
ag23
(g24
(I0
tp1101
g26
tp1102
Rp1103
(I1
(I1
tp1104
g32
I00
S'\xeaZ\x86='
p1105
tp1106
btp1107
a((lp1108
I13
ag23
(g24
(I0
tp1109
g26
tp1110
Rp1111
(I1
(I1
tp1112
g32
I00
S'c\xdf\x1b='
p1113
tp1114
btp1115
a((lp1116
I13
ag23
(g24
(I0
tp1117
g26
tp1118
Rp1119
(I1
(I1
tp1120
g32
I00
S'V\xdf\xe3<'
p1121
tp1122
btp1123
a((lp1124
I21
ag23
(g24
(I0
tp1125
g26
tp1126
Rp1127
(I1
(I1
tp1128
g32
I00
S'[B\xc3<'
p1129
tp1130
btp1131
a((lp1132
I1
aI1
ag23
(g24
(I0
tp1133
g26
tp1134
Rp1135
(I1
(I1
tp1136
g32
I00
S'2s\xa3<'
p1137
tp1138
btp1139
a((lp1140
I7
ag23
(g24
(I0
tp1141
g26
tp1142
Rp1143
(I1
(I1
tp1144
g32
I00
S'$\x1f\xa3<'
p1145
tp1146
btp1147
a((lp1148
I20
ag23
(g24
(I0
tp1149
g26
tp1150
Rp1151
(I1
(I1
tp1152
g32
I00
S'\xc4\xa2\x81<'
p1153
tp1154
btp1155
a((lp1156
I12
ag23
(g24
(I0
tp1157
g26
tp1158
Rp1159
(I1
(I1
tp1160
g32
I00
S'\xbdF\x81<'
p1161
tp1162
btp1163
a((lp1164
I19
ag23
(g24
(I0
tp1165
g26
tp1166
Rp1167
(I1
(I1
tp1168
g32
I00
S'\x07\xb4t<'
p1169
tp1170
btp1171
a((lp1172
I15
ag23
(g24
(I0
tp1173
g26
tp1174
Rp1175
(I1
(I1
tp1176
g32
I00
S'\x00\xb9e<'
p1177
tp1178
btp1179
a((lp1180
I2
ag23
(g24
(I0
tp1181
g26
tp1182
Rp1183
(I1
(I1
tp1184
g32
I00
S'[\nd<'
p1185
tp1186
btp1187
a((lp1188
I5
ag23
(g24
(I0
tp1189
g26
tp1190
Rp1191
(I1
(I1
tp1192
g32
I00
S'\xc6\xad\\<'
p1193
tp1194
btp1195
a((lp1196
I10
ag23
(g24
(I0
tp1197
g26
tp1198
Rp1199
(I1
(I1
tp1200
g32
I00
S'\x8c\xc3C<'
p1201
tp1202
btp1203
a((lp1204
I8
ag23
(g24
(I0
tp1205
g26
tp1206
Rp1207
(I1
(I1
tp1208
g32
I00
S'\xca\xed?<'
p1209
tp1210
btp1211
a((lp1212
I13
aI1
ag23
(g24
(I0
tp1213
g26
tp1214
Rp1215
(I1
(I1
tp1216
g32
I00
S'\x8a\xa0=<'
p1217
tp1218
btp1219
a((lp1220
I3
ag23
(g24
(I0
tp1221
g26
tp1222
Rp1223
(I1
(I1
tp1224
g32
I00
S'\x05\x848<'
p1225
tp1226
btp1227
a((lp1228
I9
ag23
(g24
(I0
tp1229
g26
tp1230
Rp1231
(I1
(I1
tp1232
g32
I00
S'\x06\x14,<'
p1233
tp1234
btp1235
a((lp1236
I21
ag23
(g24
(I0
tp1237
g26
tp1238
Rp1239
(I1
(I1
tp1240
g32
I00
S'\xd9w)<'
p1241
tp1242
btp1243
asg1
(g5
S'\n\x00\x00\x00\x00\x00\x00\x00'
p1244
tp1245
Rp1246
(lp1247
((lp1248
g1
(g15
S'\x00\x00\x00@P\x14\xd2?'
p1249
tp1250
Rp1251
tp1252
a((lp1253
I12
ag23
(g24
(I0
tp1254
g26
tp1255
Rp1256
(I1
(I1
tp1257
g32
I00
S'\xca\xffe='
p1258
tp1259
btp1260
a((lp1261
I12
ag23
(g24
(I0
tp1262
g26
tp1263
Rp1264
(I1
(I1
tp1265
g32
I00
S'|a6='
p1266
tp1267
btp1268
a((lp1269
I7
ag23
(g24
(I0
tp1270
g26
tp1271
Rp1272
(I1
(I1
tp1273
g32
I00
S'\x9a\x94\xa3<'
p1274
tp1275
btp1276
a((lp1277
I15
ag23
(g24
(I0
tp1278
g26
tp1279
Rp1280
(I1
(I1
tp1281
g32
I00
S'\xa4\x81\x9c<'
p1282
tp1283
btp1284
a((lp1285
I13
ag23
(g24
(I0
tp1286
g26
tp1287
Rp1288
(I1
(I1
tp1289
g32
I00
S'\x8fs\x9a<'
p1290
tp1291
btp1292
a((lp1293
I1
ag23
(g24
(I0
tp1294
g26
tp1295
Rp1296
(I1
(I1
tp1297
g32
I00
S'\x08b\x91<'
p1298
tp1299
btp1300
a((lp1301
I8
ag23
(g24
(I0
tp1302
g26
tp1303
Rp1304
(I1
(I1
tp1305
g32
I00
S'\x16\xc2\x84<'
p1306
tp1307
btp1308
a((lp1309
I9
ag23
(g24
(I0
tp1310
g26
tp1311
Rp1312
(I1
(I1
tp1313
g32
I00
S'\xa6\x9e\x83<'
p1314
tp1315
btp1316
a((lp1317
I17
ag23
(g24
(I0
tp1318
g26
tp1319
Rp1320
(I1
(I1
tp1321
g32
I00
S'\x1b\xa0{<'
p1322
tp1323
btp1324
a((lp1325
I19
ag23
(g24
(I0
tp1326
g26
tp1327
Rp1328
(I1
(I1
tp1329
g32
I00
S'\x98\x1bs<'
p1330
tp1331
btp1332
a((lp1333
I6
ag23
(g24
(I0
tp1334
g26
tp1335
Rp1336
(I1
(I1
tp1337
g32
I00
S'\xbbTh<'
p1338
tp1339
btp1340
a((lp1341
I18
ag23
(g24
(I0
tp1342
g26
tp1343
Rp1344
(I1
(I1
tp1345
g32
I00
S'gGd<'
p1346
tp1347
btp1348
a((lp1349
I21
ag23
(g24
(I0
tp1350
g26
tp1351
Rp1352
(I1
(I1
tp1353
g32
I00
S'$\x8e]<'
p1354
tp1355
btp1356
a((lp1357
I2
ag23
(g24
(I0
tp1358
g26
tp1359
Rp1360
(I1
(I1
tp1361
g32
I00
S'\xbbz\\<'
p1362
tp1363
btp1364
a((lp1365
I16
ag23
(g24
(I0
tp1366
g26
tp1367
Rp1368
(I1
(I1
tp1369
g32
I00
S'\x11\xebS<'
p1370
tp1371
btp1372
a((lp1373
I7
ag23
(g24
(I0
tp1374
g26
tp1375
Rp1376
(I1
(I1
tp1377
g32
I00
S'b\x01Q<'
p1378
tp1379
btp1380
a((lp1381
I3
ag23
(g24
(I0
tp1382
g26
tp1383
Rp1384
(I1
(I1
tp1385
g32
I00
S'\xd5\xeeP<'
p1386
tp1387
btp1388
a((lp1389
I13
ag23
(g24
(I0
tp1390
g26
tp1391
Rp1392
(I1
(I1
tp1393
g32
I00
S'\x0etF<'
p1394
tp1395
btp1396
a((lp1397
I15
ag23
(g24
(I0
tp1398
g26
tp1399
Rp1400
(I1
(I1
tp1401
g32
I00
S'\xaeQA<'
p1402
tp1403
btp1404
a((lp1405
I10
ag23
(g24
(I0
tp1406
g26
tp1407
Rp1408
(I1
(I1
tp1409
g32
I00
S'\xeej@<'
p1410
tp1411
btp1412
a((lp1413
I1
ag23
(g24
(I0
tp1414
g26
tp1415
Rp1416
(I1
(I1
tp1417
g32
I00
S'~\xac0<'
p1418
tp1419
btp1420
asg1
(g5
S'\x0b\x00\x00\x00\x00\x00\x00\x00'
p1421
tp1422
Rp1423
(lp1424
((lp1425
I17
ag23
(g24
(I0
tp1426
g26
tp1427
Rp1428
(I1
(I1
tp1429
g32
I00
S'\xbb\nB>'
p1430
tp1431
btp1432
a((lp1433
I17
aI17
ag23
(g24
(I0
tp1434
g26
tp1435
Rp1436
(I1
(I1
tp1437
g32
I00
S'm\x8a\xc2='
p1438
tp1439
btp1440
a((lp1441
g1
(g15
S'\x00\x00\x00\xa065\xb0?'
p1442
tp1443
Rp1444
tp1445
a((lp1446
I17
ag23
(g24
(I0
tp1447
g26
tp1448
Rp1449
(I1
(I1
tp1450
g32
I00
S'(\x81B='
p1451
tp1452
btp1453
a((lp1454
I21
aI17
ag23
(g24
(I0
tp1455
g26
tp1456
Rp1457
(I1
(I1
tp1458
g32
I00
S'\x1f\xc6\x0c='
p1459
tp1460
btp1461
a((lp1462
I8
aI17
ag23
(g24
(I0
tp1463
g26
tp1464
Rp1465
(I1
(I1
tp1466
g32
I00
S'\xad\x1d\x00='
p1467
tp1468
btp1469
a((lp1470
I2
aI17
ag23
(g24
(I0
tp1471
g26
tp1472
Rp1473
(I1
(I1
tp1474
g32
I00
S'\xd53\xef<'
p1475
tp1476
btp1477
a((lp1478
I21
ag23
(g24
(I0
tp1479
g26
tp1480
Rp1481
(I1
(I1
tp1482
g32
I00
S'?5\x97<'
p1483
tp1484
btp1485
a((lp1486
I16
aI17
ag23
(g24
(I0
tp1487
g26
tp1488
Rp1489
(I1
(I1
tp1490
g32
I00
S'\xaa\x1b\x93<'
p1491
tp1492
btp1493
a((lp1494
I21
ag23
(g24
(I0
tp1495
g26
tp1496
Rp1497
(I1
(I1
tp1498
g32
I00
S'j\xbf\x8c<'
p1499
tp1500
btp1501
a((lp1502
I8
ag23
(g24
(I0
tp1503
g26
tp1504
Rp1505
(I1
(I1
tp1506
g32
I00
S'\x92\x17\x80<'
p1507
tp1508
btp1509
a((lp1510
I18
aI17
ag23
(g24
(I0
tp1511
g26
tp1512
Rp1513
(I1
(I1
tp1514
g32
I00
S'9\xfb|<'
p1515
tp1516
btp1517
a((lp1518
I3
aI17
ag23
(g24
(I0
tp1519
g26
tp1520
Rp1521
(I1
(I1
tp1522
g32
I00
S'$8y<'
p1523
tp1524
btp1525
a((lp1526
I2
ag23
(g24
(I0
tp1527
g26
tp1528
Rp1529
(I1
(I1
tp1530
g32
I00
S'o(o<'
p1531
tp1532
btp1533
a((lp1534
I13
aI17
ag23
(g24
(I0
tp1535
g26
tp1536
Rp1537
(I1
(I1
tp1538
g32
I00
S'\xb3\x15o<'
p1539
tp1540
btp1541
a((lp1542
I1
aI17
ag23
(g24
(I0
tp1543
g26
tp1544
Rp1545
(I1
(I1
tp1546
g32
I00
S"'\x18f<"
p1547
tp1548
btp1549
a((lp1550
I19
aI17
ag23
(g24
(I0
tp1551
g26
tp1552
Rp1553
(I1
(I1
tp1554
g32
I00
S'>\x01I<'
p1555
tp1556
btp1557
a((lp1558
I11
aI17
ag23
(g24
(I0
tp1559
g26
tp1560
Rp1561
(I1
(I1
tp1562
g32
I00
S'\xaf\x87@<'
p1563
tp1564
btp1565
a((lp1566
I6
aI17
ag23
(g24
(I0
tp1567
g26
tp1568
Rp1569
(I1
(I1
tp1570
g32
I00
S'\xbd\x06:<'
p1571
tp1572
btp1573
a((lp1574
I14
aI17
ag23
(g24
(I0
tp1575
g26
tp1576
Rp1577
(I1
(I1
tp1578
g32
I00
S'\x8eu0<'
p1579
tp1580
btp1581
asg1
(g5
S'\x0c\x00\x00\x00\x00\x00\x00\x00'
p1582
tp1583
Rp1584
(lp1585
((lp1586
g1
(g15
S'\x00\x00\x00`\xb2\x85\xd2?'
p1587
tp1588
Rp1589
tp1590
a((lp1591
I6
ag23
(g24
(I0
tp1592
g26
tp1593
Rp1594
(I1
(I1
tp1595
g32
I00
S'\x01\x9f\xa2='
p1596
tp1597
btp1598
a((lp1599
I6
ag23
(g24
(I0
tp1600
g26
tp1601
Rp1602
(I1
(I1
tp1603
g32
I00
S'K\xd1\x85='
p1604
tp1605
btp1606
a((lp1607
I10
ag23
(g24
(I0
tp1608
g26
tp1609
Rp1610
(I1
(I1
tp1611
g32
I00
S'\x06\x07\xf3<'
p1612
tp1613
btp1614
a((lp1615
I15
ag23
(g24
(I0
tp1616
g26
tp1617
Rp1618
(I1
(I1
tp1619
g32
I00
S'\xad\xad\xe2<'
p1620
tp1621
btp1622
a((lp1623
I2
ag23
(g24
(I0
tp1624
g26
tp1625
Rp1626
(I1
(I1
tp1627
g32
I00
S'\x94\x1a\xd4<'
p1628
tp1629
btp1630
a((lp1631
I8
ag23
(g24
(I0
tp1632
g26
tp1633
Rp1634
(I1
(I1
tp1635
g32
I00
S'iX\xb4<'
p1636
tp1637
btp1638
a((lp1639
I6
aI6
ag23
(g24
(I0
tp1640
g26
tp1641
Rp1642
(I1
(I1
tp1643
g32
I00
S'\x1d\xc3\x97<'
p1644
tp1645
btp1646
a((lp1647
I10
ag23
(g24
(I0
tp1648
g26
tp1649
Rp1650
(I1
(I1
tp1651
g32
I00
S'3\xa9\x96<'
p1652
tp1653
btp1654
a((lp1655
I21
ag23
(g24
(I0
tp1656
g26
tp1657
Rp1658
(I1
(I1
tp1659
g32
I00
S'\x16.\x84<'
p1660
tp1661
btp1662
a((lp1663
I15
ag23
(g24
(I0
tp1664
g26
tp1665
Rp1666
(I1
(I1
tp1667
g32
I00
S'\x85-{<'
p1668
tp1669
btp1670
a((lp1671
I4
ag23
(g24
(I0
tp1672
g26
tp1673
Rp1674
(I1
(I1
tp1675
g32
I00
S'\x1c\x10g<'
p1676
tp1677
btp1678
a((lp1679
I2
ag23
(g24
(I0
tp1680
g26
tp1681
Rp1682
(I1
(I1
tp1683
g32
I00
S'\x05\xb8W<'
p1684
tp1685
btp1686
a((lp1687
I9
ag23
(g24
(I0
tp1688
g26
tp1689
Rp1690
(I1
(I1
tp1691
g32
I00
S'9\xa8J<'
p1692
tp1693
btp1694
a((lp1695
I5
ag23
(g24
(I0
tp1696
g26
tp1697
Rp1698
(I1
(I1
tp1699
g32
I00
S'b\xcaB<'
p1700
tp1701
btp1702
a((lp1703
I3
ag23
(g24
(I0
tp1704
g26
tp1705
Rp1706
(I1
(I1
tp1707
g32
I00
S'i\xf5@<'
p1708
tp1709
btp1710
a((lp1711
I7
ag23
(g24
(I0
tp1712
g26
tp1713
Rp1714
(I1
(I1
tp1715
g32
I00
S'bX:<'
p1716
tp1717
btp1718
a((lp1719
I13
ag23
(g24
(I0
tp1720
g26
tp1721
Rp1722
(I1
(I1
tp1723
g32
I00
S'\xe6.)<'
p1724
tp1725
btp1726
a((lp1727
I8
ag23
(g24
(I0
tp1728
g26
tp1729
Rp1730
(I1
(I1
tp1731
g32
I00
S"\xca\xf2'<"
p1732
tp1733
btp1734
a((lp1735
I16
ag23
(g24
(I0
tp1736
g26
tp1737
Rp1738
(I1
(I1
tp1739
g32
I00
S'J4&<'
p1740
tp1741
btp1742
asg1
(g5
S'\r\x00\x00\x00\x00\x00\x00\x00'
p1743
tp1744
Rp1745
(lp1746
((lp1747
g1
(g15
S'\x00\x00\x00@,\xa4\xd3?'
p1748
tp1749
Rp1750
tp1751
a((lp1752
I1
ag23
(g24
(I0
tp1753
g26
tp1754
Rp1755
(I1
(I1
tp1756
g32
I00
S'\xfe\xc2m='
p1757
tp1758
btp1759
a((lp1760
I1
ag23
(g24
(I0
tp1761
g26
tp1762
Rp1763
(I1
(I1
tp1764
g32
I00
S'0UC='
p1765
tp1766
btp1767
a((lp1768
I9
ag23
(g24
(I0
tp1769
g26
tp1770
Rp1771
(I1
(I1
tp1772
g32
I00
S'\x98\x9c\xc6<'
p1773
tp1774
btp1775
a((lp1776
I12
ag23
(g24
(I0
tp1777
g26
tp1778
Rp1779
(I1
(I1
tp1780
g32
I00
S'\xda\xe3\x93<'
p1781
tp1782
btp1783
a((lp1784
I2
ag23
(g24
(I0
tp1785
g26
tp1786
Rp1787
(I1
(I1
tp1788
g32
I00
S'\xb5d\x8e<'
p1789
tp1790
btp1791
a((lp1792
I20
ag23
(g24
(I0
tp1793
g26
tp1794
Rp1795
(I1
(I1
tp1796
g32
I00
S'\x87\x8a\x8c<'
p1797
tp1798
btp1799
a((lp1800
I9
ag23
(g24
(I0
tp1801
g26
tp1802
Rp1803
(I1
(I1
tp1804
g32
I00
S'H\xbf\x81<'
p1805
tp1806
btp1807
a((lp1808
I13
ag23
(g24
(I0
tp1809
g26
tp1810
Rp1811
(I1
(I1
tp1812
g32
I00
S'\xdb/}<'
p1813
tp1814
btp1815
a((lp1816
I8
ag23
(g24
(I0
tp1817
g26
tp1818
Rp1819
(I1
(I1
tp1820
g32
I00
S'^\xf6|<'
p1821
tp1822
btp1823
a((lp1824
I21
ag23
(g24
(I0
tp1825
g26
tp1826
Rp1827
(I1
(I1
tp1828
g32
I00
S'S\xa2{<'
p1829
tp1830
btp1831
a((lp1832
I7
ag23
(g24
(I0
tp1833
g26
tp1834
Rp1835
(I1
(I1
tp1836
g32
I00
S'\xd4;y<'
p1837
tp1838
btp1839
a((lp1840
I15
ag23
(g24
(I0
tp1841
g26
tp1842
Rp1843
(I1
(I1
tp1844
g32
I00
S'y{x<'
p1845
tp1846
btp1847
a((lp1848
I14
ag23
(g24
(I0
tp1849
g26
tp1850
Rp1851
(I1
(I1
tp1852
g32
I00
S'e\x00Y<'
p1853
tp1854
btp1855
a((lp1856
I10
ag23
(g24
(I0
tp1857
g26
tp1858
Rp1859
(I1
(I1
tp1860
g32
I00
S'b!X<'
p1861
tp1862
btp1863
a((lp1864
I3
ag23
(g24
(I0
tp1865
g26
tp1866
Rp1867
(I1
(I1
tp1868
g32
I00
S']\xfcP<'
p1869
tp1870
btp1871
a((lp1872
I18
ag23
(g24
(I0
tp1873
g26
tp1874
Rp1875
(I1
(I1
tp1876
g32
I00
S'6{G<'
p1877
tp1878
btp1879
a((lp1880
I19
ag23
(g24
(I0
tp1881
g26
tp1882
Rp1883
(I1
(I1
tp1884
g32
I00
S'\xf9\xecD<'
p1885
tp1886
btp1887
a((lp1888
I5
ag23
(g24
(I0
tp1889
g26
tp1890
Rp1891
(I1
(I1
tp1892
g32
I00
S'o\xdcB<'
p1893
tp1894
btp1895
a((lp1896
I6
ag23
(g24
(I0
tp1897
g26
tp1898
Rp1899
(I1
(I1
tp1900
g32
I00
S'7\x1f-<'
p1901
tp1902
btp1903
a((lp1904
I16
ag23
(g24
(I0
tp1905
g26
tp1906
Rp1907
(I1
(I1
tp1908
g32
I00
S'\xa1\xe6$<'
p1909
tp1910
btp1911
asg1
(g5
S'\x11\x00\x00\x00\x00\x00\x00\x00'
p1912
tp1913
Rp1914
(lp1915
((lp1916
g1
(g15
S'\x00\x00\x00`\xf9Q\xd2?'
p1917
tp1918
Rp1919
tp1920
a((lp1921
I21
ag23
(g24
(I0
tp1922
g26
tp1923
Rp1924
(I1
(I1
tp1925
g32
I00
S'\x84\xef6='
p1926
tp1927
btp1928
a((lp1929
I21
ag23
(g24
(I0
tp1930
g26
tp1931
Rp1932
(I1
(I1
tp1933
g32
I00
S'\xa1-\x19='
p1934
tp1935
btp1936
a((lp1937
I1
ag23
(g24
(I0
tp1938
g26
tp1939
Rp1940
(I1
(I1
tp1941
g32
I00
S'\xf4b\xe9<'
p1942
tp1943
btp1944
a((lp1945
I1
ag23
(g24
(I0
tp1946
g26
tp1947
Rp1948
(I1
(I1
tp1949
g32
I00
S'\xc1{\xc9<'
p1950
tp1951
btp1952
a((lp1953
I2
ag23
(g24
(I0
tp1954
g26
tp1955
Rp1956
(I1
(I1
tp1957
g32
I00
S'\xca\x19\x9b<'
p1958
tp1959
btp1960
a((lp1961
I11
ag23
(g24
(I0
tp1962
g26
tp1963
Rp1964
(I1
(I1
tp1965
g32
I00
S'Bb\x95<'
p1966
tp1967
btp1968
a((lp1969
I20
ag23
(g24
(I0
tp1970
g26
tp1971
Rp1972
(I1
(I1
tp1973
g32
I00
S'\xa8\xc1\x93<'
p1974
tp1975
btp1976
a((lp1977
I11
ag23
(g24
(I0
tp1978
g26
tp1979
Rp1980
(I1
(I1
tp1981
g32
I00
S"'\xcc\x87<"
p1982
tp1983
btp1984
a((lp1985
I6
ag23
(g24
(I0
tp1986
g26
tp1987
Rp1988
(I1
(I1
tp1989
g32
I00
S'`\x99\x82<'
p1990
tp1991
btp1992
a((lp1993
I17
ag23
(g24
(I0
tp1994
g26
tp1995
Rp1996
(I1
(I1
tp1997
g32
I00
S'<\xbez<'
p1998
tp1999
btp2000
a((lp2001
I5
ag23
(g24
(I0
tp2002
g26
tp2003
Rp2004
(I1
(I1
tp2005
g32
I00
S'\xd7\x01p<'
p2006
tp2007
btp2008
a((lp2009
I3
ag23
(g24
(I0
tp2010
g26
tp2011
Rp2012
(I1
(I1
tp2013
g32
I00
S'V\xc9`<'
p2014
tp2015
btp2016
a((lp2017
I15
ag23
(g24
(I0
tp2018
g26
tp2019
Rp2020
(I1
(I1
tp2021
g32
I00
S'\xc4\xa6R<'
p2022
tp2023
btp2024
a((lp2025
I19
ag23
(g24
(I0
tp2026
g26
tp2027
Rp2028
(I1
(I1
tp2029
g32
I00
S'\xd4\xafE<'
p2030
tp2031
btp2032
a((lp2033
I14
ag23
(g24
(I0
tp2034
g26
tp2035
Rp2036
(I1
(I1
tp2037
g32
I00
S'\xd75E<'
p2038
tp2039
btp2040
a((lp2041
I16
ag23
(g24
(I0
tp2042
g26
tp2043
Rp2044
(I1
(I1
tp2045
g32
I00
S' \x97A<'
p2046
tp2047
btp2048
a((lp2049
I2
ag23
(g24
(I0
tp2050
g26
tp2051
Rp2052
(I1
(I1
tp2053
g32
I00
S't><<'
p2054
tp2055
btp2056
a((lp2057
I20
ag23
(g24
(I0
tp2058
g26
tp2059
Rp2060
(I1
(I1
tp2061
g32
I00
S'Iw:<'
p2062
tp2063
btp2064
a((lp2065
I9
ag23
(g24
(I0
tp2066
g26
tp2067
Rp2068
(I1
(I1
tp2069
g32
I00
S'\x90P7<'
p2070
tp2071
btp2072
a((lp2073
I10
ag23
(g24
(I0
tp2074
g26
tp2075
Rp2076
(I1
(I1
tp2077
g32
I00
S'\xbe\x804<'
p2078
tp2079
btp2080
a((lp2081
I8
ag23
(g24
(I0
tp2082
g26
tp2083
Rp2084
(I1
(I1
tp2085
g32
I00
S'}t-<'
p2086
tp2087
btp2088
asg1
(g5
S'\x12\x00\x00\x00\x00\x00\x00\x00'
p2089
tp2090
Rp2091
(lp2092
((lp2093
g1
(g15
S'\x00\x00\x00\x80\x0e\xcc\xd2?'
p2094
tp2095
Rp2096
tp2097
a((lp2098
I7
ag23
(g24
(I0
tp2099
g26
tp2100
Rp2101
(I1
(I1
tp2102
g32
I00
S'\xb9\xdf\xf0='
p2103
tp2104
btp2105
a((lp2106
I7
ag23
(g24
(I0
tp2107
g26
tp2108
Rp2109
(I1
(I1
tp2110
g32
I00
S'\x81e\xb5='
p2111
tp2112
btp2113
a((lp2114
I7
aI7
ag23
(g24
(I0
tp2115
g26
tp2116
Rp2117
(I1
(I1
tp2118
g32
I00
S'\x1aK\x15='
p2119
tp2120
btp2121
a((lp2122
I8
ag23
(g24
(I0
tp2123
g26
tp2124
Rp2125
(I1
(I1
tp2126
g32
I00
S'\x12\x13\xb5<'
p2127
tp2128
btp2129
a((lp2130
I12
ag23
(g24
(I0
tp2131
g26
tp2132
Rp2133
(I1
(I1
tp2134
g32
I00
S'\xa9\xd2\x8b<'
p2135
tp2136
btp2137
a((lp2138
I10
ag23
(g24
(I0
tp2139
g26
tp2140
Rp2141
(I1
(I1
tp2142
g32
I00
S'T2\x87<'
p2143
tp2144
btp2145
a((lp2146
I15
ag23
(g24
(I0
tp2147
g26
tp2148
Rp2149
(I1
(I1
tp2150
g32
I00
S'\x0c-m<'
p2151
tp2152
btp2153
a((lp2154
I20
ag23
(g24
(I0
tp2155
g26
tp2156
Rp2157
(I1
(I1
tp2158
g32
I00
S'\x15Vc<'
p2159
tp2160
btp2161
a((lp2162
I2
ag23
(g24
(I0
tp2163
g26
tp2164
Rp2165
(I1
(I1
tp2166
g32
I00
S'oiW<'
p2167
tp2168
btp2169
a((lp2170
I4
ag23
(g24
(I0
tp2171
g26
tp2172
Rp2173
(I1
(I1
tp2174
g32
I00
S'\\\xc2Q<'
p2175
tp2176
btp2177
a((lp2178
I13
ag23
(g24
(I0
tp2179
g26
tp2180
Rp2181
(I1
(I1
tp2182
g32
I00
S'\x93\x1eH<'
p2183
tp2184
btp2185
a((lp2186
I21
ag23
(g24
(I0
tp2187
g26
tp2188
Rp2189
(I1
(I1
tp2190
g32
I00
S'D\xad9<'
p2191
tp2192
btp2193
a((lp2194
I3
ag23
(g24
(I0
tp2195
g26
tp2196
Rp2197
(I1
(I1
tp2198
g32
I00
S'\xfa%7<'
p2199
tp2200
btp2201
a((lp2202
I19
ag23
(g24
(I0
tp2203
g26
tp2204
Rp2205
(I1
(I1
tp2206
g32
I00
S'A\x1e1<'
p2207
tp2208
btp2209
a((lp2210
I14
ag23
(g24
(I0
tp2211
g26
tp2212
Rp2213
(I1
(I1
tp2214
g32
I00
S'6\xf7-<'
p2215
tp2216
btp2217
a((lp2218
I18
ag23
(g24
(I0
tp2219
g26
tp2220
Rp2221
(I1
(I1
tp2222
g32
I00
S'N\xf7*<'
p2223
tp2224
btp2225
a((lp2226
I1
ag23
(g24
(I0
tp2227
g26
tp2228
Rp2229
(I1
(I1
tp2230
g32
I00
S'\xbe\xb1)<'
p2231
tp2232
btp2233
a((lp2234
I6
ag23
(g24
(I0
tp2235
g26
tp2236
Rp2237
(I1
(I1
tp2238
g32
I00
S'>\x82)<'
p2239
tp2240
btp2241
asg1
(g5
S'\x13\x00\x00\x00\x00\x00\x00\x00'
p2242
tp2243
Rp2244
(lp2245
((lp2246
g1
(g15
S'\x00\x00\x00\xc0M\xf9\xd1?'
p2247
tp2248
Rp2249
tp2250
a((lp2251
I13
ag23
(g24
(I0
tp2252
g26
tp2253
Rp2254
(I1
(I1
tp2255
g32
I00
S'G\xd2b='
p2256
tp2257
btp2258
a((lp2259
I13
ag23
(g24
(I0
tp2260
g26
tp2261
Rp2262
(I1
(I1
tp2263
g32
I00
S'\x0b\x820='
p2264
tp2265
btp2266
a((lp2267
I1
ag23
(g24
(I0
tp2268
g26
tp2269
Rp2270
(I1
(I1
tp2271
g32
I00
S'\x80\xe2\x06='
p2272
tp2273
btp2274
a((lp2275
I1
ag23
(g24
(I0
tp2276
g26
tp2277
Rp2278
(I1
(I1
tp2279
g32
I00
S'\x07\xa4\xfd<'
p2280
tp2281
btp2282
a((lp2283
I2
ag23
(g24
(I0
tp2284
g26
tp2285
Rp2286
(I1
(I1
tp2287
g32
I00
S'N\x87\x9e<'
p2288
tp2289
btp2290
a((lp2291
I8
ag23
(g24
(I0
tp2292
g26
tp2293
Rp2294
(I1
(I1
tp2295
g32
I00
S'\x8cZ\x9a<'
p2296
tp2297
btp2298
a((lp2299
I5
ag23
(g24
(I0
tp2300
g26
tp2301
Rp2302
(I1
(I1
tp2303
g32
I00
S"'\x94\x85<"
p2304
tp2305
btp2306
a((lp2307
I15
ag23
(g24
(I0
tp2308
g26
tp2309
Rp2310
(I1
(I1
tp2311
g32
I00
S'8~x<'
p2312
tp2313
btp2314
a((lp2315
I21
ag23
(g24
(I0
tp2316
g26
tp2317
Rp2318
(I1
(I1
tp2319
g32
I00
S'e\x8cn<'
p2320
tp2321
btp2322
a((lp2323
I16
ag23
(g24
(I0
tp2324
g26
tp2325
Rp2326
(I1
(I1
tp2327
g32
I00
S'0*^<'
p2328
tp2329
btp2330
a((lp2331
I7
ag23
(g24
(I0
tp2332
g26
tp2333
Rp2334
(I1
(I1
tp2335
g32
I00
S'bFZ<'
p2336
tp2337
btp2338
a((lp2339
I9
ag23
(g24
(I0
tp2340
g26
tp2341
Rp2342
(I1
(I1
tp2343
g32
I00
S'|\x1cY<'
p2344
tp2345
btp2346
a((lp2347
I12
ag23
(g24
(I0
tp2348
g26
tp2349
Rp2350
(I1
(I1
tp2351
g32
I00
S'\xaf\x01T<'
p2352
tp2353
btp2354
a((lp2355
I18
ag23
(g24
(I0
tp2356
g26
tp2357
Rp2358
(I1
(I1
tp2359
g32
I00
S'\x86\xcbM<'
p2360
tp2361
btp2362
a((lp2363
I10
ag23
(g24
(I0
tp2364
g26
tp2365
Rp2366
(I1
(I1
tp2367
g32
I00
S'\x8ctK<'
p2368
tp2369
btp2370
a((lp2371
I6
ag23
(g24
(I0
tp2372
g26
tp2373
Rp2374
(I1
(I1
tp2375
g32
I00
S'>\xe8D<'
p2376
tp2377
btp2378
a((lp2379
I2
ag23
(g24
(I0
tp2380
g26
tp2381
Rp2382
(I1
(I1
tp2383
g32
I00
S'\x16\x13B<'
p2384
tp2385
btp2386
a((lp2387
I19
ag23
(g24
(I0
tp2388
g26
tp2389
Rp2390
(I1
(I1
tp2391
g32
I00
S'\xbaa4<'
p2392
tp2393
btp2394
a((lp2395
I3
ag23
(g24
(I0
tp2396
g26
tp2397
Rp2398
(I1
(I1
tp2399
g32
I00
S'\xbcz3<'
p2400
tp2401
btp2402
a((lp2403
I20
ag23
(g24
(I0
tp2404
g26
tp2405
Rp2406
(I1
(I1
tp2407
g32
I00
S'\xdem1<'
p2408
tp2409
btp2410
a((lp2411
I8
ag23
(g24
(I0
tp2412
g26
tp2413
Rp2414
(I1
(I1
tp2415
g32
I00
S'?\x88/<'
p2416
tp2417
btp2418
a((lp2419
I17
ag23
(g24
(I0
tp2420
g26
tp2421
Rp2422
(I1
(I1
tp2423
g32
I00
S'h\x96+<'
p2424
tp2425
btp2426
asg1
(g5
S'\x14\x00\x00\x00\x00\x00\x00\x00'
p2427
tp2428
Rp2429
(lp2430
((lp2431
g1
(g15
S'\x00\x00\x00\x80\x98\xa2\xd2?'
p2432
tp2433
Rp2434
tp2435
a((lp2436
I8
ag23
(g24
(I0
tp2437
g26
tp2438
Rp2439
(I1
(I1
tp2440
g32
I00
S'\xc1\x96B='
p2441
tp2442
btp2443
a((lp2444
I8
ag23
(g24
(I0
tp2445
g26
tp2446
Rp2447
(I1
(I1
tp2448
g32
I00
S'w\xa5!='
p2449
tp2450
btp2451
a((lp2452
I12
ag23
(g24
(I0
tp2453
g26
tp2454
Rp2455
(I1
(I1
tp2456
g32
I00
S'P\x87\xb9<'
p2457
tp2458
btp2459
a((lp2460
I17
ag23
(g24
(I0
tp2461
g26
tp2462
Rp2463
(I1
(I1
tp2464
g32
I00
S'\xa8\xd2\x9b<'
p2465
tp2466
btp2467
a((lp2468
I7
ag23
(g24
(I0
tp2469
g26
tp2470
Rp2471
(I1
(I1
tp2472
g32
I00
S'dS\x97<'
p2473
tp2474
btp2475
a((lp2476
I12
ag23
(g24
(I0
tp2477
g26
tp2478
Rp2479
(I1
(I1
tp2480
g32
I00
S'3\x83\x8b<'
p2481
tp2482
btp2483
a((lp2484
I3
ag23
(g24
(I0
tp2485
g26
tp2486
Rp2487
(I1
(I1
tp2488
g32
I00
S'\x05M\x8a<'
p2489
tp2490
btp2491
a((lp2492
I13
ag23
(g24
(I0
tp2493
g26
tp2494
Rp2495
(I1
(I1
tp2496
g32
I00
S'\x7f\xf2\x89<'
p2497
tp2498
btp2499
a((lp2500
I10
ag23
(g24
(I0
tp2501
g26
tp2502
Rp2503
(I1
(I1
tp2504
g32
I00
S'\xaf*\x82<'
p2505
tp2506
btp2507
a((lp2508
I1
ag23
(g24
(I0
tp2509
g26
tp2510
Rp2511
(I1
(I1
tp2512
g32
I00
S'\x8d\xf4t<'
p2513
tp2514
btp2515
a((lp2516
I18
ag23
(g24
(I0
tp2517
g26
tp2518
Rp2519
(I1
(I1
tp2520
g32
I00
S'\xd2fa<'
p2521
tp2522
btp2523
a((lp2524
I2
ag23
(g24
(I0
tp2525
g26
tp2526
Rp2527
(I1
(I1
tp2528
g32
I00
S'\x96Ha<'
p2529
tp2530
btp2531
a((lp2532
I9
ag23
(g24
(I0
tp2533
g26
tp2534
Rp2535
(I1
(I1
tp2536
g32
I00
S'e\x19\\<'
p2537
tp2538
btp2539
a((lp2540
I21
ag23
(g24
(I0
tp2541
g26
tp2542
Rp2543
(I1
(I1
tp2544
g32
I00
S'H\xfeT<'
p2545
tp2546
btp2547
a((lp2548
I17
ag23
(g24
(I0
tp2549
g26
tp2550
Rp2551
(I1
(I1
tp2552
g32
I00
S'\x9f#O<'
p2553
tp2554
btp2555
a((lp2556
I4
ag23
(g24
(I0
tp2557
g26
tp2558
Rp2559
(I1
(I1
tp2560
g32
I00
S'\xd0\xbeJ<'
p2561
tp2562
btp2563
a((lp2564
I7
ag23
(g24
(I0
tp2565
g26
tp2566
Rp2567
(I1
(I1
tp2568
g32
I00
S'\x82/J<'
p2569
tp2570
btp2571
a((lp2572
I15
ag23
(g24
(I0
tp2573
g26
tp2574
Rp2575
(I1
(I1
tp2576
g32
I00
S'\xaf\x8aE<'
p2577
tp2578
btp2579
a((lp2580
I16
ag23
(g24
(I0
tp2581
g26
tp2582
Rp2583
(I1
(I1
tp2584
g32
I00
S's[><'
p2585
tp2586
btp2587
a((lp2588
I14
ag23
(g24
(I0
tp2589
g26
tp2590
Rp2591
(I1
(I1
tp2592
g32
I00
S'H;1<'
p2593
tp2594
btp2595
a((lp2596
I5
ag23
(g24
(I0
tp2597
g26
tp2598
Rp2599
(I1
(I1
tp2600
g32
I00
S'\t\xa90<'
p2601
tp2602
btp2603
a((lp2604
I3
ag23
(g24
(I0
tp2605
g26
tp2606
Rp2607
(I1
(I1
tp2608
g32
I00
S'4O+<'
p2609
tp2610
btp2611
asg1
(g5
S'\x15\x00\x00\x00\x00\x00\x00\x00'
p2612
tp2613
Rp2614
(lp2615
((lp2616
g1
(g15
S'\x00\x00\x00\xe0\xb8\x11\xd2?'
p2617
tp2618
Rp2619
tp2620
a((lp2621
I1
ag23
(g24
(I0
tp2622
g26
tp2623
Rp2624
(I1
(I1
tp2625
g32
I00
S'\x97mV='
p2626
tp2627
btp2628
a((lp2629
I1
ag23
(g24
(I0
tp2630
g26
tp2631
Rp2632
(I1
(I1
tp2633
g32
I00
S'.\x88 ='
p2634
tp2635
btp2636
a((lp2637
I8
ag23
(g24
(I0
tp2638
g26
tp2639
Rp2640
(I1
(I1
tp2641
g32
I00
S'>r\xa6<'
p2642
tp2643
btp2644
a((lp2645
I21
ag23
(g24
(I0
tp2646
g26
tp2647
Rp2648
(I1
(I1
tp2649
g32
I00
S'\x1d;\x9b<'
p2650
tp2651
btp2652
a((lp2653
I13
ag23
(g24
(I0
tp2654
g26
tp2655
Rp2656
(I1
(I1
tp2657
g32
I00
S'h\xdc\x8d<'
p2658
tp2659
btp2660
a((lp2661
I2
ag23
(g24
(I0
tp2662
g26
tp2663
Rp2664
(I1
(I1
tp2665
g32
I00
S'\xe3\x88\x88<'
p2666
tp2667
btp2668
a((lp2669
I9
ag23
(g24
(I0
tp2670
g26
tp2671
Rp2672
(I1
(I1
tp2673
g32
I00
S'\xceB\x87<'
p2674
tp2675
btp2676
a((lp2677
I17
ag23
(g24
(I0
tp2678
g26
tp2679
Rp2680
(I1
(I1
tp2681
g32
I00
S'\xdb\xc2\x86<'
p2682
tp2683
btp2684
a((lp2685
I12
ag23
(g24
(I0
tp2686
g26
tp2687
Rp2688
(I1
(I1
tp2689
g32
I00
S'\xa9<{<'
p2690
tp2691
btp2692
a((lp2693
I7
ag23
(g24
(I0
tp2694
g26
tp2695
Rp2696
(I1
(I1
tp2697
g32
I00
S'\x94\x14n<'
p2698
tp2699
btp2700
a((lp2701
I21
ag23
(g24
(I0
tp2702
g26
tp2703
Rp2704
(I1
(I1
tp2705
g32
I00
S'\xc6\xb9]<'
p2706
tp2707
btp2708
a((lp2709
I20
ag23
(g24
(I0
tp2710
g26
tp2711
Rp2712
(I1
(I1
tp2713
g32
I00
S'LL]<'
p2714
tp2715
btp2716
a((lp2717
I8
ag23
(g24
(I0
tp2718
g26
tp2719
Rp2720
(I1
(I1
tp2721
g32
I00
S'\xda\xf5Z<'
p2722
tp2723
btp2724
a((lp2725
I5
ag23
(g24
(I0
tp2726
g26
tp2727
Rp2728
(I1
(I1
tp2729
g32
I00
S'G\xeeU<'
p2730
tp2731
btp2732
a((lp2733
I16
ag23
(g24
(I0
tp2734
g26
tp2735
Rp2736
(I1
(I1
tp2737
g32
I00
S'*\x85R<'
p2738
tp2739
btp2740
a((lp2741
I15
ag23
(g24
(I0
tp2742
g26
tp2743
Rp2744
(I1
(I1
tp2745
g32
I00
S'\xd8OM<'
p2746
tp2747
btp2748
a((lp2749
I3
ag23
(g24
(I0
tp2750
g26
tp2751
Rp2752
(I1
(I1
tp2753
g32
I00
S'\xe5\xb8L<'
p2754
tp2755
btp2756
a((lp2757
I19
ag23
(g24
(I0
tp2758
g26
tp2759
Rp2760
(I1
(I1
tp2761
g32
I00
S'$\x03:<'
p2762
tp2763
btp2764
a((lp2765
I17
ag23
(g24
(I0
tp2766
g26
tp2767
Rp2768
(I1
(I1
tp2769
g32
I00
S'\x04%3<'
p2770
tp2771
btp2772
a((lp2773
I13
ag23
(g24
(I0
tp2774
g26
tp2775
Rp2776
(I1
(I1
tp2777
g32
I00
S'\xa0\x012<'
p2778
tp2779
btp2780
a((lp2781
I2
ag23
(g24
(I0
tp2782
g26
tp2783
Rp2784
(I1
(I1
tp2785
g32
I00
S',\x1b-<'
p2786
tp2787
btp2788
a((lp2789
I10
ag23
(g24
(I0
tp2790
g26
tp2791
Rp2792
(I1
(I1
tp2793
g32
I00
S'HT,<'
p2794
tp2795
btp2796
a((lp2797
I14
ag23
(g24
(I0
tp2798
g26
tp2799
Rp2800
(I1
(I1
tp2801
g32
I00
S'\nr&<'
p2802
tp2803
btp2804
as.