(lp0
(lp1
(lp2
(lp3
cnumpy.core.multiarray
scalar
p4
(cnumpy
dtype
p5
(S'f4'
p6
I0
I1
tp7
Rp8
(I3
S'<'
p9
NNNI-1
I-1
I0
tp10
bS'\xf148B'
p11
tp12
Rp13
ag4
(g8
S'\xf148B'
p14
tp15
Rp16
ag4
(g8
S'\xf148B'
p17
tp18
Rp19
ag4
(g8
S'\xf148B'
p20
tp21
Rp22
ag4
(g8
S'\xf148B'
p23
tp24
Rp25
ag4
(g8
S'\xf148B'
p26
tp27
Rp28
aa(lp29
g4
(g5
(S'b1'
p30
I0
I1
tp31
Rp32
(I3
S'|'
p33
NNNI-1
I-1
I0
tp34
bS'\x01'
p35
tp36
Rp37
ag37
ag37
ag37
ag37
ag37
aaa(lp38
(lp39
g4
(g8
S'\xf148B'
p40
tp41
Rp42
ag4
(g8
S'\xf148B'
p43
tp44
Rp45
ag4
(g8
S'\xf148B'
p46
tp47
Rp48
ag4
(g8
S'\xf148B'
p49
tp50
Rp51
ag4
(g8
S'\xf148B'
p52
tp53
Rp54
ag4
(g8
S'\xf148B'
p55
tp56
Rp57
aa(lp58
g37
ag37
ag37
ag37
ag37
ag37
aaa(lp59
(lp60
g4
(g8
S'\xf148B'
p61
tp62
Rp63
ag4
(g8
S'\xf148B'
p64
tp65
Rp66
ag4
(g8
S'\xf148B'
p67
tp68
Rp69
ag4
(g8
S'\xf148B'
p70
tp71
Rp72
ag4
(g8
S'\xf148B'
p73
tp74
Rp75
ag4
(g8
S'\xf148B'
p76
tp77
Rp78
aa(lp79
g37
ag37
ag37
ag37
ag37
ag37
aaa(lp80
(lp81
g4
(g8
S'\xf148B'
p82
tp83
Rp84
ag4
(g8
S'\xf148B'
p85
tp86
Rp87
ag4
(g8
S'\xf148B'
p88
tp89
Rp90
ag4
(g8
S'\xf148B'
p91
tp92
Rp93
ag4
(g8
S'\xf148B'
p94
tp95
Rp96
ag4
(g8
S'\xf148B'
p97
tp98
Rp99
aa(lp100
g37
ag37
ag37
ag37
ag37
ag37
aaa(lp101
(lp102
g4
(g8
S'\xf148B'
p103
tp104
Rp105
ag4
(g8
S'\xf148B'
p106
tp107
Rp108
ag4
(g8
S'\xf148B'
p109
tp110
Rp111
ag4
(g8
S'\xf148B'
p112
tp113
Rp114
ag4
(g8
S'\xf148B'
p115
tp116
Rp117
ag4
(g8
S'\xf148B'
p118
tp119
Rp120
aa(lp121
g37
ag37
ag37
ag37
ag37
ag37
aaa(lp122
(lp123
g4
(g8
S'\xf148B'
p124
tp125
Rp126
ag4
(g8
S'\xf148B'
p127
tp128
Rp129
ag4
(g8
S'\xf148B'
p130
tp131
Rp132
ag4
(g8
S'\xf148B'
p133
tp134
Rp135
ag4
(g8
S'\xf148B'
p136
tp137
Rp138
ag4
(g8
S'\xf148B'
p139
tp140
Rp141
aa(lp142
g37
ag37
ag37
ag37
ag37
ag37
aaa(lp143
(lp144
g4
(g8
S'\xf148B'
p145
tp146
Rp147
ag4
(g8
S'\xf148B'
p148
tp149
Rp150
ag4
(g8
S'\xf148B'
p151
tp152
Rp153
ag4
(g8
S'\xf148B'
p154
tp155
Rp156
ag4
(g8
S'\xf148B'
p157
tp158
Rp159
ag4
(g8
S'\xf148B'
p160
tp161
Rp162
aa(lp163
g37
ag37
ag37
ag37
ag37
ag37
aaa(lp164
(lp165
g4
(g8
S'\xf148B'
p166
tp167
Rp168
ag4
(g8
S'\xf148B'
p169
tp170
Rp171
ag4
(g8
S'\xf148B'
p172
tp173
Rp174
ag4
(g8
S'\xf148B'
p175
tp176
Rp177
ag4
(g8
S'\xf148B'
p178
tp179
Rp180
ag4
(g8
S'\xf148B'
p181
tp182
Rp183
aa(lp184
g37
ag37
ag37
ag37
ag37
ag37
aaa(lp185
(lp186
g4
(g8
S'\xf148B'
p187
tp188
Rp189
ag4
(g8
S'\xf148B'
p190
tp191
Rp192
ag4
(g8
S'\xf148B'
p193
tp194
Rp195
ag4
(g8
S'\xf148B'
p196
tp197
Rp198
ag4
(g8
S'\xf148B'
p199
tp200
Rp201
ag4
(g8
S'\xf148B'
p202
tp203
Rp204
aa(lp205
g37
ag37
ag37
ag37
ag37
ag37
aaa(lp206
(lp207
g4
(g8
S'\xf148B'
p208
tp209
Rp210
ag4
(g8
S'\xf148B'
p211
tp212
Rp213
ag4
(g8
S'\xf148B'
p214
tp215
Rp216
ag4
(g8
S'\xf148B'
p217
tp218
Rp219
ag4
(g8
S'\xf148B'
p220
tp221
Rp222
ag4
(g8
S'\xf148B'
p223
tp224
Rp225
aa(lp226
g37
ag37
ag37
ag37
ag37
ag37
aaaa(lp227
(lp228
(lp229
g4
(g8
S'\x9e\x85b?'
p230
tp231
Rp232
ag4
(g8
S'\xd5Ae?'
p233
tp234
Rp235
ag4
(g8
S'\x9e\x85b?'
p236
tp237
Rp238
ag4
(g8
S'\xd5Ae?'
p239
tp240
Rp241
ag4
(g8
S'\nrU?'
p242
tp243
Rp244
ag4
(g8
S'\xf3\x06k?'
p245
tp246
Rp247
aa(lp248
g37
ag37
ag37
ag37
ag37
ag37
aaa(lp249
(lp250
g4
(g8
S'\x9e\x85b?'
p251
tp252
Rp253
ag4
(g8
S'\xd5Ae?'
p254
tp255
Rp256
ag4
(g8
S'\x9e\x85b?'
p257
tp258
Rp259
ag4
(g8
S'\xd5Ae?'
p260
tp261
Rp262
ag4
(g8
S'\nrU?'
p263
tp264
Rp265
ag4
(g8
S'\xf3\x06k?'
p266
tp267
Rp268
aa(lp269
g37
ag37
ag37
ag37
ag37
ag37
aaa(lp270
(lp271
g4
(g8
S'\x9e\x85b?'
p272
tp273
Rp274
ag4
(g8
S'\xd5Ae?'
p275
tp276
Rp277
ag4
(g8
S'\x9e\x85b?'
p278
tp279
Rp280
ag4
(g8
S'\xd5Ae?'
p281
tp282
Rp283
ag4
(g8
S'\nrU?'
p284
tp285
Rp286
ag4
(g8
S'\xf3\x06k?'
p287
tp288
Rp289
aa(lp290
g37
ag37
ag37
ag37
ag37
ag37
aaa(lp291
(lp292
g4
(g8
S'\x9e\x85b?'
p293
tp294
Rp295
ag4
(g8
S'\xd5Ae?'
p296
tp297
Rp298
ag4
(g8
S'\x9e\x85b?'
p299
tp300
Rp301
ag4
(g8
S'\xd5Ae?'
p302
tp303
Rp304
ag4
(g8
S'\nrU?'
p305
tp306
Rp307
ag4
(g8
S'\xf3\x06k?'
p308
tp309
Rp310
aa(lp311
g37
ag37
ag37
ag37
ag37
ag37
aaa(lp312
(lp313
g4
(g8
S'\x9e\x85b?'
p314
tp315
Rp316
ag4
(g8
S'\xd5Ae?'
p317
tp318
Rp319
ag4
(g8
S'\x9e\x85b?'
p320
tp321
Rp322
ag4
(g8
S'\xd5Ae?'
p323
tp324
Rp325
ag4
(g8
S'\nrU?'
p326
tp327
Rp328
ag4
(g8
S'\xf3\x06k?'
p329
tp330
Rp331
aa(lp332
g37
ag37
ag37
ag37
ag37
ag37
aaa(lp333
(lp334
g4
(g8
S'\x9e\x85b?'
p335
tp336
Rp337
ag4
(g8
S'\xd5Ae?'
p338
tp339
Rp340
ag4
(g8
S'\x9e\x85b?'
p341
tp342
Rp343
ag4
(g8
S'\xd5Ae?'
p344
tp345
Rp346
ag4
(g8
S'\nrU?'
p347
tp348
Rp349
ag4
(g8
S'\xf3\x06k?'
p350
tp351
Rp352
aa(lp353
g37
ag37
ag37
ag37
ag37
ag37
aaa(lp354
(lp355
g4
(g8
S'\x9e\x85b?'
p356
tp357
Rp358
ag4
(g8
S'\xd5Ae?'
p359
tp360
Rp361
ag4
(g8
S'\x9e\x85b?'
p362
tp363
Rp364
ag4
(g8
S'\xd5Ae?'
p365
tp366
Rp367
ag4
(g8
S'\nrU?'
p368
tp369
Rp370
ag4
(g8
S'\xf3\x06k?'
p371
tp372
Rp373
aa(lp374
g37
ag37
ag37
ag37
ag37
ag37
aaa(lp375
(lp376
g4
(g8
S'\x9e\x85b?'
p377
tp378
Rp379
ag4
(g8
S'\xd5Ae?'
p380
tp381
Rp382
ag4
(g8
S'\x9e\x85b?'
p383
tp384
Rp385
ag4
(g8
S'\xd5Ae?'
p386
tp387
Rp388
ag4
(g8
S'\nrU?'
p389
tp390
Rp391
ag4
(g8
S'\xf3\x06k?'
p392
tp393
Rp394
aa(lp395
g37
ag37
ag37
ag37
ag37
ag37
aaa(lp396
(lp397
g4
(g8
S'\x9e\x85b?'
p398
tp399
Rp400
ag4
(g8
S'\xd5Ae?'
p401
tp402
Rp403
ag4
(g8
S'\x9e\x85b?'
p404
tp405
Rp406
ag4
(g8
S'\xd5Ae?'
p407
tp408
Rp409
ag4
(g8
S'\nrU?'
p410
tp411
Rp412
ag4
(g8
S'\xf3\x06k?'
p413
tp414
Rp415
aa(lp416
g37
ag37
ag37
ag37
ag37
ag37
aaa(lp417
(lp418
g4
(g8
S'\x9e\x85b?'
p419
tp420
Rp421
ag4
(g8
S'\xd5Ae?'
p422
tp423
Rp424
ag4
(g8
S'\x9e\x85b?'
p425
tp426
Rp427
ag4
(g8
S'\xd5Ae?'
p428
tp429
Rp430
ag4
(g8
S'\nrU?'
p431
tp432
Rp433
ag4
(g8
S'\xf3\x06k?'
p434
tp435
Rp436
aa(lp437
g37
ag37
ag37
ag37
ag37
ag37
aaaa(lp438
(lp439
(lp440
g4
(g8
S'\x9e\x85b?'
p441
tp442
Rp443
ag4
(g8
S'\xd5Ae?'
p444
tp445
Rp446
ag4
(g8
S'\x9e\x85b?'
p447
tp448
Rp449
ag4
(g8
S'\xd5Ae?'
p450
tp451
Rp452
ag4
(g8
S'\nrU?'
p453
tp454
Rp455
ag4
(g8
S'\xf3\x06k?'
p456
tp457
Rp458
aa(lp459
g37
ag37
ag37
ag37
ag37
ag37
aaa(lp460
(lp461
g4
(g8
S'\x9e\x85b?'
p462
tp463
Rp464
ag4
(g8
S'\xd5Ae?'
p465
tp466
Rp467
ag4
(g8
S'\x9e\x85b?'
p468
tp469
Rp470
ag4
(g8
S'\xd5Ae?'
p471
tp472
Rp473
ag4
(g8
S'\nrU?'
p474
tp475
Rp476
ag4
(g8
S'\xf3\x06k?'
p477
tp478
Rp479
aa(lp480
g37
ag37
ag37
ag37
ag37
ag37
aaa(lp481
(lp482
g4
(g8
S'\x9e\x85b?'
p483
tp484
Rp485
ag4
(g8
S'\xd5Ae?'
p486
tp487
Rp488
ag4
(g8
S'\x9e\x85b?'
p489
tp490
Rp491
ag4
(g8
S'\xd5Ae?'
p492
tp493
Rp494
ag4
(g8
S'\nrU?'
p495
tp496
Rp497
ag4
(g8
S'\xf3\x06k?'
p498
tp499
Rp500
aa(lp501
g37
ag37
ag37
ag37
ag37
ag37
aaa(lp502
(lp503
g4
(g8
S'\x9e\x85b?'
p504
tp505
Rp506
ag4
(g8
S'\xd5Ae?'
p507
tp508
Rp509
ag4
(g8
S'\x9e\x85b?'
p510
tp511
Rp512
ag4
(g8
S'\xd5Ae?'
p513
tp514
Rp515
ag4
(g8
S'\nrU?'
p516
tp517
Rp518
ag4
(g8
S'\xf3\x06k?'
p519
tp520
Rp521
aa(lp522
g37
ag37
ag37
ag37
ag37
ag37
aaa(lp523
(lp524
g4
(g8
S'\x9e\x85b?'
p525
tp526
Rp527
ag4
(g8
S'\xd5Ae?'
p528
tp529
Rp530
ag4
(g8
S'\x9e\x85b?'
p531
tp532
Rp533
ag4
(g8
S'\xd5Ae?'
p534
tp535
Rp536
ag4
(g8
S'\nrU?'
p537
tp538
Rp539
ag4
(g8
S'\xf3\x06k?'
p540
tp541
Rp542
aa(lp543
g37
ag37
ag37
ag37
ag37
ag37
aaa(lp544
(lp545
g4
(g8
S'\x9e\x85b?'
p546
tp547
Rp548
ag4
(g8
S'\xd5Ae?'
p549
tp550
Rp551
ag4
(g8
S'\x9e\x85b?'
p552
tp553
Rp554
ag4
(g8
S'\xd5Ae?'
p555
tp556
Rp557
ag4
(g8
S'\nrU?'
p558
tp559
Rp560
ag4
(g8
S'\xf3\x06k?'
p561
tp562
Rp563
aa(lp564
g37
ag37
ag37
ag37
ag37
ag37
aaa(lp565
(lp566
g4
(g8
S'\x9e\x85b?'
p567
tp568
Rp569
ag4
(g8
S'\xd5Ae?'
p570
tp571
Rp572
ag4
(g8
S'\x9e\x85b?'
p573
tp574
Rp575
ag4
(g8
S'\xd5Ae?'
p576
tp577
Rp578
ag4
(g8
S'\nrU?'
p579
tp580
Rp581
ag4
(g8
S'\xf3\x06k?'
p582
tp583
Rp584
aa(lp585
g37
ag37
ag37
ag37
ag37
ag37
aaa(lp586
(lp587
g4
(g8
S'\x9e\x85b?'
p588
tp589
Rp590
ag4
(g8
S'\xd5Ae?'
p591
tp592
Rp593
ag4
(g8
S'\x9e\x85b?'
p594
tp595
Rp596
ag4
(g8
S'\xd5Ae?'
p597
tp598
Rp599
ag4
(g8
S'\nrU?'
p600
tp601
Rp602
ag4
(g8
S'\xf3\x06k?'
p603
tp604
Rp605
aa(lp606
g37
ag37
ag37
ag37
ag37
ag37
aaa(lp607
(lp608
g4
(g8
S'\x9e\x85b?'
p609
tp610
Rp611
ag4
(g8
S'\xd5Ae?'
p612
tp613
Rp614
ag4
(g8
S'\x9e\x85b?'
p615
tp616
Rp617
ag4
(g8
S'\xd5Ae?'
p618
tp619
Rp620
ag4
(g8
S'\nrU?'
p621
tp622
Rp623
ag4
(g8
S'\xf3\x06k?'
p624
tp625
Rp626
aa(lp627
g37
ag37
ag37
ag37
ag37
ag37
aaa(lp628
(lp629
g4
(g8
S'\x9e\x85b?'
p630
tp631
Rp632
ag4
(g8
S'\xd5Ae?'
p633
tp634
Rp635
ag4
(g8
S'\x9e\x85b?'
p636
tp637
Rp638
ag4
(g8
S'\xd5Ae?'
p639
tp640
Rp641
ag4
(g8
S'\nrU?'
p642
tp643
Rp644
ag4
(g8
S'\xf3\x06k?'
p645
tp646
Rp647
aa(lp648
g37
ag37
ag37
ag37
ag37
ag37
aaaa.