(dp0
cnumpy.core.multiarray
scalar
p1
(cnumpy
dtype
p2
(S'i8'
p3
I0
I1
tp4
Rp5
(I3
S'<'
p6
NNNI-1
I-1
I0
tp7
bS'\x00\x00\x00\x00\x00\x00\x00\x00'
p8
tp9
Rp10
(lp11
((lp12
g1
(g2
(S'f8'
p13
I0
I1
tp14
Rp15
(I3
S'<'
p16
NNNI-1
I-1
I0
tp17
bS'\x00\x00\x00`\x9a\x91\xd4?'
p18
tp19
Rp20
tp21
a((lp22
I5
acnumpy.core.multiarray
_reconstruct
p23
(cnumpy
ndarray
p24
(I0
tp25
S'b'
p26
tp27
Rp28
(I1
(I1
tp29
g2
(S'f4'
p30
I0
I1
tp31
Rp32
(I3
S'<'
p33
NNNI-1
I-1
I0
tp34
bI00
S'\xf8\x8a\xa6='
p35
tp36
btp37
a((lp38
I5
ag23
(g24
(I0
tp39
g26
tp40
Rp41
(I1
(I1
tp42
g32
I00
S'\xeaO\x9f='
p43
tp44
btp45
a((lp46
I10
ag23
(g24
(I0
tp47
g26
tp48
Rp49
(I1
(I1
tp50
g32
I00
S'\xdf1\x0f='
p51
tp52
btp53
a((lp54
I9
ag23
(g24
(I0
tp55
g26
tp56
Rp57
(I1
(I1
tp58
g32
I00
S'q\x1f\xfe<'
p59
tp60
btp61
a((lp62
I3
ag23
(g24
(I0
tp63
g26
tp64
Rp65
(I1
(I1
tp66
g32
I00
S'f\xc6\xd9<'
p67
tp68
btp69
a((lp70
I7
ag23
(g24
(I0
tp71
g26
tp72
Rp73
(I1
(I1
tp74
g32
I00
S'\xa8\x99\xcf<'
p75
tp76
btp77
a((lp78
I2
ag23
(g24
(I0
tp79
g26
tp80
Rp81
(I1
(I1
tp82
g32
I00
S'\x19"\xc2<'
p83
tp84
btp85
a((lp86
I6
ag23
(g24
(I0
tp87
g26
tp88
Rp89
(I1
(I1
tp90
g32
I00
S'\xfeU\xbc<'
p91
tp92
btp93
a((lp94
I1
ag23
(g24
(I0
tp95
g26
tp96
Rp97
(I1
(I1
tp98
g32
I00
S')Q\xa6<'
p99
tp100
btp101
a((lp102
I5
aI5
ag23
(g24
(I0
tp103
g26
tp104
Rp105
(I1
(I1
tp106
g32
I00
S'" \xa3<'
p107
tp108
btp109
a((lp110
I4
ag23
(g24
(I0
tp111
g26
tp112
Rp113
(I1
(I1
tp114
g32
I00
S'HV\xa2<'
p115
tp116
btp117
a((lp118
I11
ag23
(g24
(I0
tp119
g26
tp120
Rp121
(I1
(I1
tp122
g32
I00
S"'I\x9d<"
p123
tp124
btp125
a((lp126
I0
ag23
(g24
(I0
tp127
g26
tp128
Rp129
(I1
(I1
tp130
g32
I00
S'\xc7\xb7\x87<'
p131
tp132
btp133
a((lp134
I8
ag23
(g24
(I0
tp135
g26
tp136
Rp137
(I1
(I1
tp138
g32
I00
S'\x90\x89\x86<'
p139
tp140
btp141
a((lp142
I10
ag23
(g24
(I0
tp143
g26
tp144
Rp145
(I1
(I1
tp146
g32
I00
S'~!\x86<'
p147
tp148
btp149
a((lp150
I9
ag23
(g24
(I0
tp151
g26
tp152
Rp153
(I1
(I1
tp154
g32
I00
S'\xab;K<'
p155
tp156
btp157
asg1
(g5
S'\x02\x00\x00\x00\x00\x00\x00\x00'
p158
tp159
Rp160
(lp161
((lp162
g1
(g15
S'\x00\x00\x00 \xc1\xd1\xd4?'
p163
tp164
Rp165
tp166
a((lp167
I5
ag23
(g24
(I0
tp168
g26
tp169
Rp170
(I1
(I1
tp171
g32
I00
S'\x0c?[='
p172
tp173
btp174
a((lp175
I5
ag23
(g24
(I0
tp176
g26
tp177
Rp178
(I1
(I1
tp179
g32
I00
S'\x01D2='
p180
tp181
btp182
a((lp183
I10
ag23
(g24
(I0
tp184
g26
tp185
Rp186
(I1
(I1
tp187
g32
I00
S'i\xc7\t='
p188
tp189
btp190
a((lp191
I8
ag23
(g24
(I0
tp192
g26
tp193
Rp194
(I1
(I1
tp195
g32
I00
S'\x84\xbf\xf5<'
p196
tp197
btp198
a((lp199
I9
ag23
(g24
(I0
tp200
g26
tp201
Rp202
(I1
(I1
tp203
g32
I00
S'A\x83\xe9<'
p204
tp205
btp206
a((lp207
I3
ag23
(g24
(I0
tp208
g26
tp209
Rp210
(I1
(I1
tp211
g32
I00
S'HT\xe1<'
p212
tp213
btp214
a((lp215
I2
ag23
(g24
(I0
tp216
g26
tp217
Rp218
(I1
(I1
tp219
g32
I00
S'\x81\x01\xda<'
p220
tp221
btp222
a((lp223
I6
ag23
(g24
(I0
tp224
g26
tp225
Rp226
(I1
(I1
tp227
g32
I00
S'hS\xcc<'
p228
tp229
btp230
a((lp231
I11
ag23
(g24
(I0
tp232
g26
tp233
Rp234
(I1
(I1
tp235
g32
I00
S'o\x14\xc6<'
p236
tp237
btp238
a((lp239
I7
ag23
(g24
(I0
tp240
g26
tp241
Rp242
(I1
(I1
tp243
g32
I00
S'|\x8b\xc2<'
p244
tp245
btp246
a((lp247
I1
ag23
(g24
(I0
tp248
g26
tp249
Rp250
(I1
(I1
tp251
g32
I00
S'\x9a?\xb8<'
p252
tp253
btp254
a((lp255
I4
ag23
(g24
(I0
tp256
g26
tp257
Rp258
(I1
(I1
tp259
g32
I00
S'\xe4\xff\xa8<'
p260
tp261
btp262
a((lp263
I0
ag23
(g24
(I0
tp264
g26
tp265
Rp266
(I1
(I1
tp267
g32
I00
S'\x0e~\x9f<'
p268
tp269
btp270
a((lp271
I10
ag23
(g24
(I0
tp272
g26
tp273
Rp274
(I1
(I1
tp275
g32
I00
S's\xf8\x96<'
p276
tp277
btp278
a((lp279
I8
ag23
(g24
(I0
tp280
g26
tp281
Rp282
(I1
(I1
tp283
g32
I00
S'\x94\xf3o<'
p284
tp285
btp286
a((lp287
I9
ag23
(g24
(I0
tp288
g26
tp289
Rp290
(I1
(I1
tp291
g32
I00
S'h\x94W<'
p292
tp293
btp294
a((lp295
I3
ag23
(g24
(I0
tp296
g26
tp297
Rp298
(I1
(I1
tp299
g32
I00
S'\x7fWP<'
p300
tp301
btp302
a((lp303
I2
ag23
(g24
(I0
tp304
g26
tp305
Rp306
(I1
(I1
tp307
g32
I00
S'`\xe0-<'
p308
tp309
btp310
a((lp311
I11
ag23
(g24
(I0
tp312
g26
tp313
Rp314
(I1
(I1
tp315
g32
I00
S'k\xd5-<'
p316
tp317
btp318
a((lp319
I6
ag23
(g24
(I0
tp320
g26
tp321
Rp322
(I1
(I1
tp323
g32
I00
S'\xeau+<'
p324
tp325
btp326
asg1
(g5
S'\x05\x00\x00\x00\x00\x00\x00\x00'
p327
tp328
Rp329
(lp330
((lp331
g1
(g15
S'\x00\x00\x00\xa0\xb4j\xd4?'
p332
tp333
Rp334
tp335
a((lp336
I2
ag23
(g24
(I0
tp337
g26
tp338
Rp339
(I1
(I1
tp340
g32
I00
S'\x1c\xe0\xe5='
p341
tp342
btp343
a((lp344
I2
ag23
(g24
(I0
tp345
g26
tp346
Rp347
(I1
(I1
tp348
g32
I00
S'\x9d#\xe0='
p349
tp350
btp351
a((lp352
I2
aI2
ag23
(g24
(I0
tp353
g26
tp354
Rp355
(I1
(I1
tp356
g32
I00
S'-\xea\x1f='
p357
tp358
btp359
a((lp360
I10
ag23
(g24
(I0
tp361
g26
tp362
Rp363
(I1
(I1
tp364
g32
I00
S'rw\xe8<'
p365
tp366
btp367
a((lp368
I9
ag23
(g24
(I0
tp369
g26
tp370
Rp371
(I1
(I1
tp372
g32
I00
S'E\xf5\xe2<'
p373
tp374
btp375
a((lp376
I1
ag23
(g24
(I0
tp377
g26
tp378
Rp379
(I1
(I1
tp380
g32
I00
S'\xba\x1f\xd7<'
p381
tp382
btp383
a((lp384
I11
ag23
(g24
(I0
tp385
g26
tp386
Rp387
(I1
(I1
tp388
g32
I00
S'y\x0b\xb1<'
p389
tp390
btp391
a((lp392
I6
ag23
(g24
(I0
tp393
g26
tp394
Rp395
(I1
(I1
tp396
g32
I00
S'\x7f\xee\xad<'
p397
tp398
btp399
a((lp400
I4
ag23
(g24
(I0
tp401
g26
tp402
Rp403
(I1
(I1
tp404
g32
I00
S'\xed\xa3\xac<'
p405
tp406
btp407
a((lp408
I3
ag23
(g24
(I0
tp409
g26
tp410
Rp411
(I1
(I1
tp412
g32
I00
S'\x9d\xc6\x9b<'
p413
tp414
btp415
a((lp416
I7
ag23
(g24
(I0
tp417
g26
tp418
Rp419
(I1
(I1
tp420
g32
I00
S'\xf4\x9f\x9a<'
p421
tp422
btp423
a((lp424
I5
ag23
(g24
(I0
tp425
g26
tp426
Rp427
(I1
(I1
tp428
g32
I00
S'\xdf\xac\x88<'
p429
tp430
btp431
a((lp432
I0
ag23
(g24
(I0
tp433
g26
tp434
Rp435
(I1
(I1
tp436
g32
I00
S'\x89\xffl<'
p437
tp438
btp439
a((lp440
I8
ag23
(g24
(I0
tp441
g26
tp442
Rp443
(I1
(I1
tp444
g32
I00
S'\xd0|P<'
p445
tp446
btp447
asg1
(g5
S'\x06\x00\x00\x00\x00\x00\x00\x00'
p448
tp449
Rp450
(lp451
((lp452
g1
(g15
S'\x00\x00\x00\x80\x9f\x8a\xd4?'
p453
tp454
Rp455
tp456
a((lp457
I11
ag23
(g24
(I0
tp458
g26
tp459
Rp460
(I1
(I1
tp461
g32
I00
S'\xac\xce\x82='
p462
tp463
btp464
a((lp465
I11
ag23
(g24
(I0
tp466
g26
tp467
Rp468
(I1
(I1
tp469
g32
I00
S'\x03ws='
p470
tp471
btp472
a((lp473
I8
ag23
(g24
(I0
tp474
g26
tp475
Rp476
(I1
(I1
tp477
g32
I00
S'\xf7~\xfe<'
p478
tp479
btp480
a((lp481
I4
ag23
(g24
(I0
tp482
g26
tp483
Rp484
(I1
(I1
tp485
g32
I00
S'\x0fo\xf1<'
p486
tp487
btp488
a((lp489
I3
ag23
(g24
(I0
tp490
g26
tp491
Rp492
(I1
(I1
tp493
g32
I00
S'\xa4\xc9\xe9<'
p494
tp495
btp496
a((lp497
I1
ag23
(g24
(I0
tp498
g26
tp499
Rp500
(I1
(I1
tp501
g32
I00
S'\xa2I\xd6<'
p502
tp503
btp504
a((lp505
I2
ag23
(g24
(I0
tp506
g26
tp507
Rp508
(I1
(I1
tp509
g32
I00
S'\x83v\xd5<'
p510
tp511
btp512
a((lp513
I9
ag23
(g24
(I0
tp514
g26
tp515
Rp516
(I1
(I1
tp517
g32
I00
S'\x17\x14\xd5<'
p518
tp519
btp520
a((lp521
I7
ag23
(g24
(I0
tp522
g26
tp523
Rp524
(I1
(I1
tp525
g32
I00
S'1N\xd3<'
p526
tp527
btp528
a((lp529
I6
ag23
(g24
(I0
tp530
g26
tp531
Rp532
(I1
(I1
tp533
g32
I00
S'A\xc0\xb2<'
p534
tp535
btp536
a((lp537
I5
ag23
(g24
(I0
tp538
g26
tp539
Rp540
(I1
(I1
tp541
g32
I00
S'm\x19\xa7<'
p542
tp543
btp544
a((lp545
I10
ag23
(g24
(I0
tp546
g26
tp547
Rp548
(I1
(I1
tp549
g32
I00
S'\x94\xf0\xa1<'
p550
tp551
btp552
a((lp553
I0
ag23
(g24
(I0
tp554
g26
tp555
Rp556
(I1
(I1
tp557
g32
I00
S'y\xb4\x8f<'
p558
tp559
btp560
a((lp561
I8
ag23
(g24
(I0
tp562
g26
tp563
Rp564
(I1
(I1
tp565
g32
I00
S'\xfb\x9f|<'
p566
tp567
btp568
a((lp569
I4
ag23
(g24
(I0
tp570
g26
tp571
Rp572
(I1
(I1
tp573
g32
I00
S'\xfd\xa1[<'
p574
tp575
btp576
a((lp577
I3
ag23
(g24
(I0
tp578
g26
tp579
Rp580
(I1
(I1
tp581
g32
I00
S')lI<'
p582
tp583
btp584
a((lp585
I11
aI11
ag23
(g24
(I0
tp586
g26
tp587
Rp588
(I1
(I1
tp589
g32
I00
S'\xcf\x84B<'
p590
tp591
btp592
a((lp593
I9
ag23
(g24
(I0
tp594
g26
tp595
Rp596
(I1
(I1
tp597
g32
I00
S'\x90w/<'
p598
tp599
btp600
a((lp601
I1
ag23
(g24
(I0
tp602
g26
tp603
Rp604
(I1
(I1
tp605
g32
I00
S'\x1f\xfc.<'
p606
tp607
btp608
asg1
(g5
S'\x08\x00\x00\x00\x00\x00\x00\x00'
p609
tp610
Rp611
(lp612
((lp613
g1
(g15
S'\x00\x00\x00 \x81G\xd4?'
p614
tp615
Rp616
tp617
a((lp618
I11
ag23
(g24
(I0
tp619
g26
tp620
Rp621
(I1
(I1
tp622
g32
I00
S'\x94\xa5\xdb='
p623
tp624
btp625
a((lp626
I11
ag23
(g24
(I0
tp627
g26
tp628
Rp629
(I1
(I1
tp630
g32
I00
S'][\xda='
p631
tp632
btp633
a((lp634
I11
aI11
ag23
(g24
(I0
tp635
g26
tp636
Rp637
(I1
(I1
tp638
g32
I00
S'\xa2\xf0\x14='
p639
tp640
btp641
a((lp642
I8
ag23
(g24
(I0
tp643
g26
tp644
Rp645
(I1
(I1
tp646
g32
I00
S'z\xed\x06='
p647
tp648
btp649
a((lp650
I1
ag23
(g24
(I0
tp651
g26
tp652
Rp653
(I1
(I1
tp654
g32
I00
S'\xbf\x8b\xc7<'
p655
tp656
btp657
a((lp658
I3
ag23
(g24
(I0
tp659
g26
tp660
Rp661
(I1
(I1
tp662
g32
I00
S'\x00\xbc\xc4<'
p663
tp664
btp665
a((lp666
I5
ag23
(g24
(I0
tp667
g26
tp668
Rp669
(I1
(I1
tp670
g32
I00
S'qY\xbf<'
p671
tp672
btp673
a((lp674
I10
ag23
(g24
(I0
tp675
g26
tp676
Rp677
(I1
(I1
tp678
g32
I00
S'\x18z\xbd<'
p679
tp680
btp681
a((lp682
I7
ag23
(g24
(I0
tp683
g26
tp684
Rp685
(I1
(I1
tp686
g32
I00
S'\xef&\xb7<'
p687
tp688
btp689
a((lp690
I4
ag23
(g24
(I0
tp691
g26
tp692
Rp693
(I1
(I1
tp694
g32
I00
S'W\xe4\xa1<'
p695
tp696
btp697
a((lp698
I9
ag23
(g24
(I0
tp699
g26
tp700
Rp701
(I1
(I1
tp702
g32
I00
S'\xe8\x11\xa0<'
p703
tp704
btp705
a((lp706
I6
ag23
(g24
(I0
tp707
g26
tp708
Rp709
(I1
(I1
tp710
g32
I00
S'K\x00\x99<'
p711
tp712
btp713
a((lp714
I2
ag23
(g24
(I0
tp715
g26
tp716
Rp717
(I1
(I1
tp718
g32
I00
S'\xad:s<'
p719
tp720
btp721
a((lp722
I8
aI11
ag23
(g24
(I0
tp723
g26
tp724
Rp725
(I1
(I1
tp726
g32
I00
S'\x15\x118<'
p727
tp728
btp729
a((lp730
I8
ag23
(g24
(I0
tp731
g26
tp732
Rp733
(I1
(I1
tp734
g32
I00
S'\xcc\xa22<'
p735
tp736
btp737
a((lp738
I0
ag23
(g24
(I0
tp739
g26
tp740
Rp741
(I1
(I1
tp742
g32
I00
S'J\xe2$<'
p743
tp744
btp745
asg1
(g5
S'\x0b\x00\x00\x00\x00\x00\x00\x00'
p746
tp747
Rp748
(lp749
((lp750
g1
(g15
S'\x00\x00\x00\x80(N\xd4?'
p751
tp752
Rp753
tp754
a((lp755
I8
ag23
(g24
(I0
tp756
g26
tp757
Rp758
(I1
(I1
tp759
g32
I00
S'\x98E\xca='
p760
tp761
btp762
a((lp763
I8
ag23
(g24
(I0
tp764
g26
tp765
Rp766
(I1
(I1
tp767
g32
I00
S'*\x00\xc1='
p768
tp769
btp770
a((lp771
I4
ag23
(g24
(I0
tp772
g26
tp773
Rp774
(I1
(I1
tp775
g32
I00
S'\xdc\x81\xf8<'
p776
tp777
btp778
a((lp779
I11
ag23
(g24
(I0
tp780
g26
tp781
Rp782
(I1
(I1
tp783
g32
I00
S'\x15\x8b\xf1<'
p784
tp785
btp786
a((lp787
I8
aI8
ag23
(g24
(I0
tp788
g26
tp789
Rp790
(I1
(I1
tp791
g32
I00
S'2\x84\xf1<'
p792
tp793
btp794
a((lp795
I3
ag23
(g24
(I0
tp796
g26
tp797
Rp798
(I1
(I1
tp799
g32
I00
S'\x9d>\xe2<'
p800
tp801
btp802
a((lp803
I10
ag23
(g24
(I0
tp804
g26
tp805
Rp806
(I1
(I1
tp807
g32
I00
S'TB\xd4<'
p808
tp809
btp810
a((lp811
I6
ag23
(g24
(I0
tp812
g26
tp813
Rp814
(I1
(I1
tp815
g32
I00
S'\x0b\xef\xb7<'
p816
tp817
btp818
a((lp819
I7
ag23
(g24
(I0
tp820
g26
tp821
Rp822
(I1
(I1
tp823
g32
I00
S'\x1d\x15\xb2<'
p824
tp825
btp826
a((lp827
I1
ag23
(g24
(I0
tp828
g26
tp829
Rp830
(I1
(I1
tp831
g32
I00
S'\xebc\xa9<'
p832
tp833
btp834
a((lp835
I9
ag23
(g24
(I0
tp836
g26
tp837
Rp838
(I1
(I1
tp839
g32
I00
S'\xe4\x99\xa7<'
p840
tp841
btp842
a((lp843
I5
ag23
(g24
(I0
tp844
g26
tp845
Rp846
(I1
(I1
tp847
g32
I00
S'\xe5\x90\xa5<'
p848
tp849
btp850
a((lp851
I2
ag23
(g24
(I0
tp852
g26
tp853
Rp854
(I1
(I1
tp855
g32
I00
S'\xd9Ht<'
p856
tp857
btp858
a((lp859
I4
ag23
(g24
(I0
tp860
g26
tp861
Rp862
(I1
(I1
tp863
g32
I00
S'\x1264<'
p864
tp865
btp866
a((lp867
I0
ag23
(g24
(I0
tp868
g26
tp869
Rp870
(I1
(I1
tp871
g32
I00
S'\x1d-+<'
p872
tp873
btp874
as.