(dp0
cnumpy.core.multiarray
scalar
p1
(cnumpy
dtype
p2
(S'i8'
p3
I0
I1
tp4
Rp5
(I3
S'<'
p6
NNNI-1
I-1
I0
tp7
bS'\x00\x00\x00\x00\x00\x00\x00\x00'
p8
tp9
Rp10
(lp11
((lp12
g1
(g2
(S'f8'
p13
I0
I1
tp14
Rp15
(I3
S'<'
p16
NNNI-1
I-1
I0
tp17
bS'\x00\x00\x00\x00\xe8\xaa\xd4?'
p18
tp19
Rp20
tp21
a((lp22
I3
acnumpy.core.multiarray
_reconstruct
p23
(cnumpy
ndarray
p24
(I0
tp25
S'b'
p26
tp27
Rp28
(I1
(I1
tp29
g2
(S'f4'
p30
I0
I1
tp31
Rp32
(I3
S'<'
p33
NNNI-1
I-1
I0
tp34
bI00
S'\xe5\xe1#='
p35
tp36
btp37
a((lp38
I6
ag23
(g24
(I0
tp39
g26
tp40
Rp41
(I1
(I1
tp42
g32
I00
S'`\xf4\x0c='
p43
tp44
btp45
a((lp46
I12
ag23
(g24
(I0
tp47
g26
tp48
Rp49
(I1
(I1
tp50
g32
I00
S'\x9eD\xf6<'
p51
tp52
btp53
a((lp54
I3
ag23
(g24
(I0
tp55
g26
tp56
Rp57
(I1
(I1
tp58
g32
I00
S'\xf7)\xed<'
p59
tp60
btp61
a((lp62
I5
ag23
(g24
(I0
tp63
g26
tp64
Rp65
(I1
(I1
tp66
g32
I00
S'+\xaa\xe6<'
p67
tp68
btp69
a((lp70
I2
ag23
(g24
(I0
tp71
g26
tp72
Rp73
(I1
(I1
tp74
g32
I00
S'\x99L\xe0<'
p75
tp76
btp77
a((lp78
I1
ag23
(g24
(I0
tp79
g26
tp80
Rp81
(I1
(I1
tp82
g32
I00
S'\x91\xb1\xcd<'
p83
tp84
btp85
a((lp86
I4
ag23
(g24
(I0
tp87
g26
tp88
Rp89
(I1
(I1
tp90
g32
I00
S'&0\xb6<'
p91
tp92
btp93
a((lp94
I11
ag23
(g24
(I0
tp95
g26
tp96
Rp97
(I1
(I1
tp98
g32
I00
S'\xfe\x1d\xb5<'
p99
tp100
btp101
a((lp102
I6
ag23
(g24
(I0
tp103
g26
tp104
Rp105
(I1
(I1
tp106
g32
I00
S'Cx\xa9<'
p107
tp108
btp109
a((lp110
I8
ag23
(g24
(I0
tp111
g26
tp112
Rp113
(I1
(I1
tp114
g32
I00
S'd\xf8\xa6<'
p115
tp116
btp117
a((lp118
I0
ag23
(g24
(I0
tp119
g26
tp120
Rp121
(I1
(I1
tp122
g32
I00
S'\xddW\x9d<'
p123
tp124
btp125
a((lp126
I12
ag23
(g24
(I0
tp127
g26
tp128
Rp129
(I1
(I1
tp130
g32
I00
S'\x87)\x9a<'
p131
tp132
btp133
a((lp134
I13
ag23
(g24
(I0
tp135
g26
tp136
Rp137
(I1
(I1
tp138
g32
I00
S';Q\x93<'
p139
tp140
btp141
a((lp142
I7
ag23
(g24
(I0
tp143
g26
tp144
Rp145
(I1
(I1
tp146
g32
I00
S'3"\x8e<'
p147
tp148
btp149
a((lp150
I9
ag23
(g24
(I0
tp151
g26
tp152
Rp153
(I1
(I1
tp154
g32
I00
S'\x8c\x00\x82<'
p155
tp156
btp157
a((lp158
I10
ag23
(g24
(I0
tp159
g26
tp160
Rp161
(I1
(I1
tp162
g32
I00
S'\x01r}<'
p163
tp164
btp165
a((lp166
I5
ag23
(g24
(I0
tp167
g26
tp168
Rp169
(I1
(I1
tp170
g32
I00
S'j\xc7w<'
p171
tp172
btp173
a((lp174
I2
ag23
(g24
(I0
tp175
g26
tp176
Rp177
(I1
(I1
tp178
g32
I00
S'W@j<'
p179
tp180
btp181
a((lp182
I1
ag23
(g24
(I0
tp183
g26
tp184
Rp185
(I1
(I1
tp186
g32
I00
S'F\xd4><'
p187
tp188
btp189
asg1
(g5
S'\x02\x00\x00\x00\x00\x00\x00\x00'
p190
tp191
Rp192
(lp193
((lp194
g1
(g15
S'\x00\x00\x00\x80m\xcf\xd4?'
p195
tp196
Rp197
tp198
a((lp199
I0
ag23
(g24
(I0
tp200
g26
tp201
Rp202
(I1
(I1
tp203
g32
I00
S'\xde\xfa\x10='
p204
tp205
btp206
a((lp207
I9
ag23
(g24
(I0
tp208
g26
tp209
Rp210
(I1
(I1
tp211
g32
I00
S'\xa0\x8f\x03='
p212
tp213
btp214
a((lp215
I13
ag23
(g24
(I0
tp216
g26
tp217
Rp218
(I1
(I1
tp219
g32
I00
S'nT\xe9<'
p220
tp221
btp222
a((lp223
I5
ag23
(g24
(I0
tp224
g26
tp225
Rp226
(I1
(I1
tp227
g32
I00
S'c\xb5\xe1<'
p228
tp229
btp230
a((lp231
I3
ag23
(g24
(I0
tp232
g26
tp233
Rp234
(I1
(I1
tp235
g32
I00
S'\x80t\xd2<'
p236
tp237
btp238
a((lp239
I0
ag23
(g24
(I0
tp240
g26
tp241
Rp242
(I1
(I1
tp243
g32
I00
S'\xc0\n\xc7<'
p244
tp245
btp246
a((lp247
I4
ag23
(g24
(I0
tp248
g26
tp249
Rp250
(I1
(I1
tp251
g32
I00
S'\xf0"\xc4<'
p252
tp253
btp254
a((lp255
I12
ag23
(g24
(I0
tp256
g26
tp257
Rp258
(I1
(I1
tp259
g32
I00
S'\xafH\xb8<'
p260
tp261
btp262
a((lp263
I1
ag23
(g24
(I0
tp264
g26
tp265
Rp266
(I1
(I1
tp267
g32
I00
S'\xdck\xaf<'
p268
tp269
btp270
a((lp271
I11
ag23
(g24
(I0
tp272
g26
tp273
Rp274
(I1
(I1
tp275
g32
I00
S't\xc1\xac<'
p276
tp277
btp278
a((lp279
I6
ag23
(g24
(I0
tp280
g26
tp281
Rp282
(I1
(I1
tp283
g32
I00
S'H\x0c\xab<'
p284
tp285
btp286
a((lp287
I8
ag23
(g24
(I0
tp288
g26
tp289
Rp290
(I1
(I1
tp291
g32
I00
S'1\xad\x9f<'
p292
tp293
btp294
a((lp295
I10
ag23
(g24
(I0
tp296
g26
tp297
Rp298
(I1
(I1
tp299
g32
I00
S'b \x9f<'
p300
tp301
btp302
a((lp303
I7
ag23
(g24
(I0
tp304
g26
tp305
Rp306
(I1
(I1
tp307
g32
I00
S'Y>\x9e<'
p308
tp309
btp310
a((lp311
I9
ag23
(g24
(I0
tp312
g26
tp313
Rp314
(I1
(I1
tp315
g32
I00
S'G\x93\x9b<'
p316
tp317
btp318
a((lp319
I2
ag23
(g24
(I0
tp320
g26
tp321
Rp322
(I1
(I1
tp323
g32
I00
S'\xa5.\x91<'
p324
tp325
btp326
a((lp327
I13
ag23
(g24
(I0
tp328
g26
tp329
Rp330
(I1
(I1
tp331
g32
I00
S'\xa6~\x81<'
p332
tp333
btp334
a((lp335
I5
ag23
(g24
(I0
tp336
g26
tp337
Rp338
(I1
(I1
tp339
g32
I00
S'<\xe6v<'
p340
tp341
btp342
a((lp343
I3
ag23
(g24
(I0
tp344
g26
tp345
Rp346
(I1
(I1
tp347
g32
I00
S'\x98|U<'
p348
tp349
btp350
a((lp351
I4
ag23
(g24
(I0
tp352
g26
tp353
Rp354
(I1
(I1
tp355
g32
I00
S'\xec\xd8B<'
p356
tp357
btp358
a((lp359
I12
ag23
(g24
(I0
tp360
g26
tp361
Rp362
(I1
(I1
tp363
g32
I00
S'\x1c $<'
p364
tp365
btp366
asg1
(g5
S'\x03\x00\x00\x00\x00\x00\x00\x00'
p367
tp368
Rp369
(lp370
((lp371
g1
(g15
S'\x00\x00\x00\xa0\x12\xda\xd4?'
p372
tp373
Rp374
tp375
a((lp376
I10
ag23
(g24
(I0
tp377
g26
tp378
Rp379
(I1
(I1
tp380
g32
I00
S'\xc0(\x08='
p381
tp382
btp383
a((lp384
I0
ag23
(g24
(I0
tp385
g26
tp386
Rp387
(I1
(I1
tp388
g32
I00
S'\xe9R\xfa<'
p389
tp390
btp391
a((lp392
I11
ag23
(g24
(I0
tp393
g26
tp394
Rp395
(I1
(I1
tp396
g32
I00
S'\xc4^\xf3<'
p397
tp398
btp399
a((lp400
I9
ag23
(g24
(I0
tp401
g26
tp402
Rp403
(I1
(I1
tp404
g32
I00
S'.\t\xe1<'
p405
tp406
btp407
a((lp408
I6
ag23
(g24
(I0
tp409
g26
tp410
Rp411
(I1
(I1
tp412
g32
I00
S"\x91'\xd1<"
p413
tp414
btp415
a((lp416
I13
ag23
(g24
(I0
tp417
g26
tp418
Rp419
(I1
(I1
tp420
g32
I00
S'\xd2\xec\xcf<'
p421
tp422
btp423
a((lp424
I3
ag23
(g24
(I0
tp425
g26
tp426
Rp427
(I1
(I1
tp428
g32
I00
S'\xf1\xd4\xc2<'
p429
tp430
btp431
a((lp432
I10
ag23
(g24
(I0
tp433
g26
tp434
Rp435
(I1
(I1
tp436
g32
I00
S'\xbd\xd3\xad<'
p437
tp438
btp439
a((lp440
I4
ag23
(g24
(I0
tp441
g26
tp442
Rp443
(I1
(I1
tp444
g32
I00
S'1\xc6\xac<'
p445
tp446
btp447
a((lp448
I8
ag23
(g24
(I0
tp449
g26
tp450
Rp451
(I1
(I1
tp452
g32
I00
S'EF\xac<'
p453
tp454
btp455
a((lp456
I5
ag23
(g24
(I0
tp457
g26
tp458
Rp459
(I1
(I1
tp460
g32
I00
S'}\xed\xa5<'
p461
tp462
btp463
a((lp464
I7
ag23
(g24
(I0
tp465
g26
tp466
Rp467
(I1
(I1
tp468
g32
I00
S'e7\xa0<'
p469
tp470
btp471
a((lp472
I1
ag23
(g24
(I0
tp473
g26
tp474
Rp475
(I1
(I1
tp476
g32
I00
S'\x97\xa4\x9f<'
p477
tp478
btp479
a((lp480
I2
ag23
(g24
(I0
tp481
g26
tp482
Rp483
(I1
(I1
tp484
g32
I00
S'\xab\xfb\x95<'
p485
tp486
btp487
a((lp488
I12
ag23
(g24
(I0
tp489
g26
tp490
Rp491
(I1
(I1
tp492
g32
I00
S'\xb4v\x94<'
p493
tp494
btp495
a((lp496
I0
ag23
(g24
(I0
tp497
g26
tp498
Rp499
(I1
(I1
tp500
g32
I00
S'\xa3\xf8\x93<'
p501
tp502
btp503
a((lp504
I11
ag23
(g24
(I0
tp505
g26
tp506
Rp507
(I1
(I1
tp508
g32
I00
S'\x1f\xba\x8c<'
p509
tp510
btp511
a((lp512
I9
ag23
(g24
(I0
tp513
g26
tp514
Rp515
(I1
(I1
tp516
g32
I00
S'\xf8\x05|<'
p517
tp518
btp519
a((lp520
I13
ag23
(g24
(I0
tp521
g26
tp522
Rp523
(I1
(I1
tp524
g32
I00
S'}\xefW<'
p525
tp526
btp527
a((lp528
I6
ag23
(g24
(I0
tp529
g26
tp530
Rp531
(I1
(I1
tp532
g32
I00
S'\xbb\xc6R<'
p533
tp534
btp535
a((lp536
I3
ag23
(g24
(I0
tp537
g26
tp538
Rp539
(I1
(I1
tp540
g32
I00
S'{\xd4<<'
p541
tp542
btp543
asg1
(g5
S'\x05\x00\x00\x00\x00\x00\x00\x00'
p544
tp545
Rp546
(lp547
((lp548
g1
(g15
S'\x00\x00\x00\xe0X\xba\xd4?'
p549
tp550
Rp551
tp552
a((lp553
I0
ag23
(g24
(I0
tp554
g26
tp555
Rp556
(I1
(I1
tp557
g32
I00
S'E+F='
p558
tp559
btp560
a((lp561
I0
ag23
(g24
(I0
tp562
g26
tp563
Rp564
(I1
(I1
tp565
g32
I00
S'/\xfb\x1e='
p566
tp567
btp568
a((lp569
I6
ag23
(g24
(I0
tp570
g26
tp571
Rp572
(I1
(I1
tp573
g32
I00
S'#\x87\x07='
p574
tp575
btp576
a((lp577
I3
ag23
(g24
(I0
tp578
g26
tp579
Rp580
(I1
(I1
tp581
g32
I00
S'\xda\x04\x06='
p582
tp583
btp584
a((lp585
I9
ag23
(g24
(I0
tp586
g26
tp587
Rp588
(I1
(I1
tp589
g32
I00
S'\xee#\xe7<'
p590
tp591
btp592
a((lp593
I4
ag23
(g24
(I0
tp594
g26
tp595
Rp596
(I1
(I1
tp597
g32
I00
S'>\xc6\xc7<'
p598
tp599
btp600
a((lp601
I2
ag23
(g24
(I0
tp602
g26
tp603
Rp604
(I1
(I1
tp605
g32
I00
S'#\xf5\xba<'
p606
tp607
btp608
a((lp609
I5
ag23
(g24
(I0
tp610
g26
tp611
Rp612
(I1
(I1
tp613
g32
I00
S'L@\xaf<'
p614
tp615
btp616
a((lp617
I11
ag23
(g24
(I0
tp618
g26
tp619
Rp620
(I1
(I1
tp621
g32
I00
S'\x06\xe5\xaa<'
p622
tp623
btp624
a((lp625
I6
ag23
(g24
(I0
tp626
g26
tp627
Rp628
(I1
(I1
tp629
g32
I00
S'l\xc3\xa2<'
p630
tp631
btp632
a((lp633
I13
ag23
(g24
(I0
tp634
g26
tp635
Rp636
(I1
(I1
tp637
g32
I00
S'\x8c\xbb\x9f<'
p638
tp639
btp640
a((lp641
I3
ag23
(g24
(I0
tp642
g26
tp643
Rp644
(I1
(I1
tp645
g32
I00
S'(\x84\x9a<'
p646
tp647
btp648
a((lp649
I10
ag23
(g24
(I0
tp650
g26
tp651
Rp652
(I1
(I1
tp653
g32
I00
S'\xfe\xde\x99<'
p654
tp655
btp656
a((lp657
I12
ag23
(g24
(I0
tp658
g26
tp659
Rp660
(I1
(I1
tp661
g32
I00
S'\xd7\r\x97<'
p662
tp663
btp664
a((lp665
I7
ag23
(g24
(I0
tp666
g26
tp667
Rp668
(I1
(I1
tp669
g32
I00
S'\x0b\xe3\x83<'
p670
tp671
btp672
a((lp673
I8
ag23
(g24
(I0
tp674
g26
tp675
Rp676
(I1
(I1
tp677
g32
I00
S'\x94\x12\x7f<'
p678
tp679
btp680
a((lp681
I1
ag23
(g24
(I0
tp682
g26
tp683
Rp684
(I1
(I1
tp685
g32
I00
S'\x8d\xfe}<'
p686
tp687
btp688
a((lp689
I9
ag23
(g24
(I0
tp690
g26
tp691
Rp692
(I1
(I1
tp693
g32
I00
S'\xeb\x1ee<'
p694
tp695
btp696
a((lp697
I4
ag23
(g24
(I0
tp698
g26
tp699
Rp700
(I1
(I1
tp701
g32
I00
S'Em<<'
p702
tp703
btp704
a((lp705
I2
ag23
(g24
(I0
tp706
g26
tp707
Rp708
(I1
(I1
tp709
g32
I00
S'7\x06)<'
p710
tp711
btp712
asg1
(g5
S'\x06\x00\x00\x00\x00\x00\x00\x00'
p713
tp714
Rp715
(lp716
((lp717
g1
(g15
S'\x00\x00\x00 &b\xd4?'
p718
tp719
Rp720
tp721
a((lp722
I3
ag23
(g24
(I0
tp723
g26
tp724
Rp725
(I1
(I1
tp726
g32
I00
S']\x81e='
p727
tp728
btp729
a((lp730
I3
ag23
(g24
(I0
tp731
g26
tp732
Rp733
(I1
(I1
tp734
g32
I00
S'>\xf7K='
p735
tp736
btp737
a((lp738
I0
ag23
(g24
(I0
tp739
g26
tp740
Rp741
(I1
(I1
tp742
g32
I00
S'.o\x17='
p743
tp744
btp745
a((lp746
I4
ag23
(g24
(I0
tp747
g26
tp748
Rp749
(I1
(I1
tp750
g32
I00
S'h\x80\x03='
p751
tp752
btp753
a((lp754
I0
ag23
(g24
(I0
tp755
g26
tp756
Rp757
(I1
(I1
tp758
g32
I00
S'\x8d\xc7\xc4<'
p759
tp760
btp761
a((lp762
I1
ag23
(g24
(I0
tp763
g26
tp764
Rp765
(I1
(I1
tp766
g32
I00
S'\x9a\xb7\xc0<'
p767
tp768
btp769
a((lp770
I2
ag23
(g24
(I0
tp771
g26
tp772
Rp773
(I1
(I1
tp774
g32
I00
S'F\x10\xc0<'
p775
tp776
btp777
a((lp778
I5
ag23
(g24
(I0
tp779
g26
tp780
Rp781
(I1
(I1
tp782
g32
I00
S'\xa4\xcb\xb5<'
p783
tp784
btp785
a((lp786
I6
ag23
(g24
(I0
tp787
g26
tp788
Rp789
(I1
(I1
tp790
g32
I00
S'\x8f\x0e\xb0<'
p791
tp792
btp793
a((lp794
I11
ag23
(g24
(I0
tp795
g26
tp796
Rp797
(I1
(I1
tp798
g32
I00
S'\xd0\x1d\xa9<'
p799
tp800
btp801
a((lp802
I13
ag23
(g24
(I0
tp803
g26
tp804
Rp805
(I1
(I1
tp806
g32
I00
S'\xb3W\xa0<'
p807
tp808
btp809
a((lp810
I12
ag23
(g24
(I0
tp811
g26
tp812
Rp813
(I1
(I1
tp814
g32
I00
S'\xdaz\x8f<'
p815
tp816
btp817
a((lp818
I4
ag23
(g24
(I0
tp819
g26
tp820
Rp821
(I1
(I1
tp822
g32
I00
S'\x1b=\x8f<'
p823
tp824
btp825
a((lp826
I8
ag23
(g24
(I0
tp827
g26
tp828
Rp829
(I1
(I1
tp830
g32
I00
S'\xd6^\x8e<'
p831
tp832
btp833
a((lp834
I9
ag23
(g24
(I0
tp835
g26
tp836
Rp837
(I1
(I1
tp838
g32
I00
S'D\xc2\x8b<'
p839
tp840
btp841
a((lp842
I7
ag23
(g24
(I0
tp843
g26
tp844
Rp845
(I1
(I1
tp846
g32
I00
S'0*{<'
p847
tp848
btp849
a((lp850
I10
ag23
(g24
(I0
tp851
g26
tp852
Rp853
(I1
(I1
tp854
g32
I00
S'g\xf6\\<'
p855
tp856
btp857
asg1
(g5
S'\x07\x00\x00\x00\x00\x00\x00\x00'
p858
tp859
Rp860
(lp861
((lp862
g1
(g15
S'\x00\x00\x00\xc0\xf1\xcc\xd3?'
p863
tp864
Rp865
tp866
a((lp867
I13
ag23
(g24
(I0
tp868
g26
tp869
Rp870
(I1
(I1
tp871
g32
I00
S'[\x06\xc3='
p872
tp873
btp874
a((lp875
I13
ag23
(g24
(I0
tp876
g26
tp877
Rp878
(I1
(I1
tp879
g32
I00
S'\xb8\xe4\xc2='
p880
tp881
btp882
a((lp883
I9
ag23
(g24
(I0
tp884
g26
tp885
Rp886
(I1
(I1
tp887
g32
I00
S'^\xdb!='
p888
tp889
btp890
a((lp891
I10
ag23
(g24
(I0
tp892
g26
tp893
Rp894
(I1
(I1
tp895
g32
I00
S'\x1cS\x1a='
p896
tp897
btp898
a((lp899
I13
aI13
ag23
(g24
(I0
tp900
g26
tp901
Rp902
(I1
(I1
tp903
g32
I00
S'\x07\xe6\xf2<'
p904
tp905
btp906
a((lp907
I8
ag23
(g24
(I0
tp908
g26
tp909
Rp910
(I1
(I1
tp911
g32
I00
S'\xa7k\xc4<'
p912
tp913
btp914
a((lp915
I4
ag23
(g24
(I0
tp916
g26
tp917
Rp918
(I1
(I1
tp919
g32
I00
S'\r\xcf\xbd<'
p920
tp921
btp922
a((lp923
I11
ag23
(g24
(I0
tp924
g26
tp925
Rp926
(I1
(I1
tp927
g32
I00
S'\xf3\x8a\x9a<'
p928
tp929
btp930
a((lp931
I6
ag23
(g24
(I0
tp932
g26
tp933
Rp934
(I1
(I1
tp935
g32
I00
S'\xa1\xd9\x97<'
p936
tp937
btp938
a((lp939
I9
ag23
(g24
(I0
tp940
g26
tp941
Rp942
(I1
(I1
tp943
g32
I00
S'\x07*\x8d<'
p944
tp945
btp946
a((lp947
I7
ag23
(g24
(I0
tp948
g26
tp949
Rp950
(I1
(I1
tp951
g32
I00
S'!\xb7\x89<'
p952
tp953
btp954
a((lp955
I10
ag23
(g24
(I0
tp956
g26
tp957
Rp958
(I1
(I1
tp959
g32
I00
S'7\xfe|<'
p960
tp961
btp962
a((lp963
I1
ag23
(g24
(I0
tp964
g26
tp965
Rp966
(I1
(I1
tp967
g32
I00
S'4\x88w<'
p968
tp969
btp970
a((lp971
I0
ag23
(g24
(I0
tp972
g26
tp973
Rp974
(I1
(I1
tp975
g32
I00
S'\x8f\xf1[<'
p976
tp977
btp978
a((lp979
I9
aI13
ag23
(g24
(I0
tp980
g26
tp981
Rp982
(I1
(I1
tp983
g32
I00
S'\xb6\x96I<'
p984
tp985
btp986
a((lp987
I5
ag23
(g24
(I0
tp988
g26
tp989
Rp990
(I1
(I1
tp991
g32
I00
S'\x0c\xdbB<'
p992
tp993
btp994
a((lp995
I10
aI13
ag23
(g24
(I0
tp996
g26
tp997
Rp998
(I1
(I1
tp999
g32
I00
S'\x1d5@<'
p1000
tp1001
btp1002
a((lp1003
I2
ag23
(g24
(I0
tp1004
g26
tp1005
Rp1006
(I1
(I1
tp1007
g32
I00
S'\x8eo2<'
p1008
tp1009
btp1010
a((lp1011
I3
ag23
(g24
(I0
tp1012
g26
tp1013
Rp1014
(I1
(I1
tp1015
g32
I00
S"e#'<"
p1016
tp1017
btp1018
asg1
(g5
S'\t\x00\x00\x00\x00\x00\x00\x00'
p1019
tp1020
Rp1021
(lp1022
((lp1023
g1
(g15
S'\x00\x00\x00\xe0\xff\xca\xd4?'
p1024
tp1025
Rp1026
tp1027
a((lp1028
I11
ag23
(g24
(I0
tp1029
g26
tp1030
Rp1031
(I1
(I1
tp1032
g32
I00
S'\xe3H\x02='
p1033
tp1034
btp1035
a((lp1036
I10
ag23
(g24
(I0
tp1037
g26
tp1038
Rp1039
(I1
(I1
tp1040
g32
I00
S"\x98'\x00="
p1041
tp1042
btp1043
a((lp1044
I7
ag23
(g24
(I0
tp1045
g26
tp1046
Rp1047
(I1
(I1
tp1048
g32
I00
S'\xbfa\xe6<'
p1049
tp1050
btp1051
a((lp1052
I6
ag23
(g24
(I0
tp1053
g26
tp1054
Rp1055
(I1
(I1
tp1056
g32
I00
S'\x1e\xc6\xe2<'
p1057
tp1058
btp1059
a((lp1060
I12
ag23
(g24
(I0
tp1061
g26
tp1062
Rp1063
(I1
(I1
tp1064
g32
I00
S'E\x99\xe2<'
p1065
tp1066
btp1067
a((lp1068
I9
ag23
(g24
(I0
tp1069
g26
tp1070
Rp1071
(I1
(I1
tp1072
g32
I00
S'n\x03\xce<'
p1073
tp1074
btp1075
a((lp1076
I8
ag23
(g24
(I0
tp1077
g26
tp1078
Rp1079
(I1
(I1
tp1080
g32
I00
S'?\x95\xc6<'
p1081
tp1082
btp1083
a((lp1084
I5
ag23
(g24
(I0
tp1085
g26
tp1086
Rp1087
(I1
(I1
tp1088
g32
I00
S'\xber\xaa<'
p1089
tp1090
btp1091
a((lp1092
I2
ag23
(g24
(I0
tp1093
g26
tp1094
Rp1095
(I1
(I1
tp1096
g32
I00
S'8\xa6\xa8<'
p1097
tp1098
btp1099
a((lp1100
I4
ag23
(g24
(I0
tp1101
g26
tp1102
Rp1103
(I1
(I1
tp1104
g32
I00
S'\xf4\xe3\xa6<'
p1105
tp1106
btp1107
a((lp1108
I1
ag23
(g24
(I0
tp1109
g26
tp1110
Rp1111
(I1
(I1
tp1112
g32
I00
S'"\x16\xa6<'
p1113
tp1114
btp1115
a((lp1116
I10
ag23
(g24
(I0
tp1117
g26
tp1118
Rp1119
(I1
(I1
tp1120
g32
I00
S'\xc1\xd7\xa1<'
p1121
tp1122
btp1123
a((lp1124
I13
ag23
(g24
(I0
tp1125
g26
tp1126
Rp1127
(I1
(I1
tp1128
g32
I00
S'\x16\xdc\x9e<'
p1129
tp1130
btp1131
a((lp1132
I11
ag23
(g24
(I0
tp1133
g26
tp1134
Rp1135
(I1
(I1
tp1136
g32
I00
S'y\x83\x9d<'
p1137
tp1138
btp1139
a((lp1140
I3
ag23
(g24
(I0
tp1141
g26
tp1142
Rp1143
(I1
(I1
tp1144
g32
I00
S'@\xa1\x99<'
p1145
tp1146
btp1147
a((lp1148
I0
ag23
(g24
(I0
tp1149
g26
tp1150
Rp1151
(I1
(I1
tp1152
g32
I00
S'\xc4\xdd\x94<'
p1153
tp1154
btp1155
a((lp1156
I7
ag23
(g24
(I0
tp1157
g26
tp1158
Rp1159
(I1
(I1
tp1160
g32
I00
S'\x86`\x81<'
p1161
tp1162
btp1163
a((lp1164
I6
ag23
(g24
(I0
tp1165
g26
tp1166
Rp1167
(I1
(I1
tp1168
g32
I00
S'<Tp<'
p1169
tp1170
btp1171
a((lp1172
I12
ag23
(g24
(I0
tp1173
g26
tp1174
Rp1175
(I1
(I1
tp1176
g32
I00
S'\x9a\xedo<'
p1177
tp1178
btp1179
a((lp1180
I9
ag23
(g24
(I0
tp1181
g26
tp1182
Rp1183
(I1
(I1
tp1184
g32
I00
S'\x12AN<'
p1185
tp1186
btp1187
a((lp1188
I8
ag23
(g24
(I0
tp1189
g26
tp1190
Rp1191
(I1
(I1
tp1192
g32
I00
S'V-M<'
p1193
tp1194
btp1195
asg1
(g5
S'\n\x00\x00\x00\x00\x00\x00\x00'
p1196
tp1197
Rp1198
(lp1199
((lp1200
g1
(g15
S'\x00\x00\x00\x00\xeb\xef\xd4?'
p1201
tp1202
Rp1203
tp1204
a((lp1205
I9
ag23
(g24
(I0
tp1206
g26
tp1207
Rp1208
(I1
(I1
tp1209
g32
I00
S'\xaf_\x0c='
p1210
tp1211
btp1212
a((lp1213
I8
ag23
(g24
(I0
tp1214
g26
tp1215
Rp1216
(I1
(I1
tp1217
g32
I00
S'\xf9P\xef<'
p1218
tp1219
btp1220
a((lp1221
I6
ag23
(g24
(I0
tp1222
g26
tp1223
Rp1224
(I1
(I1
tp1225
g32
I00
S'\x87\xb2\xe7<'
p1226
tp1227
btp1228
a((lp1229
I10
ag23
(g24
(I0
tp1230
g26
tp1231
Rp1232
(I1
(I1
tp1233
g32
I00
S'F#\xe1<'
p1234
tp1235
btp1236
a((lp1237
I2
ag23
(g24
(I0
tp1238
g26
tp1239
Rp1240
(I1
(I1
tp1241
g32
I00
S'M?\xd9<'
p1242
tp1243
btp1244
a((lp1245
I11
ag23
(g24
(I0
tp1246
g26
tp1247
Rp1248
(I1
(I1
tp1249
g32
I00
S'\x84h\xd6<'
p1250
tp1251
btp1252
a((lp1253
I3
ag23
(g24
(I0
tp1254
g26
tp1255
Rp1256
(I1
(I1
tp1257
g32
I00
S'\xb4\xe5\xc9<'
p1258
tp1259
btp1260
a((lp1261
I0
ag23
(g24
(I0
tp1262
g26
tp1263
Rp1264
(I1
(I1
tp1265
g32
I00
S'\xce1\xbb<'
p1266
tp1267
btp1268
a((lp1269
I4
ag23
(g24
(I0
tp1270
g26
tp1271
Rp1272
(I1
(I1
tp1273
g32
I00
S'\xf7\xa3\xb7<'
p1274
tp1275
btp1276
a((lp1277
I1
ag23
(g24
(I0
tp1278
g26
tp1279
Rp1280
(I1
(I1
tp1281
g32
I00
S'\xa6\x00\xb5<'
p1282
tp1283
btp1284
a((lp1285
I9
ag23
(g24
(I0
tp1286
g26
tp1287
Rp1288
(I1
(I1
tp1289
g32
I00
S'bW\xaa<'
p1290
tp1291
btp1292
a((lp1293
I12
ag23
(g24
(I0
tp1294
g26
tp1295
Rp1296
(I1
(I1
tp1297
g32
I00
S'\xbe\x04\xa4<'
p1298
tp1299
btp1300
a((lp1301
I13
ag23
(g24
(I0
tp1302
g26
tp1303
Rp1304
(I1
(I1
tp1305
g32
I00
S'O\xba\x91<'
p1306
tp1307
btp1308
a((lp1309
I5
ag23
(g24
(I0
tp1310
g26
tp1311
Rp1312
(I1
(I1
tp1313
g32
I00
S'\xba\xd2\x8e<'
p1314
tp1315
btp1316
a((lp1317
I8
ag23
(g24
(I0
tp1318
g26
tp1319
Rp1320
(I1
(I1
tp1321
g32
I00
S'![\x87<'
p1322
tp1323
btp1324
a((lp1325
I6
ag23
(g24
(I0
tp1326
g26
tp1327
Rp1328
(I1
(I1
tp1329
g32
I00
S'5\xc5~<'
p1330
tp1331
btp1332
a((lp1333
I10
ag23
(g24
(I0
tp1334
g26
tp1335
Rp1336
(I1
(I1
tp1337
g32
I00
S'\xcf7z<'
p1338
tp1339
btp1340
a((lp1341
I7
ag23
(g24
(I0
tp1342
g26
tp1343
Rp1344
(I1
(I1
tp1345
g32
I00
S'f!y<'
p1346
tp1347
btp1348
a((lp1349
I2
ag23
(g24
(I0
tp1350
g26
tp1351
Rp1352
(I1
(I1
tp1353
g32
I00
S'\x00uj<'
p1354
tp1355
btp1356
a((lp1357
I11
ag23
(g24
(I0
tp1358
g26
tp1359
Rp1360
(I1
(I1
tp1361
g32
I00
S'\xee\x03a<'
p1362
tp1363
btp1364
a((lp1365
I3
ag23
(g24
(I0
tp1366
g26
tp1367
Rp1368
(I1
(I1
tp1369
g32
I00
S'{.H<'
p1370
tp1371
btp1372
a((lp1373
I4
ag23
(g24
(I0
tp1374
g26
tp1375
Rp1376
(I1
(I1
tp1377
g32
I00
S'P\x88*<'
p1378
tp1379
btp1380
a((lp1381
I1
ag23
(g24
(I0
tp1382
g26
tp1383
Rp1384
(I1
(I1
tp1385
g32
I00
S"(\xe2'<"
p1386
tp1387
btp1388
a((lp1389
I0
ag23
(g24
(I0
tp1390
g26
tp1391
Rp1392
(I1
(I1
tp1393
g32
I00
S'c_$<'
p1394
tp1395
btp1396
asg1
(g5
S'\x0c\x00\x00\x00\x00\x00\x00\x00'
p1397
tp1398
Rp1399
(lp1400
((lp1401
g1
(g15
S'\x00\x00\x00\x80R\xd4\xd4?'
p1402
tp1403
Rp1404
tp1405
a((lp1406
I0
ag23
(g24
(I0
tp1407
g26
tp1408
Rp1409
(I1
(I1
tp1410
g32
I00
S'\x04\xc6D='
p1411
tp1412
btp1413
a((lp1414
I0
ag23
(g24
(I0
tp1415
g26
tp1416
Rp1417
(I1
(I1
tp1418
g32
I00
S'\xdf\xe1"='
p1419
tp1420
btp1421
a((lp1422
I3
ag23
(g24
(I0
tp1423
g26
tp1424
Rp1425
(I1
(I1
tp1426
g32
I00
S'\xddT\x10='
p1427
tp1428
btp1429
a((lp1430
I6
ag23
(g24
(I0
tp1431
g26
tp1432
Rp1433
(I1
(I1
tp1434
g32
I00
S'\x88\x82\xf5<'
p1435
tp1436
btp1437
a((lp1438
I9
ag23
(g24
(I0
tp1439
g26
tp1440
Rp1441
(I1
(I1
tp1442
g32
I00
S'\xdb\xdd\xdf<'
p1443
tp1444
btp1445
a((lp1446
I3
ag23
(g24
(I0
tp1447
g26
tp1448
Rp1449
(I1
(I1
tp1450
g32
I00
S'\x8c\xd2\xb9<'
p1451
tp1452
btp1453
a((lp1454
I13
ag23
(g24
(I0
tp1455
g26
tp1456
Rp1457
(I1
(I1
tp1458
g32
I00
S'O6\xb9<'
p1459
tp1460
btp1461
a((lp1462
I4
ag23
(g24
(I0
tp1463
g26
tp1464
Rp1465
(I1
(I1
tp1466
g32
I00
S'\xd2U\xb6<'
p1467
tp1468
btp1469
a((lp1470
I11
ag23
(g24
(I0
tp1471
g26
tp1472
Rp1473
(I1
(I1
tp1474
g32
I00
S'RR\xb1<'
p1475
tp1476
btp1477
a((lp1478
I1
ag23
(g24
(I0
tp1479
g26
tp1480
Rp1481
(I1
(I1
tp1482
g32
I00
S'MI\xac<'
p1483
tp1484
btp1485
a((lp1486
I2
ag23
(g24
(I0
tp1487
g26
tp1488
Rp1489
(I1
(I1
tp1490
g32
I00
S'v\xc3\xa8<'
p1491
tp1492
btp1493
a((lp1494
I8
ag23
(g24
(I0
tp1495
g26
tp1496
Rp1497
(I1
(I1
tp1498
g32
I00
S'\x95\x94\xa0<'
p1499
tp1500
btp1501
a((lp1502
I12
ag23
(g24
(I0
tp1503
g26
tp1504
Rp1505
(I1
(I1
tp1506
g32
I00
S'\xf5\xc8\x9f<'
p1507
tp1508
btp1509
a((lp1510
I5
ag23
(g24
(I0
tp1511
g26
tp1512
Rp1513
(I1
(I1
tp1514
g32
I00
S'\xa3X\x93<'
p1515
tp1516
btp1517
a((lp1518
I6
ag23
(g24
(I0
tp1519
g26
tp1520
Rp1521
(I1
(I1
tp1522
g32
I00
S'eU\x7f<'
p1523
tp1524
btp1525
a((lp1526
I7
ag23
(g24
(I0
tp1527
g26
tp1528
Rp1529
(I1
(I1
tp1530
g32
I00
S'Uio<'
p1531
tp1532
btp1533
a((lp1534
I10
ag23
(g24
(I0
tp1535
g26
tp1536
Rp1537
(I1
(I1
tp1538
g32
I00
S'[\xc6m<'
p1539
tp1540
btp1541
a((lp1542
I9
ag23
(g24
(I0
tp1543
g26
tp1544
Rp1545
(I1
(I1
tp1546
g32
I00
S'h<Z<'
p1547
tp1548
btp1549
asg1
(g5
S'\r\x00\x00\x00\x00\x00\x00\x00'
p1550
tp1551
Rp1552
(lp1553
((lp1554
g1
(g15
S'\x00\x00\x00@\xdd*\xd4?'
p1555
tp1556
Rp1557
tp1558
a((lp1559
I10
ag23
(g24
(I0
tp1560
g26
tp1561
Rp1562
(I1
(I1
tp1563
g32
I00
S'\xbfk\xce='
p1564
tp1565
btp1566
a((lp1567
I10
ag23
(g24
(I0
tp1568
g26
tp1569
Rp1570
(I1
(I1
tp1571
g32
I00
S'/\xf6\xc4='
p1572
tp1573
btp1574
a((lp1575
I8
ag23
(g24
(I0
tp1576
g26
tp1577
Rp1578
(I1
(I1
tp1579
g32
I00
S'P\xf5\x05='
p1580
tp1581
btp1582
a((lp1583
I10
aI10
ag23
(g24
(I0
tp1584
g26
tp1585
Rp1586
(I1
(I1
tp1587
g32
I00
S'\x1c\xce\xff<'
p1588
tp1589
btp1590
a((lp1591
I11
ag23
(g24
(I0
tp1592
g26
tp1593
Rp1594
(I1
(I1
tp1595
g32
I00
S'\x1e\x91\xee<'
p1596
tp1597
btp1598
a((lp1599
I13
ag23
(g24
(I0
tp1600
g26
tp1601
Rp1602
(I1
(I1
tp1603
g32
I00
S'\xbb\xdc\xcc<'
p1604
tp1605
btp1606
a((lp1607
I9
ag23
(g24
(I0
tp1608
g26
tp1609
Rp1610
(I1
(I1
tp1611
g32
I00
S'R\xef\xb3<'
p1612
tp1613
btp1614
a((lp1615
I1
ag23
(g24
(I0
tp1616
g26
tp1617
Rp1618
(I1
(I1
tp1619
g32
I00
S'\x9e5\xa6<'
p1620
tp1621
btp1622
a((lp1623
I7
ag23
(g24
(I0
tp1624
g26
tp1625
Rp1626
(I1
(I1
tp1627
g32
I00
S'\x19\x99\x95<'
p1628
tp1629
btp1630
a((lp1631
I6
ag23
(g24
(I0
tp1632
g26
tp1633
Rp1634
(I1
(I1
tp1635
g32
I00
S'w\x0b\x89<'
p1636
tp1637
btp1638
a((lp1639
I4
ag23
(g24
(I0
tp1640
g26
tp1641
Rp1642
(I1
(I1
tp1643
g32
I00
S'"\xbc\x81<'
p1644
tp1645
btp1646
a((lp1647
I2
ag23
(g24
(I0
tp1648
g26
tp1649
Rp1650
(I1
(I1
tp1651
g32
I00
S't\xd5\x80<'
p1652
tp1653
btp1654
a((lp1655
I3
ag23
(g24
(I0
tp1656
g26
tp1657
Rp1658
(I1
(I1
tp1659
g32
I00
S'\xa7\xa8m<'
p1660
tp1661
btp1662
a((lp1663
I0
ag23
(g24
(I0
tp1664
g26
tp1665
Rp1666
(I1
(I1
tp1667
g32
I00
S'T?b<'
p1668
tp1669
btp1670
a((lp1671
I8
ag23
(g24
(I0
tp1672
g26
tp1673
Rp1674
(I1
(I1
tp1675
g32
I00
S'\xa5AL<'
p1676
tp1677
btp1678
a((lp1679
I5
ag23
(g24
(I0
tp1680
g26
tp1681
Rp1682
(I1
(I1
tp1683
g32
I00
S'\xce5><'
p1684
tp1685
btp1686
a((lp1687
I8
aI10
ag23
(g24
(I0
tp1688
g26
tp1689
Rp1690
(I1
(I1
tp1691
g32
I00
S'\xa4\xfa-<'
p1692
tp1693
btp1694
as.