(lp0
(lp1
(lp2
(lp3
cnumpy.core.multiarray
scalar
p4
(cnumpy
dtype
p5
(S'f4'
p6
I0
I1
tp7
Rp8
(I3
S'<'
p9
NNNI-1
I-1
I0
tp10
bS'`\x8d\x8f@'
p11
tp12
Rp13
ag4
(g8
S'3\x80G@'
p14
tp15
Rp16
ag4
(g8
S't\x1e\x9c?'
p17
tp18
Rp19
ag4
(g8
S'\xc8\x01\x88?'
p20
tp21
Rp22
ag4
(g8
S'\xf148B'
p23
tp24
Rp25
ag4
(g8
S'\xf148B'
p26
tp27
Rp28
ag4
(g8
S'\xa0M<?'
p29
tp30
Rp31
ag4
(g8
S'jw}?'
p32
tp33
Rp34
ag4
(g8
S'\x17\xe1\x1b@'
p35
tp36
Rp37
ag4
(g8
S'X\x05\x19@'
p38
tp39
Rp40
ag4
(g8
S'\xf148B'
p41
tp42
Rp43
ag4
(g8
S'\xf148B'
p44
tp45
Rp46
ag4
(g8
S'\xf148B'
p47
tp48
Rp49
ag4
(g8
S'\xf148B'
p50
tp51
Rp52
ag4
(g8
S'j\n\x90@'
p53
tp54
Rp55
ag4
(g8
S'\xc6a\x18@'
p56
tp57
Rp58
ag4
(g8
S'\xf148B'
p59
tp60
Rp61
ag4
(g8
S'\xf148B'
p62
tp63
Rp64
ag4
(g8
S'\xc5\xb5\xbb?'
p65
tp66
Rp67
ag4
(g8
S'\xd0\xbe\xbb?'
p68
tp69
Rp70
ag4
(g8
S'n\xbc\xf1?'
p71
tp72
Rp73
ag4
(g8
S'\x05\xe3@@'
p74
tp75
Rp76
ag4
(g8
S'$\xdf\x9e@'
p77
tp78
Rp79
ag4
(g8
S'\x14\x1a9@'
p80
tp81
Rp82
ag4
(g8
S'\x05(\x1e?'
p83
tp84
Rp85
ag4
(g8
S'\xe0\x864?'
p86
tp87
Rp88
ag4
(g8
S'\xbfz\x95?'
p89
tp90
Rp91
ag4
(g8
S'H-\xde?'
p92
tp93
Rp94
ag4
(g8
S'\xf148B'
p95
tp96
Rp97
ag4
(g8
S'\xf148B'
p98
tp99
Rp100
ag4
(g8
S'\xf148B'
p101
tp102
Rp103
ag4
(g8
S'\xf148B'
p104
tp105
Rp106
ag4
(g8
S'Ha\xd3?'
p107
tp108
Rp109
ag4
(g8
S'\xfcm\x80?'
p110
tp111
Rp112
ag4
(g8
S'\x85B,@'
p113
tp114
Rp115
ag4
(g8
S'Y\xfbe@'
p116
tp117
Rp118
ag4
(g8
S'\xf148B'
p119
tp120
Rp121
ag4
(g8
S'\xf148B'
p122
tp123
Rp124
ag4
(g8
S'\xcd\xbe:?'
p125
tp126
Rp127
ag4
(g8
S'VMo?'
p128
tp129
Rp130
ag4
(g8
S'Oa\x9e?'
p131
tp132
Rp133
ag4
(g8
S'{\x1e\xe2?'
p134
tp135
Rp136
ag4
(g8
S'\x03\xf8\xa5?'
p137
tp138
Rp139
ag4
(g8
S'\xddo\xa2?'
p140
tp141
Rp142
ag4
(g8
S'\xc8c$?'
p143
tp144
Rp145
ag4
(g8
S'\xc0\xe5%?'
p146
tp147
Rp148
ag4
(g8
S';\xac\x9c?'
p149
tp150
Rp151
ag4
(g8
S'\xe0`\xb9?'
p152
tp153
Rp154
ag4
(g8
S'\xb1j\x80@'
p155
tp156
Rp157
ag4
(g8
S'r\xf2)@'
p158
tp159
Rp160
ag4
(g8
S'\xf148B'
p161
tp162
Rp163
ag4
(g8
S'\xf148B'
p164
tp165
Rp166
ag4
(g8
S'\xf148B'
p167
tp168
Rp169
ag4
(g8
S'\xf148B'
p170
tp171
Rp172
ag4
(g8
S'\xf148B'
p173
tp174
Rp175
ag4
(g8
S'\xf148B'
p176
tp177
Rp178
ag4
(g8
S'|\xbdu?'
p179
tp180
Rp181
ag4
(g8
S'\xf0\x04v?'
p182
tp183
Rp184
ag4
(g8
S'\x831\xca?'
p185
tp186
Rp187
ag4
(g8
S'<\xec\x98?'
p188
tp189
Rp190
ag4
(g8
S'6\xa7\x18?'
p191
tp192
Rp193
ag4
(g8
S'<\x8c$?'
p194
tp195
Rp196
ag4
(g8
S'\xc5\xa6T?'
p197
tp198
Rp199
ag4
(g8
S'\xf0\x1e\xbd?'
p200
tp201
Rp202
ag4
(g8
S'\x08\x1e~@'
p203
tp204
Rp205
ag4
(g8
S',\xb5K@'
p206
tp207
Rp208
ag4
(g8
S'"\xaau?'
p209
tp210
Rp211
ag4
(g8
S'\xf7-^?'
p212
tp213
Rp214
ag4
(g8
S'J0\xe8?'
p215
tp216
Rp217
ag4
(g8
S'm\xfdb@'
p218
tp219
Rp220
ag4
(g8
S'(\xadP@'
p221
tp222
Rp223
ag4
(g8
S'\x1a|E@'
p224
tp225
Rp226
ag4
(g8
S'\xf148B'
p227
tp228
Rp229
ag4
(g8
S'\xf148B'
p230
tp231
Rp232
ag4
(g8
S'\xc0L\xa3?'
p233
tp234
Rp235
ag4
(g8
S'\xfd\xc5\xdc?'
p236
tp237
Rp238
ag4
(g8
S'5\xa4\x13@'
p239
tp240
Rp241
ag4
(g8
S'(b\xc0?'
p242
tp243
Rp244
ag4
(g8
S'9\xef\xa0?'
p245
tp246
Rp247
ag4
(g8
S'\xe3\xcf\xb6?'
p248
tp249
Rp250
ag4
(g8
S'\xf148B'
p251
tp252
Rp253
ag4
(g8
S'\xf148B'
p254
tp255
Rp256
ag4
(g8
S'\xf148B'
p257
tp258
Rp259
ag4
(g8
S'\xf148B'
p260
tp261
Rp262
ag4
(g8
S'\xb36\xd0?'
p263
tp264
Rp265
ag4
(g8
S'\x87\xfb\x15@'
p266
tp267
Rp268
ag4
(g8
S'\x9a\x1f\xca>'
p269
tp270
Rp271
ag4
(g8
S'\x12\xcc\xe0>'
p272
tp273
Rp274
ag4
(g8
S'\xdc[\x19@'
p275
tp276
Rp277
ag4
(g8
S'\xfe\x96\xfd?'
p278
tp279
Rp280
ag4
(g8
S'\xf148B'
p281
tp282
Rp283
ag4
(g8
S'\xf148B'
p284
tp285
Rp286
ag4
(g8
S'\xf8\x01\xee?'
p287
tp288
Rp289
ag4
(g8
S'\xde\xfd\xfc?'
p290
tp291
Rp292
ag4
(g8
S'\xf148B'
p293
tp294
Rp295
ag4
(g8
S'\xf148B'
p296
tp297
Rp298
ag4
(g8
S'\xec\xe3\x89@'
p299
tp300
Rp301
ag4
(g8
S'\xb0DC@'
p302
tp303
Rp304
ag4
(g8
S'\xf148B'
p305
tp306
Rp307
ag4
(g8
S'\xf148B'
p308
tp309
Rp310
ag4
(g8
S'K\x0cp?'
p311
tp312
Rp313
ag4
(g8
S'>\xf1q?'
p314
tp315
Rp316
ag4
(g8
S'\xf148B'
p317
tp318
Rp319
ag4
(g8
S'\xf148B'
p320
tp321
Rp322
aa(lp323
g4
(g5
(S'b1'
p324
I0
I1
tp325
Rp326
(I3
S'|'
p327
NNNI-1
I-1
I0
tp328
bS'\x01'
p329
tp330
Rp331
ag331
ag331
ag331
ag4
(g326
S'\x00'
p332
tp333
Rp334
ag331
ag331
ag331
ag331
ag331
ag331
ag331
ag331
ag331
ag331
ag331
ag331
ag331
ag331
ag331
ag331
ag331
ag331
ag331
ag331
ag331
ag331
ag331
ag331
ag331
ag331
ag331
ag331
ag331
ag331
ag331
ag334
ag331
ag331
ag331
ag331
ag331
ag331
ag331
ag331
ag331
ag331
ag331
ag331
ag331
ag331
ag331
ag331
ag334
ag331
ag331
ag331
ag331
ag331
ag331
ag331
ag331
ag331
ag331
ag331
ag331
ag331
ag331
ag331
ag331
ag331
ag331
ag331
ag331
ag331
ag331
ag331
ag331
ag331
ag331
ag331
ag331
ag331
ag331
ag331
ag331
ag331
ag331
ag331
ag331
ag334
ag331
ag331
ag331
ag331
ag331
ag331
ag331
ag331
ag331
ag331
ag331
ag334
ag331
aaa(lp335
(lp336
g4
(g8
S'T]\x8e@'
p337
tp338
Rp339
ag4
(g8
S'\xfdlA@'
p340
tp341
Rp342
ag4
(g8
S'\xd4\xae\x98?'
p343
tp344
Rp345
ag4
(g8
S'\n\xf5\x85?'
p346
tp347
Rp348
ag4
(g8
S'\xf148B'
p349
tp350
Rp351
ag4
(g8
S'\xf148B'
p352
tp353
Rp354
ag4
(g8
S'\x93\x87<?'
p355
tp356
Rp357
ag4
(g8
S'\x93\x1fy?'
p358
tp359
Rp360
ag4
(g8
S'\x9c\xa4\x16@'
p361
tp362
Rp363
ag4
(g8
S'd\x85\x11@'
p364
tp365
Rp366
ag4
(g8
S'\xf148B'
p367
tp368
Rp369
ag4
(g8
S'\xf148B'
p370
tp371
Rp372
ag4
(g8
S'\xf148B'
p373
tp374
Rp375
ag4
(g8
S'\xf148B'
p376
tp377
Rp378
ag4
(g8
S'\x01\xc0\x8b@'
p379
tp380
Rp381
ag4
(g8
S'\x82a\x17@'
p382
tp383
Rp384
ag4
(g8
S'\xf148B'
p385
tp386
Rp387
ag4
(g8
S'\xf148B'
p388
tp389
Rp390
ag4
(g8
S'\x96\x8d\xb8?'
p391
tp392
Rp393
ag4
(g8
S'\x9d\xb8\xb5?'
p394
tp395
Rp396
ag4
(g8
S'\xe6f\xe5?'
p397
tp398
Rp399
ag4
(g8
S'\xa4V7@'
p400
tp401
Rp402
ag4
(g8
S'\x85=\x98@'
p403
tp404
Rp405
ag4
(g8
S'\xc4\x140@'
p406
tp407
Rp408
ag4
(g8
S'\xc1\xa7\x19?'
p409
tp410
Rp411
ag4
(g8
S';\x9a2?'
p412
tp413
Rp414
ag4
(g8
S'\xe7U\x97?'
p415
tp416
Rp417
ag4
(g8
S'[\xf5\xd8?'
p418
tp419
Rp420
ag4
(g8
S'\xf148B'
p421
tp422
Rp423
ag4
(g8
S'\xf148B'
p424
tp425
Rp426
ag4
(g8
S'\xf148B'
p427
tp428
Rp429
ag4
(g8
S'\xf148B'
p430
tp431
Rp432
ag4
(g8
S'\xae\xea\xd2?'
p433
tp434
Rp435
ag4
(g8
S'4\xc7|?'
p436
tp437
Rp438
ag4
(g8
S'D\x1c$@'
p439
tp440
Rp441
ag4
(g8
S'I\xb1`@'
p442
tp443
Rp444
ag4
(g8
S'\xf148B'
p445
tp446
Rp447
ag4
(g8
S'\xf148B'
p448
tp449
Rp450
ag4
(g8
S'\x8e`;?'
p451
tp452
Rp453
ag4
(g8
S'>\x82e?'
p454
tp455
Rp456
ag4
(g8
S'\xb7G\x9d?'
p457
tp458
Rp459
ag4
(g8
S'\x86\xc5\xdb?'
p460
tp461
Rp462
ag4
(g8
S'N%\xa4?'
p463
tp464
Rp465
ag4
(g8
S'\xb0_\x98?'
p466
tp467
Rp468
ag4
(g8
S'Bo%?'
p469
tp470
Rp471
ag4
(g8
S'\xcc\xe4"?'
p472
tp473
Rp474
ag4
(g8
S'J\xa3\x9b?'
p475
tp476
Rp477
ag4
(g8
S'LJ\xb3?'
p478
tp479
Rp480
ag4
(g8
S'b\xc7q@'
p481
tp482
Rp483
ag4
(g8
S'\xd7\xe8 @'
p484
tp485
Rp486
ag4
(g8
S'\xf148B'
p487
tp488
Rp489
ag4
(g8
S'\xf148B'
p490
tp491
Rp492
ag4
(g8
S'\xf148B'
p493
tp494
Rp495
ag4
(g8
S'\xf148B'
p496
tp497
Rp498
ag4
(g8
S'\xf148B'
p499
tp500
Rp501
ag4
(g8
S'\xf148B'
p502
tp503
Rp504
ag4
(g8
S'\xd2\x06t?'
p505
tp506
Rp507
ag4
(g8
S'6Fo?'
p508
tp509
Rp510
ag4
(g8
S'\xde\\\xc0?'
p511
tp512
Rp513
ag4
(g8
S'Qf\x95?'
p514
tp515
Rp516
ag4
(g8
S"'$\x12?"
p517
tp518
Rp519
ag4
(g8
S'\\\xac!?'
p520
tp521
Rp522
ag4
(g8
S']]N?'
p523
tp524
Rp525
ag4
(g8
S'\xb0\xab\xb0?'
p526
tp527
Rp528
ag4
(g8
S'\x83N|@'
p529
tp530
Rp531
ag4
(g8
S'\xd4\x91K@'
p532
tp533
Rp534
ag4
(g8
S'\x00\x92t?'
p535
tp536
Rp537
ag4
(g8
S'%\xc9]?'
p538
tp539
Rp540
ag4
(g8
S'X?\xe5?'
p541
tp542
Rp543
ag4
(g8
S'\xce\x0fX@'
p544
tp545
Rp546
ag4
(g8
S'\xa8iD@'
p547
tp548
Rp549
ag4
(g8
S'_AE@'
p550
tp551
Rp552
ag4
(g8
S'\xf148B'
p553
tp554
Rp555
ag4
(g8
S'\xf148B'
p556
tp557
Rp558
ag4
(g8
S'U\xa4\x9f?'
p559
tp560
Rp561
ag4
(g8
S'\xf7\x93\xd4?'
p562
tp563
Rp564
ag4
(g8
S'\xda\x1c\x0e@'
p565
tp566
Rp567
ag4
(g8
S';\xca\xb7?'
p568
tp569
Rp570
ag4
(g8
S'\x9a\xc6\x9c?'
p571
tp572
Rp573
ag4
(g8
S'\xe3q\xb0?'
p574
tp575
Rp576
ag4
(g8
S'\xf148B'
p577
tp578
Rp579
ag4
(g8
S'\xf148B'
p580
tp581
Rp582
ag4
(g8
S'\xf148B'
p583
tp584
Rp585
ag4
(g8
S'\xf148B'
p586
tp587
Rp588
ag4
(g8
S'\x8e\xb6\xcb?'
p589
tp590
Rp591
ag4
(g8
S'\xa4\x14\x0c@'
p592
tp593
Rp594
ag4
(g8
S',&\xc5>'
p595
tp596
Rp597
ag4
(g8
S'1\xb5\xdf>'
p598
tp599
Rp600
ag4
(g8
S'\xac3\x11@'
p601
tp602
Rp603
ag4
(g8
S'D\xfd\xf1?'
p604
tp605
Rp606
ag4
(g8
S'\xf148B'
p607
tp608
Rp609
ag4
(g8
S'\xf148B'
p610
tp611
Rp612
ag4
(g8
S'Ux\xe2?'
p613
tp614
Rp615
ag4
(g8
S'b\x1e\xf0?'
p616
tp617
Rp618
ag4
(g8
S'\xf148B'
p619
tp620
Rp621
ag4
(g8
S'\xf148B'
p622
tp623
Rp624
ag4
(g8
S'u\xb4\x88@'
p625
tp626
Rp627
ag4
(g8
S'\xe6\xba9@'
p628
tp629
Rp630
ag4
(g8
S'\xf148B'
p631
tp632
Rp633
ag4
(g8
S'\xf148B'
p634
tp635
Rp636
ag4
(g8
S'\xdfSn?'
p637
tp638
Rp639
ag4
(g8
S'\x9b\xadp?'
p640
tp641
Rp642
ag4
(g8
S'\xf148B'
p643
tp644
Rp645
ag4
(g8
S'\xf148B'
p646
tp647
Rp648
aa(lp649
g331
ag331
ag331
ag331
ag334
ag331
ag331
ag331
ag331
ag331
ag331
ag331
ag331
ag331
ag331
ag331
ag331
ag331
ag331
ag331
ag331
ag331
ag331
ag331
ag331
ag331
ag331
ag331
ag331
ag331
ag331
ag331
ag331
ag331
ag331
ag331
ag334
ag331
ag331
ag331
ag331
ag331
ag331
ag331
ag331
ag331
ag331
ag331
ag331
ag331
ag331
ag331
ag331
ag334
ag331
ag331
ag331
ag331
ag331
ag331
ag331
ag331
ag331
ag331
ag331
ag331
ag331
ag331
ag331
ag331
ag331
ag331
ag331
ag331
ag331
ag331
ag331
ag331
ag331
ag331
ag331
ag331
ag331
ag331
ag331
ag331
ag331
ag331
ag331
ag331
ag334
ag331
ag331
ag331
ag331
ag331
ag331
ag331
ag331
ag331
ag331
ag331
ag334
ag331
aaa(lp650
(lp651
g4
(g8
S'\xbc\xc6\x8d@'
p652
tp653
Rp654
ag4
(g8
S'\xe5\xa2;@'
p655
tp656
Rp657
ag4
(g8
S'\x89\x89\x95?'
p658
tp659
Rp660
ag4
(g8
S'\xa7\xf2\x83?'
p661
tp662
Rp663
ag4
(g8
S'\xf148B'
p664
tp665
Rp666
ag4
(g8
S'\xf148B'
p667
tp668
Rp669
ag4
(g8
S'\x05\x87<?'
p670
tp671
Rp672
ag4
(g8
S'\x1f\x9bt?'
p673
tp674
Rp675
ag4
(g8
S'\x02\x85\x11@'
p676
tp677
Rp678
ag4
(g8
S'\xf2\x94\n@'
p679
tp680
Rp681
ag4
(g8
S'\xf148B'
p682
tp683
Rp684
ag4
(g8
S'\xf148B'
p685
tp686
Rp687
ag4
(g8
S'\xf148B'
p688
tp689
Rp690
ag4
(g8
S'\xf148B'
p691
tp692
Rp693
ag4
(g8
S'\xe3\xba\x87@'
p694
tp695
Rp696
ag4
(g8
S'\\_\x16@'
p697
tp698
Rp699
ag4
(g8
S'\xf148B'
p700
tp701
Rp702
ag4
(g8
S'\xf148B'
p703
tp704
Rp705
ag4
(g8
S'I\x7f\xb5?'
p706
tp707
Rp708
ag4
(g8
S'd\x94\xaf?'
p709
tp710
Rp711
ag4
(g8
S'\x97G\xd9?'
p712
tp713
Rp714
ag4
(g8
S'\xee\xf1-@'
p715
tp716
Rp717
ag4
(g8
S'l\xbb\x91@'
p718
tp719
Rp720
ag4
(g8
S"\xc0y'@"
p721
tp722
Rp723
ag4
(g8
S'\x13J\x15?'
p724
tp725
Rp726
ag4
(g8
S'\xd1\xff0?'
p727
tp728
Rp729
ag4
(g8
S'\x10+\x99?'
p730
tp731
Rp732
ag4
(g8
S'\xbc\xda\xd3?'
p733
tp734
Rp735
ag4
(g8
S'\xf148B'
p736
tp737
Rp738
ag4
(g8
S'\xf148B'
p739
tp740
Rp741
ag4
(g8
S'\xf148B'
p742
tp743
Rp744
ag4
(g8
S'\xf148B'
p745
tp746
Rp747
ag4
(g8
S'6\x98\xd2?'
p748
tp749
Rp750
ag4
(g8
S'S\xc2x?'
p751
tp752
Rp753
ag4
(g8
S'\x86(\x1c@'
p754
tp755
Rp756
ag4
(g8
S'\x9e\xaa[@'
p757
tp758
Rp759
ag4
(g8
S'\xf148B'
p760
tp761
Rp762
ag4
(g8
S'\xf148B'
p763
tp764
Rp765
ag4
(g8
S'\t\x85<?'
p766
tp767
Rp768
ag4
(g8
S'i\x12\\?'
p769
tp770
Rp771
ag4
(g8
S'Uc\x9c?'
p772
tp773
Rp774
ag4
(g8
S'\xb9\xf4\xd5?'
p775
tp776
Rp777
ag4
(g8
S'l\xd2\xa2?'
p778
tp779
Rp780
ag4
(g8
S'Z\xd2\x8e?'
p781
tp782
Rp783
ag4
(g8
S'\x1f\xc1&?'
p784
tp785
Rp786
ag4
(g8
S'3\r ?'
p787
tp788
Rp789
ag4
(g8
S'\xf3\xd8\x9a?'
p790
tp791
Rp792
ag4
(g8
S'J\xbb\xad?'
p793
tp794
Rp795
ag4
(g8
S'\x9c\x13c@'
p796
tp797
Rp798
ag4
(g8
S'2e\x18@'
p799
tp800
Rp801
ag4
(g8
S'\xf148B'
p802
tp803
Rp804
ag4
(g8
S'\xf148B'
p805
tp806
Rp807
ag4
(g8
S'\xf148B'
p808
tp809
Rp810
ag4
(g8
S'\xf148B'
p811
tp812
Rp813
ag4
(g8
S'\xf148B'
p814
tp815
Rp816
ag4
(g8
S'\xf148B'
p817
tp818
Rp819
ag4
(g8
S'a\xear?'
p820
tp821
Rp822
ag4
(g8
S'\xb6\x8ch?'
p823
tp824
Rp825
ag4
(g8
S'"\xa4\xb6?'
p826
tp827
Rp828
ag4
(g8
S'\x08\xd6\x90?'
p829
tp830
Rp831
ag4
(g8
S'\xbe0\x0b?'
p832
tp833
Rp834
ag4
(g8
S'\x0c\xd9\x1e?'
p835
tp836
Rp837
ag4
(g8
S'\xe6\xecG?'
p838
tp839
Rp840
ag4
(g8
S'r\x84\xa4?'
p841
tp842
Rp843
ag4
(g8
S'\x17\x9bz@'
p844
tp845
Rp846
ag4
(g8
S'\x85\x8cK@'
p847
tp848
Rp849
ag4
(g8
S'\xe2Es?'
p850
tp851
Rp852
ag4
(g8
S'\xa0}]?'
p853
tp854
Rp855
ag4
(g8
S':\xa2\xe2?'
p856
tp857
Rp858
ag4
(g8
S'\x02\x08N@'
p859
tp860
Rp861
ag4
(g8
S'\xb8v8@'
p862
tp863
Rp864
ag4
(g8
S'\xd7\x08E@'
p865
tp866
Rp867
ag4
(g8
S'\xf148B'
p868
tp869
Rp870
ag4
(g8
S'\xf148B'
p871
tp872
Rp873
ag4
(g8
S'b\xb2\x9b?'
p874
tp875
Rp876
ag4
(g8
S'\xd0\xe3\xcc?'
p877
tp878
Rp879
ag4
(g8
S'\x8d\xcd\x08@'
p880
tp881
Rp882
ag4
(g8
S'\x07\xee\xae?'
p883
tp884
Rp885
ag4
(g8
S'&*\x99?'
p886
tp887
Rp888
ag4
(g8
S'\x88\\\xaa?'
p889
tp890
Rp891
ag4
(g8
S'\xf148B'
p892
tp893
Rp894
ag4
(g8
S'\xf148B'
p895
tp896
Rp897
ag4
(g8
S'\xf148B'
p898
tp899
Rp900
ag4
(g8
S'\xf148B'
p901
tp902
Rp903
ag4
(g8
S'xF\xc7?'
p904
tp905
Rp906
ag4
(g8
S'\xd8l\x02@'
p907
tp908
Rp909
ag4
(g8
S'=D\xc0>'
p910
tp911
Rp912
ag4
(g8
S'\x19\xfb\xde>'
p913
tp914
Rp915
ag4
(g8
S'\xf7\x1b\t@'
p916
tp917
Rp918
ag4
(g8
S',\xe0\xe6?'
p919
tp920
Rp921
ag4
(g8
S'\xf148B'
p922
tp923
Rp924
ag4
(g8
S'\xf148B'
p925
tp926
Rp927
ag4
(g8
S'\x94\xf2\xd6?'
p928
tp929
Rp930
ag4
(g8
S'\xd7(\xe4?'
p931
tp932
Rp933
ag4
(g8
S'\xf148B'
p934
tp935
Rp936
ag4
(g8
S'\xf148B'
p937
tp938
Rp939
ag4
(g8
S'8\x8b\x87@'
p940
tp941
Rp942
ag4
(g8
S'\x9e\x8f1@'
p943
tp944
Rp945
ag4
(g8
S'\xf148B'
p946
tp947
Rp948
ag4
(g8
S'\xf148B'
p949
tp950
Rp951
ag4
(g8
S'HRl?'
p952
tp953
Rp954
ag4
(g8
S'R\x81o?'
p955
tp956
Rp957
ag4
(g8
S'\xf148B'
p958
tp959
Rp960
ag4
(g8
S'\xf148B'
p961
tp962
Rp963
aa(lp964
g331
ag331
ag331
ag331
ag334
ag331
ag331
ag331
ag331
ag331
ag331
ag331
ag331
ag331
ag331
ag331
ag331
ag331
ag331
ag331
ag331
ag331
ag331
ag331
ag331
ag331
ag331
ag331
ag331
ag331
ag331
ag331
ag331
ag331
ag331
ag331
ag334
ag331
ag331
ag331
ag331
ag331
ag331
ag331
ag331
ag331
ag331
ag331
ag331
ag331
ag331
ag331
ag331
ag334
ag331
ag331
ag331
ag331
ag331
ag331
ag331
ag331
ag331
ag331
ag331
ag331
ag331
ag331
ag331
ag331
ag331
ag331
ag331
ag331
ag331
ag331
ag331
ag331
ag331
ag331
ag331
ag331
ag331
ag331
ag331
ag331
ag331
ag331
ag331
ag331
ag334
ag331
ag331
ag331
ag331
ag331
ag331
ag331
ag331
ag331
ag331
ag331
ag334
ag331
aaa(lp965
(lp966
g4
(g8
S'N\xbe\x8d@'
p967
tp968
Rp969
ag4
(g8
S'\xa8\x126@'
p970
tp971
Rp972
ag4
(g8
S'\xbb\xa1\x92?'
p973
tp974
Rp975
ag4
(g8
S'\xff\xff\x81?'
p976
tp977
Rp978
ag4
(g8
S'\xf148B'
p979
tp980
Rp981
ag4
(g8
S'\xf148B'
p982
tp983
Rp984
ag4
(g8
S'\xe1C<?'
p985
tp986
Rp987
ag4
(g8
S'6\xe0o?'
p988
tp989
Rp990
ag4
(g8
S'\xd5\x82\x0c@'
p991
tp992
Rp993
ag4
(g8
S'Y+\x04@'
p994
tp995
Rp996
ag4
(g8
S'\xf148B'
p997
tp998
Rp999
ag4
(g8
S'\xf148B'
p1000
tp1001
Rp1002
ag4
(g8
S'\xf148B'
p1003
tp1004
Rp1005
ag4
(g8
S'\xf148B'
p1006
tp1007
Rp1008
ag4
(g8
S'\xb2\xfa\x83@'
p1009
tp1010
Rp1011
ag4
(g8
S'|R\x15@'
p1012
tp1013
Rp1014
ag4
(g8
S'\xf148B'
p1015
tp1016
Rp1017
ag4
(g8
S'\xf148B'
p1018
tp1019
Rp1020
ag4
(g8
S'\x91\x80\xb2?'
p1021
tp1022
Rp1023
ag4
(g8
S'fR\xa9?'
p1024
tp1025
Rp1026
ag4
(g8
S'@y\xcd?'
p1027
tp1028
Rp1029
ag4
(g8
S'\xfe\xbc$@'
p1030
tp1031
Rp1032
ag4
(g8
S'\x18T\x8b@'
p1033
tp1034
Rp1035
ag4
(g8
S'\xb2C\x1f@'
p1036
tp1037
Rp1038
ag4
(g8
S'D\r\x11?'
p1039
tp1040
Rp1041
ag4
(g8
S'<\xb6/?'
p1042
tp1043
Rp1044
ag4
(g8
S'M\xee\x9a?'
p1045
tp1046
Rp1047
ag4
(g8
S'\x84\xe0\xce?'
p1048
tp1049
Rp1050
ag4
(g8
S'\xf148B'
p1051
tp1052
Rp1053
ag4
(g8
S'\xf148B'
p1054
tp1055
Rp1056
ag4
(g8
S'\xf148B'
p1057
tp1058
Rp1059
ag4
(g8
S'\xf148B'
p1060
tp1061
Rp1062
ag4
(g8
S'\xa1]\xd2?'
p1063
tp1064
Rp1065
ag4
(g8
S'\xfc\xcat?'
p1066
tp1067
Rp1068
ag4
(g8
S'\xf0m\x14@'
p1069
tp1070
Rp1071
ag4
(g8
S'[\xebV@'
p1072
tp1073
Rp1074
ag4
(g8
S'\xf148B'
p1075
tp1076
Rp1077
ag4
(g8
S'\xf148B'
p1078
tp1079
Rp1080
ag4
(g8
S'$7>?'
p1081
tp1082
Rp1083
ag4
(g8
S'\x80\xfeR?'
p1084
tp1085
Rp1086
ag4
(g8
S'\x07\xc5\x9b?'
p1087
tp1088
Rp1089
ag4
(g8
S'j\xb0\xd0?'
p1090
tp1091
Rp1092
ag4
(g8
S' \x00\xa2?'
p1093
tp1094
Rp1095
ag4
(g8
S'\xb5\xcc\x85?'
p1096
tp1097
Rp1098
ag4
(g8
S'\xfbp(?'
p1099
tp1100
Rp1101
ag4
(g8
S'\x86R\x1d?'
p1102
tp1103
Rp1104
ag4
(g8
S'\x14X\x9a?'
p1105
tp1106
Rp1107
ag4
(g8
S'\x9c\xab\xa8?'
p1108
tp1109
Rp1110
ag4
(g8
S'\xa5\xb9T@'
p1111
tp1112
Rp1113
ag4
(g8
S'!k\x10@'
p1114
tp1115
Rp1116
ag4
(g8
S'\xf148B'
p1117
tp1118
Rp1119
ag4
(g8
S'\xf148B'
p1120
tp1121
Rp1122
ag4
(g8
S'\xf148B'
p1123
tp1124
Rp1125
ag4
(g8
S'\xf148B'
p1126
tp1127
Rp1128
ag4
(g8
S'\xf148B'
p1129
tp1130
Rp1131
ag4
(g8
S'\xf148B'
p1132
tp1133
Rp1134
ag4
(g8
S'\xb8kr?'
p1135
tp1136
Rp1137
ag4
(g8
S'\x9d\xd1a?'
p1138
tp1139
Rp1140
ag4
(g8
S'\x04(\xad?'
p1141
tp1142
Rp1143
ag4
(g8
S'PI\x8b?'
p1144
tp1145
Rp1146
ag4
(g8
S'\x83\xcf\x03?'
p1147
tp1148
Rp1149
ag4
(g8
S'\xd1\t\x1c?'
p1150
tp1151
Rp1152
ag4
(g8
S'KtA?'
p1153
tp1154
Rp1155
ag4
(g8
S'_\xc0\x98?'
p1156
tp1157
Rp1158
ag4
(g8
S'8\x00y@'
p1159
tp1160
Rp1161
ag4
(g8
S'\xfd\x9dK@'
p1162
tp1163
Rp1164
ag4
(g8
S'\xa8\xc2q?'
p1165
tp1166
Rp1167
ag4
(g8
S'\xdaE]?'
p1168
tp1169
Rp1170
ag4
(g8
S'\xa66\xe0?'
p1171
tp1172
Rp1173
ag4
(g8
S'\xf2\xf1D@'
p1174
tp1175
Rp1176
ag4
(g8
S'\x93\xdb,@'
p1177
tp1178
Rp1179
ag4
(g8
S'\xa0\xc9D@'
p1180
tp1181
Rp1182
ag4
(g8
S'\xf148B'
p1183
tp1184
Rp1185
ag4
(g8
S'\xf148B'
p1186
tp1187
Rp1188
ag4
(g8
S'pz\x97?'
p1189
tp1190
Rp1191
ag4
(g8
S'\xfd\xaa\xc5?'
p1192
tp1193
Rp1194
ag4
(g8
S'J\xc3\x03@'
p1195
tp1196
Rp1197
ag4
(g8
S'\x8e\xd4\xa5?'
p1198
tp1199
Rp1200
ag4
(g8
S'W\x0e\x96?'
p1201
tp1202
Rp1203
ag4
(g8
S'\x01\x93\xa4?'
p1204
tp1205
Rp1206
ag4
(g8
S'\xf148B'
p1207
tp1208
Rp1209
ag4
(g8
S'\xf148B'
p1210
tp1211
Rp1212
ag4
(g8
S'\xf148B'
p1213
tp1214
Rp1215
ag4
(g8
S'\xf148B'
p1216
tp1217
Rp1218
ag4
(g8
S'e\xe3\xc2?'
p1219
tp1220
Rp1221
ag4
(g8
S'\xe0?\xf2?'
p1222
tp1223
Rp1224
ag4
(g8
S'8u\xbb>'
p1225
tp1226
Rp1227
ag4
(g8
S'\xdd\x9a\xde>'
p1228
tp1229
Rp1230
ag4
(g8
S'\x0f-\x01@'
p1231
tp1232
Rp1233
ag4
(g8
S'zR\xdc?'
p1234
tp1235
Rp1236
ag4
(g8
S'\xf148B'
p1237
tp1238
Rp1239
ag4
(g8
S'\xf148B'
p1240
tp1241
Rp1242
ag4
(g8
S'W\x9c\xcb?'
p1243
tp1244
Rp1245
ag4
(g8
S'$"\xd9?'
p1246
tp1247
Rp1248
ag4
(g8
S'\xf148B'
p1249
tp1250
Rp1251
ag4
(g8
S'\xf148B'
p1252
tp1253
Rp1254
ag4
(g8
S'\r^\x86@'
p1255
tp1256
Rp1257
ag4
(g8
S'R\xca*@'
p1258
tp1259
Rp1260
ag4
(g8
S'\xf148B'
p1261
tp1262
Rp1263
ag4
(g8
S'\xf148B'
p1264
tp1265
Rp1266
ag4
(g8
S't\xfdi?'
p1267
tp1268
Rp1269
ag4
(g8
S'\x1bfn?'
p1270
tp1271
Rp1272
ag4
(g8
S'\xf148B'
p1273
tp1274
Rp1275
ag4
(g8
S'\xf148B'
p1276
tp1277
Rp1278
aa(lp1279
g331
ag331
ag331
ag331
ag334
ag331
ag331
ag331
ag331
ag331
ag331
ag331
ag331
ag331
ag331
ag331
ag331
ag331
ag331
ag331
ag331
ag331
ag331
ag331
ag331
ag331
ag331
ag331
ag331
ag331
ag331
ag331
ag331
ag331
ag331
ag331
ag334
ag331
ag331
ag331
ag331
ag331
ag331
ag331
ag331
ag331
ag331
ag331
ag331
ag331
ag331
ag331
ag331
ag334
ag331
ag331
ag331
ag331
ag331
ag331
ag331
ag331
ag331
ag331
ag331
ag331
ag331
ag331
ag331
ag331
ag331
ag331
ag331
ag331
ag331
ag331
ag331
ag331
ag331
ag331
ag331
ag331
ag331
ag331
ag331
ag331
ag331
ag331
ag331
ag331
ag334
ag331
ag331
ag331
ag331
ag331
ag331
ag331
ag331
ag331
ag331
ag331
ag334
ag331
aaa(lp1280
(lp1281
g4
(g8
S';8\x8e@'
p1282
tp1283
Rp1284
ag4
(g8
S'\xb1\xab0@'
p1285
tp1286
Rp1287
ag4
(g8
S'\xa6\xf2\x8f?'
p1288
tp1289
Rp1290
ag4
(g8
S'\xf2\x1f\x80?'
p1291
tp1292
Rp1293
ag4
(g8
S'\xf148B'
p1294
tp1295
Rp1296
ag4
(g8
S'\xf148B'
p1297
tp1298
Rp1299
ag4
(g8
S'\xb2\xba;?'
p1300
tp1301
Rp1302
ag4
(g8
S'\x01\xd1j?'
p1303
tp1304
Rp1305
ag4
(g8
S'K\x99\x07@'
p1306
tp1307
Rp1308
ag4
(g8
S'\xc2\x88\xfc?'
p1309
tp1310
Rp1311
ag4
(g8
S'\xf148B'
p1312
tp1313
Rp1314
ag4
(g8
S'\xf148B'
p1315
tp1316
Rp1317
ag4
(g8
S'\xf148B'
p1318
tp1319
Rp1320
ag4
(g8
S'\xf148B'
p1321
tp1322
Rp1323
ag4
(g8
S'\x86\x82\x80@'
p1324
tp1325
Rp1326
ag4
(g8
S'\xd7/\x14@'
p1327
tp1328
Rp1329
ag4
(g8
S'\xf148B'
p1330
tp1331
Rp1332
ag4
(g8
S'\xf148B'
p1333
tp1334
Rp1335
ag4
(g8
S'\xac\x87\xaf?'
p1336
tp1337
Rp1338
ag4
(g8
S'\xc0\xe8\xa2?'
p1339
tp1340
Rp1341
ag4
(g8
S'\xdc\x0c\xc2?'
p1342
tp1343
Rp1344
ag4
(g8
S' \xc8\x1b@'
p1345
tp1346
Rp1347
ag4
(g8
S'\xde\x00\x85@'
p1348
tp1349
Rp1350
ag4
(g8
S'\xa9v\x17@'
p1351
tp1352
Rp1353
ag4
(g8
S'\xba\xee\x0c?'
p1354
tp1355
Rp1356
ag4
(g8
S'\xf5\xc3.?'
p1357
tp1358
Rp1359
ag4
(g8
S'-\x9e\x9c?'
p1360
tp1361
Rp1362
ag4
(g8
S'n\xf9\xc9?'
p1363
tp1364
Rp1365
ag4
(g8
S'\xf148B'
p1366
tp1367
Rp1368
ag4
(g8
S'\xf148B'
p1369
tp1370
Rp1371
ag4
(g8
S'\xf148B'
p1372
tp1373
Rp1374
ag4
(g8
S'\xf148B'
p1375
tp1376
Rp1377
ag4
(g8
S'\x98>\xd2?'
p1378
tp1379
Rp1380
ag4
(g8
S'\xcf\xd6p?'
p1381
tp1382
Rp1383
ag4
(g8
S'\xf7\xeb\x0c@'
p1384
tp1385
Rp1386
ag4
(g8
S'QeR@'
p1387
tp1388
Rp1389
ag4
(g8
S'\xf148B'
p1390
tp1391
Rp1392
ag4
(g8
S'\xf148B'
p1393
tp1394
Rp1395
ag4
(g8
S'\xf0\x7f@?'
p1396
tp1397
Rp1398
ag4
(g8
S'\x86JJ?'
p1399
tp1400
Rp1401
ag4
(g8
S'\xc4k\x9b?'
p1402
tp1403
Rp1404
ag4
(g8
S'X\xe8\xcb?'
p1405
tp1406
Rp1407
ag4
(g8
S'\xeb\xb8\xa1?'
p1408
tp1409
Rp1410
ag4
(g8
S'\x0e\xb5z?'
p1411
tp1412
Rp1413
ag4
(g8
S'\xdd\x90*?'
p1414
tp1415
Rp1416
ag4
(g8
S'\xd8\xac\x1a?'
p1417
tp1418
Rp1419
ag4
(g8
S'\xd5#\x9a?'
p1420
tp1421
Rp1422
ag4
(g8
S'\xcc\x0f\xa4?'
p1423
tp1424
Rp1425
ag4
(g8
S"'\xc6F@"
p1426
tp1427
Rp1428
ag4
(g8
S'z\t\t@'
p1429
tp1430
Rp1431
ag4
(g8
S'\xf148B'
p1432
tp1433
Rp1434
ag4
(g8
S'\xf148B'
p1435
tp1436
Rp1437
ag4
(g8
S'\xf148B'
p1438
tp1439
Rp1440
ag4
(g8
S'\xf148B'
p1441
tp1442
Rp1443
ag4
(g8
S'\xf148B'
p1444
tp1445
Rp1446
ag4
(g8
S'\xf148B'
p1447
tp1448
Rp1449
ag4
(g8
S'\xa0\x8dr?'
p1450
tp1451
Rp1452
ag4
(g8
S'\x05\x14[?'
p1453
tp1454
Rp1455
ag4
(g8
S'<\x01\xa4?'
p1456
tp1457
Rp1458
ag4
(g8
S'\x02\xe0\x84?'
p1459
tp1460
Rp1461
ag4
(g8
S'=\x06\xf8>'
p1462
tp1463
Rp1464
ag4
(g8
S'c:\x19?'
p1465
tp1466
Rp1467
ag4
(g8
S'\xee\x0e;?'
p1468
tp1469
Rp1470
ag4
(g8
S';\x7f\x8d?'
p1471
tp1472
Rp1473
ag4
(g8
S'=\x88w@'
p1474
tp1475
Rp1476
ag4
(g8
S',\xbeK@'
p1477
tp1478
Rp1479
ag4
(g8
S'j\x00p?'
p1480
tp1481
Rp1482
ag4
(g8
S'\xc8\x1f]?'
p1483
tp1484
Rp1485
ag4
(g8
S'\xac\xf2\xdd?'
p1486
tp1487
Rp1488
ag4
(g8
S'\xf1\xd2<@'
p1489
tp1490
Rp1491
ag4
(g8
S'\x19\xa6!@'
p1492
tp1493
Rp1494
ag4
(g8
S'\x07{D@'
p1495
tp1496
Rp1497
ag4
(g8
S'\xf148B'
p1498
tp1499
Rp1500
ag4
(g8
S'\xf148B'
p1501
tp1502
Rp1503
ag4
(g8
S'\xcd\xfb\x92?'
p1504
tp1505
Rp1506
ag4
(g8
S'\x88\xe5\xbe?'
p1507
tp1508
Rp1509
ag4
(g8
S'\x13\x0b\xfe?'
p1510
tp1511
Rp1512
ag4
(g8
S'\xca\x8e\x9c?'
p1513
tp1514
Rp1515
ag4
(g8
S'\xd8h\x93?'
p1516
tp1517
Rp1518
ag4
(g8
S'\xb6\x0e\x9f?'
p1519
tp1520
Rp1521
ag4
(g8
S'\xf148B'
p1522
tp1523
Rp1524
ag4
(g8
S'\xf148B'
p1525
tp1526
Rp1527
ag4
(g8
S'\xf148B'
p1528
tp1529
Rp1530
ag4
(g8
S'\xf148B'
p1531
tp1532
Rp1533
ag4
(g8
S'\xbd\x82\xbe?'
p1534
tp1535
Rp1536
ag4
(g8
S'\x1e\x92\xe0?'
p1537
tp1538
Rp1539
ag4
(g8
S'\xd2\xb0\xb6>'
p1540
tp1541
Rp1542
ag4
(g8
S'\xa0\x9d\xde>'
p1543
tp1544
Rp1545
ag4
(g8
S'Z\xef\xf2?'
p1546
tp1547
Rp1548
ag4
(g8
S'\xddg\xd2?'
p1549
tp1550
Rp1551
ag4
(g8
S'\xf148B'
p1552
tp1553
Rp1554
ag4
(g8
S'\xf148B'
p1555
tp1556
Rp1557
ag4
(g8
S'B\x93\xc0?'
p1558
tp1559
Rp1560
ag4
(g8
S'!\r\xcf?'
p1561
tp1562
Rp1563
ag4
(g8
S'\xf148B'
p1564
tp1565
Rp1566
ag4
(g8
S'\xf148B'
p1567
tp1568
Rp1569
ag4
(g8
S"\xb3'\x85@"
p1570
tp1571
Rp1572
ag4
(g8
S'[X%@'
p1573
tp1574
Rp1575
ag4
(g8
S'\xf148B'
p1576
tp1577
Rp1578
ag4
(g8
S'\xf148B'
p1579
tp1580
Rp1581
ag4
(g8
S'\x02Ig?'
p1582
tp1583
Rp1584
ag4
(g8
S'\x8b^m?'
p1585
tp1586
Rp1587
ag4
(g8
S'\xf148B'
p1588
tp1589
Rp1590
ag4
(g8
S'\xf148B'
p1591
tp1592
Rp1593
aa(lp1594
g331
ag331
ag331
ag331
ag334
ag331
ag331
ag331
ag331
ag331
ag331
ag331
ag331
ag331
ag331
ag331
ag331
ag331
ag331
ag331
ag331
ag331
ag331
ag331
ag331
ag331
ag331
ag331
ag331
ag331
ag331
ag331
ag331
ag331
ag331
ag331
ag334
ag331
ag331
ag331
ag331
ag331
ag331
ag331
ag331
ag331
ag331
ag331
ag331
ag331
ag331
ag331
ag331
ag334
ag331
ag331
ag331
ag331
ag331
ag331
ag331
ag331
ag331
ag331
ag331
ag331
ag331
ag331
ag331
ag331
ag331
ag331
ag331
ag331
ag331
ag331
ag331
ag331
ag331
ag331
ag331
ag331
ag331
ag331
ag331
ag331
ag331
ag331
ag331
ag331
ag334
ag331
ag331
ag331
ag331
ag331
ag331
ag331
ag331
ag331
ag331
ag331
ag334
ag331
aaa(lp1595
(lp1596
g4
(g8
S'\x03"\x8f@'
p1597
tp1598
Rp1599
ag4
(g8
S'\xbbY+@'
p1600
tp1601
Rp1602
ag4
(g8
S'y\x7f\x8d?'
p1603
tp1604
Rp1605
ag4
(g8
S'\xbc\xa8|?'
p1606
tp1607
Rp1608
ag4
(g8
S'\xf148B'
p1609
tp1610
Rp1611
ag4
(g8
S'\xf148B'
p1612
tp1613
Rp1614
ag4
(g8
S'\xac\xe5:?'
p1615
tp1616
Rp1617
ag4
(g8
S'\xecWe?'
p1618
tp1619
Rp1620
ag4
(g8
S'\xfc\xc7\x02@'
p1621
tp1622
Rp1623
ag4
(g8
S'{\xa2\xf1?'
p1624
tp1625
Rp1626
ag4
(g8
S'\xf148B'
p1627
tp1628
Rp1629
ag4
(g8
S'\xf148B'
p1630
tp1631
Rp1632
ag4
(g8
S'\xf148B'
p1633
tp1634
Rp1635
ag4
(g8
S'\xf148B'
p1636
tp1637
Rp1638
ag4
(g8
S"'\xafz@"
p1639
tp1640
Rp1641
ag4
(g8
S'\xb8\xef\x12@'
p1642
tp1643
Rp1644
ag4
(g8
S'\xf148B'
p1645
tp1646
Rp1647
ag4
(g8
S'\xf148B'
p1648
tp1649
Rp1650
ag4
(g8
S'\x96\x8a\xac?'
p1651
tp1652
Rp1653
ag4
(g8
S'%R\x9c?'
p1654
tp1655
Rp1656
ag4
(g8
S',\x1e\xb7?'
p1657
tp1658
Rp1659
ag4
(g8
S'\xbf,\x13@'
p1660
tp1661
Rp1662
ag4
(g8
S'\xa7z}@'
p1663
tp1664
Rp1665
ag4
(g8
S'\xde\x11\x10@'
p1666
tp1667
Rp1668
ag4
(g8
S'%\xed\x08?'
p1669
tp1670
Rp1671
ag4
(g8
S'66.?'
p1672
tp1673
Rp1674
ag4
(g8
S'\xdf7\x9e?'
p1675
tp1676
Rp1677
ag4
(g8
S'\xd4\x19\xc5?'
p1678
tp1679
Rp1680
ag4
(g8
S'\xf148B'
p1681
tp1682
Rp1683
ag4
(g8
S'\xf148B'
p1684
tp1685
Rp1686
ag4
(g8
S'\xf148B'
p1687
tp1688
Rp1689
ag4
(g8
S'\xf148B'
p1690
tp1691
Rp1692
ag4
(g8
S'\xab7\xd2?'
p1693
tp1694
Rp1695
ag4
(g8
S'.\xdcl?'
p1696
tp1697
Rp1698
ag4
(g8
S'\xbe\xa7\x05@'
p1699
tp1700
Rp1701
ag4
(g8
S'(\tN@'
p1702
tp1703
Rp1704
ag4
(g8
S'\xf148B'
p1705
tp1706
Rp1707
ag4
(g8
S'\xf148B'
p1708
tp1709
Rp1710
ag4
(g8
S'\xc3\\C?'
p1711
tp1712
Rp1713
ag4
(g8
S'\xb9\xf9A?'
p1714
tp1715
Rp1716
ag4
(g8
S'%R\x9b?'
p1717
tp1718
Rp1719
ag4
(g8
S'Z\x8f\xc7?'
p1720
tp1721
Rp1722
ag4
(g8
S's\xfa\xa1?'
p1723
tp1724
Rp1725
ag4
(g8
S'\xc9\x01k?'
p1726
tp1727
Rp1728
ag4
(g8
S"\xe9'-?"
p1729
tp1730
Rp1731
ag4
(g8
S'|\x17\x18?'
p1732
tp1733
Rp1734
ag4
(g8
S'4>\x9a?'
p1735
tp1736
Rp1737
ag4
(g8
S'\xd9\xdb\x9f?'
p1738
tp1739
Rp1740
ag4
(g8
S'\xcfF9@'
p1741
tp1742
Rp1743
ag4
(g8
S'\xfdH\x02@'
p1744
tp1745
Rp1746
ag4
(g8
S'\xf148B'
p1747
tp1748
Rp1749
ag4
(g8
S'\xf148B'
p1750
tp1751
Rp1752
ag4
(g8
S'\xf148B'
p1753
tp1754
Rp1755
ag4
(g8
S'\xf148B'
p1756
tp1757
Rp1758
ag4
(g8
S'\xf148B'
p1759
tp1760
Rp1761
ag4
(g8
S'\xf148B'
p1762
tp1763
Rp1764
ag4
(g8
S'PJs?'
p1765
tp1766
Rp1767
ag4
(g8
S'e\\T?'
p1768
tp1769
Rp1770
ag4
(g8
S'\x88N\x9b?'
p1771
tp1772
Rp1773
ag4
(g8
S'&\x9d{?'
p1774
tp1775
Rp1776
ag4
(g8
S'\xb5\xb9\xe7>'
p1777
tp1778
Rp1779
ag4
(g8
S'\xf6i\x16?'
p1780
tp1781
Rp1782
ag4
(g8
S'o\xdb4?'
p1783
tp1784
Rp1785
ag4
(g8
S'\xfe\xe4\x82?'
p1786
tp1787
Rp1788
ag4
(g8
S'\xc7<v@'
p1789
tp1790
Rp1791
ag4
(g8
S'\x82\xe7K@'
p1792
tp1793
Rp1794
ag4
(g8
S'\x15\xf5m?'
p1795
tp1796
Rp1797
ag4
(g8
S'\xb3\t]?'
p1798
tp1799
Rp1800
ag4
(g8
S'5\xd6\xdb?'
p1801
tp1802
Rp1803
ag4
(g8
S'\xf2\xa05@'
p1804
tp1805
Rp1806
ag4
(g8
S'\xa8\xe9\x16@'
p1807
tp1808
Rp1809
ag4
(g8
S'b\x15D@'
p1810
tp1811
Rp1812
ag4
(g8
S'\xf148B'
p1813
tp1814
Rp1815
ag4
(g8
S'\xf148B'
p1816
tp1817
Rp1818
ag4
(g8
S'K<\x8e?'
p1819
tp1820
Rp1821
ag4
(g8
S'\xc4\x91\xb8?'
p1822
tp1823
Rp1824
ag4
(g8
S'\xdf;\xf5?'
p1825
tp1826
Rp1827
ag4
(g8
S'\x18=\x93?'
p1828
tp1829
Rp1830
ag4
(g8
S'>-\x91?'
p1831
tp1832
Rp1833
ag4
(g8
S'\\\xc7\x99?'
p1834
tp1835
Rp1836
ag4
(g8
S'\xf148B'
p1837
tp1838
Rp1839
ag4
(g8
S'\xf148B'
p1840
tp1841
Rp1842
ag4
(g8
S'\xf148B'
p1843
tp1844
Rp1845
ag4
(g8
S'\xf148B'
p1846
tp1847
Rp1848
ag4
(g8
S'%\x16\xba?'
p1849
tp1850
Rp1851
ag4
(g8
S'\xe3\xee\xcf?'
p1852
tp1853
Rp1854
ag4
(g8
S'\xaa\xf2\xb1>'
p1855
tp1856
Rp1857
ag4
(g8
S'\xf8\x1e\xdf>'
p1858
tp1859
Rp1860
ag4
(g8
S'\x86$\xe4?'
p1861
tp1862
Rp1863
ag4
(g8
S'\x006\xc9?'
p1864
tp1865
Rp1866
ag4
(g8
S'\xf148B'
p1867
tp1868
Rp1869
ag4
(g8
S'\xf148B'
p1870
tp1871
Rp1872
ag4
(g8
S'\x84\xff\xb5?'
p1873
tp1874
Rp1875
ag4
(g8
S'K\xed\xc5?'
p1876
tp1877
Rp1878
ag4
(g8
S'\xf148B'
p1879
tp1880
Rp1881
ag4
(g8
S'\xf148B'
p1882
tp1883
Rp1884
ag4
(g8
S'\xd8\xe0\x83@'
p1885
tp1886
Rp1887
ag4
(g8
S'\xef\x19!@'
p1888
tp1889
Rp1890
ag4
(g8
S'\xf148B'
p1891
tp1892
Rp1893
ag4
(g8
S'\xf148B'
p1894
tp1895
Rp1896
ag4
(g8
S'6%d?'
p1897
tp1898
Rp1899
ag4
(g8
S'Zml?'
p1900
tp1901
Rp1902
ag4
(g8
S'\xf148B'
p1903
tp1904
Rp1905
ag4
(g8
S'\xf148B'
p1906
tp1907
Rp1908
aa(lp1909
g331
ag331
ag331
ag331
ag334
ag331
ag331
ag331
ag331
ag331
ag331
ag331
ag331
ag331
ag331
ag331
ag331
ag331
ag331
ag331
ag331
ag331
ag331
ag331
ag331
ag331
ag331
ag331
ag331
ag331
ag331
ag331
ag331
ag331
ag331
ag331
ag334
ag331
ag331
ag331
ag331
ag331
ag331
ag331
ag331
ag331
ag331
ag331
ag331
ag331
ag331
ag331
ag331
ag334
ag331
ag331
ag331
ag331
ag331
ag331
ag331
ag331
ag331
ag331
ag331
ag331
ag331
ag331
ag331
ag331
ag331
ag331
ag331
ag331
ag331
ag331
ag331
ag331
ag331
ag331
ag331
ag331
ag331
ag331
ag331
ag331
ag331
ag331
ag331
ag331
ag334
ag331
ag331
ag331
ag331
ag331
ag331
ag331
ag331
ag331
ag331
ag331
ag334
ag331
aaa(lp1910
(lp1911
g4
(g8
S'\xc7`\x90@'
p1912
tp1913
Rp1914
ag4
(g8
S'\x19\n&@'
p1915
tp1916
Rp1917
ag4
(g8
S'\x12M\x8b?'
p1918
tp1919
Rp1920
ag4
(g8
S'm9y?'
p1921
tp1922
Rp1923
ag4
(g8
S'\xf148B'
p1924
tp1925
Rp1926
ag4
(g8
S'\xf148B'
p1927
tp1928
Rp1929
ag4
(g8
S'I\xbb9?'
p1930
tp1931
Rp1932
ag4
(g8
S'\xc8d_?'
p1933
tp1934
Rp1935
ag4
(g8
S'\x9b\x1e\xfc?'
p1936
tp1937
Rp1938
ag4
(g8
S'i\x84\xe7?'
p1939
tp1940
Rp1941
ag4
(g8
S'\xf148B'
p1942
tp1943
Rp1944
ag4
(g8
S'\xf148B'
p1945
tp1946
Rp1947
ag4
(g8
S'\xf148B'
p1948
tp1949
Rp1950
ag4
(g8
S'\xf148B'
p1951
tp1952
Rp1953
ag4
(g8
S'\x9b\xfdt@'
p1954
tp1955
Rp1956
ag4
(g8
S'\xb3\x8d\x11@'
p1957
tp1958
Rp1959
ag4
(g8
S'\xf148B'
p1960
tp1961
Rp1962
ag4
(g8
S'\xf148B'
p1963
tp1964
Rp1965
ag4
(g8
S'J\x7f\xa9?'
p1966
tp1967
Rp1968
ag4
(g8
S'\xda\x8c\x95?'
p1969
tp1970
Rp1971
ag4
(g8
S'\xcf\xcd\xac?'
p1972
tp1973
Rp1974
ag4
(g8
S'd\x08\x0b@'
p1975
tp1976
Rp1977
ag4
(g8
S'<\x05q@'
p1978
tp1979
Rp1980
ag4
(g8
S'd\x15\t@'
p1981
tp1982
Rp1983
ag4
(g8
S'\x85\x08\x05?'
p1984
tp1985
Rp1986
ag4
(g8
S'\x92\x1e.?'
p1987
tp1988
Rp1989
ag4
(g8
S'4\xb5\x9f?'
p1990
tp1991
Rp1992
ag4
(g8
S'\xc46\xc0?'
p1993
tp1994
Rp1995
ag4
(g8
S'\xf148B'
p1996
tp1997
Rp1998
ag4
(g8
S'\xf148B'
p1999
tp2000
Rp2001
ag4
(g8
S'\xf148B'
p2002
tp2003
Rp2004
ag4
(g8
S'\xf148B'
p2005
tp2006
Rp2007
ag4
(g8
S'\xfa;\xd2?'
p2008
tp2009
Rp2010
ag4
(g8
S'\x93\xd2h?'
p2011
tp2012
Rp2013
ag4
(g8
S'\x8aO\xfd?'
p2014
tp2015
Rp2016
ag4
(g8
S'\x08\xc9I@'
p2017
tp2018
Rp2019
ag4
(g8
S'\xf148B'
p2020
tp2021
Rp2022
ag4
(g8
S'\xf148B'
p2023
tp2024
Rp2025
ag4
(g8
S'\x1f\xc1F?'
p2026
tp2027
Rp2028
ag4
(g8
S'\xc0\x0e:?'
p2029
tp2030
Rp2031
ag4
(g8
S'\xa4m\x9b?'
p2032
tp2033
Rp2034
ag4
(g8
S'\xb0\x9d\xc3?'
p2035
tp2036
Rp2037
ag4
(g8
S'=\xbf\xa2?'
p2038
tp2039
Rp2040
ag4
(g8
S'6\x81\\?'
p2041
tp2042
Rp2043
ag4
(g8
S'\xc4;0?'
p2044
tp2045
Rp2046
ag4
(g8
S'(\x8e\x15?'
p2047
tp2048
Rp2049
ag4
(g8
S'\xb0\xa7\x9a?'
p2050
tp2051
Rp2052
ag4
(g8
S'Q\x04\x9c?'
p2053
tp2054
Rp2055
ag4
(g8
S'\xdeP,@'
p2056
tp2057
Rp2058
ag4
(g8
S'\xf0U\xf8?'
p2059
tp2060
Rp2061
ag4
(g8
S'\xf148B'
p2062
tp2063
Rp2064
ag4
(g8
S'\xf148B'
p2065
tp2066
Rp2067
ag4
(g8
S'\xf148B'
p2068
tp2069
Rp2070
ag4
(g8
S'\xf148B'
p2071
tp2072
Rp2073
ag4
(g8
S'\xf148B'
p2074
tp2075
Rp2076
ag4
(g8
S'\xf148B'
p2077
tp2078
Rp2079
ag4
(g8
S'\x18\x98t?'
p2080
tp2081
Rp2082
ag4
(g8
S'\xb5\xb6M?'
p2083
tp2084
Rp2085
ag4
(g8
S'\x081\x93?'
p2086
tp2087
Rp2088
ag4
(g8
S'/\xb7l?'
p2089
tp2090
Rp2091
ag4
(g8
S'\x0c\xfc\xd6>'
p2092
tp2093
Rp2094
ag4
(g8
S'\xfd\x9a\x13?'
p2095
tp2096
Rp2097
ag4
(g8
S'\x97\xfa.?'
p2098
tp2099
Rp2100
ag4
(g8
S'"\'r?'
p2101
tp2102
Rp2103
ag4
(g8
S"\x06'u@"
p2104
tp2105
Rp2106
ag4
(g8
S'f\x13L@'
p2107
tp2108
Rp2109
ag4
(g8
S'\xc4\x92k?'
p2110
tp2111
Rp2112
ag4
(g8
S'h\x03]?'
p2113
tp2114
Rp2115
ag4
(g8
S'w\xe3\xd9?'
p2116
tp2117
Rp2118
ag4
(g8
S'\x99K/@'
p2119
tp2120
Rp2121
ag4
(g8
S'j\xbe\x0c@'
p2122
tp2123
Rp2124
ag4
(g8
S'\xf4\x92C@'
p2125
tp2126
Rp2127
ag4
(g8
S'\xf148B'
p2128
tp2129
Rp2130
ag4
(g8
S'\xf148B'
p2131
tp2132
Rp2133
ag4
(g8
S'\x0bG\x89?'
p2134
tp2135
Rp2136
ag4
(g8
S'\xdd\xad\xb2?'
p2137
tp2138
Rp2139
ag4
(g8
S'~,\xed?'
p2140
tp2141
Rp2142
ag4
(g8
S'\x82\n\x8a?'
p2143
tp2144
Rp2145
ag4
(g8
S'\xcaL\x8f?'
p2146
tp2147
Rp2148
ag4
(g8
S'\x1d\xb4\x94?'
p2149
tp2150
Rp2151
ag4
(g8
S'\xf148B'
p2152
tp2153
Rp2154
ag4
(g8
S'\xf148B'
p2155
tp2156
Rp2157
ag4
(g8
S'\xf148B'
p2158
tp2159
Rp2160
ag4
(g8
S'\xf148B'
p2161
tp2162
Rp2163
ag4
(g8
S'\xf1\x92\xb5?'
p2164
tp2165
Rp2166
ag4
(g8
S'[h\xc0?'
p2167
tp2168
Rp2169
ag4
(g8
S'\x808\xad>'
p2170
tp2171
Rp2172
ag4
(g8
S'\x8eE\xe0>'
p2173
tp2174
Rp2175
ag4
(g8
S'2.\xd6?'
p2176
tp2177
Rp2178
ag4
(g8
S'\xae\xcf\xc0?'
p2179
tp2180
Rp2181
ag4
(g8
S'\xf148B'
p2182
tp2183
Rp2184
ag4
(g8
S'\xf148B'
p2185
tp2186
Rp2187
ag4
(g8
S'\xe8\x0c\xac?'
p2188
tp2189
Rp2190
ag4
(g8
S'\x99\xc2\xbd?'
p2191
tp2192
Rp2193
ag4
(g8
S'\xf148B'
p2194
tp2195
Rp2196
ag4
(g8
S'\xf148B'
p2197
tp2198
Rp2199
ag4
(g8
S'\x92\x7f\x82@'
p2200
tp2201
Rp2202
ag4
(g8
S'A\xeb\x1d@'
p2203
tp2204
Rp2205
ag4
(g8
S'\xf148B'
p2206
tp2207
Rp2208
ag4
(g8
S'\xf148B'
p2209
tp2210
Rp2211
ag4
(g8
S'\xe4\x7f`?'
p2212
tp2213
Rp2214
ag4
(g8
S':\x92k?'
p2215
tp2216
Rp2217
ag4
(g8
S'\xf148B'
p2218
tp2219
Rp2220
ag4
(g8
S'\xf148B'
p2221
tp2222
Rp2223
aa(lp2224
g331
ag331
ag331
ag331
ag334
ag331
ag331
ag331
ag331
ag331
ag331
ag331
ag331
ag331
ag331
ag331
ag331
ag331
ag331
ag331
ag331
ag331
ag331
ag331
ag331
ag331
ag331
ag331
ag331
ag331
ag331
ag331
ag331
ag331
ag331
ag331
ag334
ag331
ag331
ag331
ag331
ag331
ag331
ag331
ag331
ag331
ag331
ag331
ag331
ag331
ag331
ag331
ag331
ag334
ag331
ag331
ag331
ag331
ag331
ag331
ag331
ag331
ag331
ag331
ag331
ag331
ag331
ag331
ag331
ag331
ag331
ag331
ag331
ag331
ag331
ag331
ag331
ag331
ag331
ag331
ag331
ag331
ag331
ag331
ag331
ag331
ag331
ag331
ag331
ag331
ag334
ag331
ag331
ag331
ag331
ag331
ag331
ag331
ag331
ag331
ag331
ag331
ag334
ag331
aaa(lp2225
(lp2226
g4
(g8
S'\xa3\xd0\x91@'
p2227
tp2228
Rp2229
ag4
(g8
S'\x0e\xaf @'
p2230
tp2231
Rp2232
ag4
(g8
S'\xee_\x89?'
p2233
tp2234
Rp2235
ag4
(g8
S'B\xf0u?'
p2236
tp2237
Rp2238
ag4
(g8
S'\xf148B'
p2239
tp2240
Rp2241
ag4
(g8
S'\xf148B'
p2242
tp2243
Rp2244
ag4
(g8
S'\x8f08?'
p2245
tp2246
Rp2247
ag4
(g8
S'S\xe8X?'
p2248
tp2249
Rp2250
ag4
(g8
S'p\xe3\xf2?'
p2251
tp2252
Rp2253
ag4
(g8
S'\xa2\x19\xde?'
p2254
tp2255
Rp2256
ag4
(g8
S'\xf148B'
p2257
tp2258
Rp2259
ag4
(g8
S'\xf148B'
p2260
tp2261
Rp2262
ag4
(g8
S'\xf148B'
p2263
tp2264
Rp2265
ag4
(g8
S'\xf148B'
p2266
tp2267
Rp2268
ag4
(g8
S'\x89\xf7o@'
p2269
tp2270
Rp2271
ag4
(g8
S'\x1f\x07\x10@'
p2272
tp2273
Rp2274
ag4
(g8
S'\xf148B'
p2275
tp2276
Rp2277
ag4
(g8
S'\xf148B'
p2278
tp2279
Rp2280
ag4
(g8
S'\xdf]\xa6?'
p2281
tp2282
Rp2283
ag4
(g8
S'a\x98\x8e?'
p2284
tp2285
Rp2286
ag4
(g8
S'\xad:\xa3?'
p2287
tp2288
Rp2289
ag4
(g8
S'\xd5t\x03@'
p2290
tp2291
Rp2292
ag4
(g8
S'+\x97d@'
p2293
tp2294
Rp2295
ag4
(g8
S'-\x81\x02@'
p2296
tp2297
Rp2298
ag4
(g8
S'\xea?\x01?'
p2299
tp2300
Rp2301
ag4
(g8
S'I\x8e.?'
p2302
tp2303
Rp2304
ag4
(g8
S'\xfc\r\xa1?'
p2305
tp2306
Rp2307
ag4
(g8
S'zD\xbb?'
p2308
tp2309
Rp2310
ag4
(g8
S'\xf148B'
p2311
tp2312
Rp2313
ag4
(g8
S'\xf148B'
p2314
tp2315
Rp2316
ag4
(g8
S'\xf148B'
p2317
tp2318
Rp2319
ag4
(g8
S'\xf148B'
p2320
tp2321
Rp2322
ag4
(g8
S'\xe87\xd2?'
p2323
tp2324
Rp2325
ag4
(g8
S'f\xb2d?'
p2326
tp2327
Rp2328
ag4
(g8
S'\x85\xe7\xef?'
p2329
tp2330
Rp2331
ag4
(g8
S'Z\x97E@'
p2332
tp2333
Rp2334
ag4
(g8
S'\xf148B'
p2335
tp2336
Rp2337
ag4
(g8
S'\xf148B'
p2338
tp2339
Rp2340
ag4
(g8
S"'\x97J?"
p2341
tp2342
Rp2343
ag4
(g8
S'U\x8b2?'
p2344
tp2345
Rp2346
ag4
(g8
S'\x12\xab\x9b?'
p2347
tp2348
Rp2349
ag4
(g8
S'\xfe\t\xc0?'
p2350
tp2351
Rp2352
ag4
(g8
S'w\xfc\xa3?'
p2353
tp2354
Rp2355
ag4
(g8
S'd0O?'
p2356
tp2357
Rp2358
ag4
(g8
S'|\xd13?'
p2359
tp2360
Rp2361
ag4
(g8
S'\xaf\r\x13?'
p2362
tp2363
Rp2364
ag4
(g8
S'\xbc\\\x9b?'
p2365
tp2366
Rp2367
ag4
(g8
S'g}\x98?'
p2368
tp2369
Rp2370
ag4
(g8
S'd\x02 @'
p2371
tp2372
Rp2373
ag4
(g8
S'\xbbX\xed?'
p2374
tp2375
Rp2376
ag4
(g8
S'\xf148B'
p2377
tp2378
Rp2379
ag4
(g8
S'\xf148B'
p2380
tp2381
Rp2382
ag4
(g8
S'\xf148B'
p2383
tp2384
Rp2385
ag4
(g8
S'\xf148B'
p2386
tp2387
Rp2388
ag4
(g8
S'\xf148B'
p2389
tp2390
Rp2391
ag4
(g8
S'\xf148B'
p2392
tp2393
Rp2394
ag4
(g8
S'\xc4dv?'
p2395
tp2396
Rp2397
ag4
(g8
S'\x18.G?'
p2398
tp2399
Rp2400
ag4
(g8
S'\xe3\xc7\x8b?'
p2401
tp2402
Rp2403
ag4
(g8
S'\x0e\xa8]?'
p2404
tp2405
Rp2406
ag4
(g8
S'\xbd%\xc6>'
p2407
tp2408
Rp2409
ag4
(g8
S'\xc2\xd1\x10?'
p2410
tp2411
Rp2412
ag4
(g8
S'\xd2\x8b)?'
p2413
tp2414
Rp2415
ag4
(g8
S'\x0cF`?'
p2416
tp2417
Rp2418
ag4
(g8
S'\x00Ot@'
p2419
tp2420
Rp2421
ag4
(g8
S'>9L@'
p2422
tp2423
Rp2424
ag4
(g8
S'\xa4\xc8h?'
p2425
tp2426
Rp2427
ag4
(g8
S'\x1f\r]?'
p2428
tp2429
Rp2430
ag4
(g8
S'\xac\x1b\xd8?'
p2431
tp2432
Rp2433
ag4
(g8
S'\xc8\xc1)@'
p2434
tp2435
Rp2436
ag4
(g8
S'q?\x03@'
p2437
tp2438
Rp2439
ag4
(g8
S'"\xefB@'
p2440
tp2441
Rp2442
ag4
(g8
S'\xf148B'
p2443
tp2444
Rp2445
ag4
(g8
S'\xf148B'
p2446
tp2447
Rp2448
ag4
(g8
S'\xcf,\x84?'
p2449
tp2450
Rp2451
ag4
(g8
S'-8\xad?'
p2452
tp2453
Rp2454
ag4
(g8
S'"\xec\xe5?'
p2455
tp2456
Rp2457
ag4
(g8
S'\x9e%\x81?'
p2458
tp2459
Rp2460
ag4
(g8
S'\xce\xb5\x8d?'
p2461
tp2462
Rp2463
ag4
(g8
S'[\xcb\x8f?'
p2464
tp2465
Rp2466
ag4
(g8
S'\xf148B'
p2467
tp2468
Rp2469
ag4
(g8
S'\xf148B'
p2470
tp2471
Rp2472
ag4
(g8
S'\xf148B'
p2473
tp2474
Rp2475
ag4
(g8
S'\xf148B'
p2476
tp2477
Rp2478
ag4
(g8
S'\x1c\xf2\xb0?'
p2479
tp2480
Rp2481
ag4
(g8
S'\xc1\x0c\xb2?'
p2482
tp2483
Rp2484
ag4
(g8
S'\x92~\xa8>'
p2485
tp2486
Rp2487
ag4
(g8
S'\x0f=\xe2>'
p2488
tp2489
Rp2490
ag4
(g8
S'\xbb?\xc9?'
p2491
tp2492
Rp2493
ag4
(g8
S'\xf5?\xb9?'
p2494
tp2495
Rp2496
ag4
(g8
S'\xf148B'
p2497
tp2498
Rp2499
ag4
(g8
S'\xf148B'
p2500
tp2501
Rp2502
ag4
(g8
S'\xd3\xe3\xa2?'
p2503
tp2504
Rp2505
ag4
(g8
S'\xac\x86\xb6?'
p2506
tp2507
Rp2508
ag4
(g8
S'\xf148B'
p2509
tp2510
Rp2511
ag4
(g8
S'\xf148B'
p2512
tp2513
Rp2514
ag4
(g8
S'\x03\xf9\x80@'
p2515
tp2516
Rp2517
ag4
(g8
S'\x83\xa3\x1b@'
p2518
tp2519
Rp2520
ag4
(g8
S'\xf148B'
p2521
tp2522
Rp2523
ag4
(g8
S'\xf148B'
p2524
tp2525
Rp2526
ag4
(g8
S'XH\\?'
p2527
tp2528
Rp2529
ag4
(g8
S'\xaa\xccj?'
p2530
tp2531
Rp2532
ag4
(g8
S'\xf148B'
p2533
tp2534
Rp2535
ag4
(g8
S'\xf148B'
p2536
tp2537
Rp2538
aa(lp2539
g331
ag331
ag331
ag331
ag334
ag331
ag331
ag331
ag331
ag331
ag331
ag331
ag331
ag331
ag331
ag331
ag331
ag331
ag331
ag331
ag331
ag331
ag331
ag331
ag331
ag331
ag331
ag331
ag331
ag331
ag331
ag331
ag331
ag331
ag331
ag331
ag334
ag331
ag331
ag331
ag331
ag331
ag331
ag331
ag331
ag331
ag331
ag331
ag331
ag331
ag331
ag331
ag331
ag334
ag331
ag331
ag331
ag331
ag331
ag331
ag331
ag331
ag331
ag331
ag331
ag331
ag331
ag331
ag331
ag331
ag331
ag331
ag331
ag331
ag331
ag331
ag331
ag331
ag331
ag331
ag331
ag331
ag331
ag331
ag331
ag331
ag331
ag331
ag331
ag331
ag334
ag331
ag331
ag331
ag331
ag331
ag331
ag331
ag331
ag331
ag331
ag331
ag334
ag331
aaa(lp2540
(lp2541
g4
(g8
S')I\x93@'
p2542
tp2543
Rp2544
ag4
(g8
S'i=\x1b@'
p2545
tp2546
Rp2547
ag4
(g8
S"'\xb9\x87?"
p2548
tp2549
Rp2550
ag4
(g8
S'\xaa\xcfr?'
p2551
tp2552
Rp2553
ag4
(g8
S'\xf148B'
p2554
tp2555
Rp2556
ag4
(g8
S'\xf148B'
p2557
tp2558
Rp2559
ag4
(g8
S'\xd2=6?'
p2560
tp2561
Rp2562
ag4
(g8
S'\x0f\xd8Q?'
p2563
tp2564
Rp2565
ag4
(g8
S'K\xec\xe9?'
p2566
tp2567
Rp2568
ag4
(g8
S'\x04X\xd5?'
p2569
tp2570
Rp2571
ag4
(g8
S'\xf148B'
p2572
tp2573
Rp2574
ag4
(g8
S'\xf148B'
p2575
tp2576
Rp2577
ag4
(g8
S'\xf148B'
p2578
tp2579
Rp2580
ag4
(g8
S'\xf148B'
p2581
tp2582
Rp2583
ag4
(g8
S'k\x9bk@'
p2584
tp2585
Rp2586
ag4
(g8
S'\x1a[\x0e@'
p2587
tp2588
Rp2589
ag4
(g8
S'\xf148B'
p2590
tp2591
Rp2592
ag4
(g8
S'\xf148B'
p2593
tp2594
Rp2595
ag4
(g8
S'V"\xa3?'
p2596
tp2597
Rp2598
ag4
(g8
S'Yx\x87?'
p2599
tp2600
Rp2601
ag4
(g8
S'\x91{\x9a?'
p2602
tp2603
Rp2604
ag4
(g8
S'$\x06\xf9?'
p2605
tp2606
Rp2607
ag4
(g8
S'Z0X@'
p2608
tp2609
Rp2610
ag4
(g8
S'b\xa9\xf8?'
p2611
tp2612
Rp2613
ag4
(g8
S'\xc3\x1c\xfb>'
p2614
tp2615
Rp2616
ag4
(g8
S'\x80\x90/?'
p2617
tp2618
Rp2619
ag4
(g8
S'-:\xa2?'
p2620
tp2621
Rp2622
ag4
(g8
S'\xd66\xb6?'
p2623
tp2624
Rp2625
ag4
(g8
S'\xf148B'
p2626
tp2627
Rp2628
ag4
(g8
S'\xf148B'
p2629
tp2630
Rp2631
ag4
(g8
S'\xf148B'
p2632
tp2633
Rp2634
ag4
(g8
S'\xf148B'
p2635
tp2636
Rp2637
ag4
(g8
S'\xa4\x15\xd2?'
p2638
tp2639
Rp2640
ag4
(g8
S'\x9au`?'
p2641
tp2642
Rp2643
ag4
(g8
S'<.\xe3?'
p2644
tp2645
Rp2646
ag4
(g8
S'\xa3gA@'
p2647
tp2648
Rp2649
ag4
(g8
S'\xf148B'
p2650
tp2651
Rp2652
ag4
(g8
S'\xf148B'
p2653
tp2654
Rp2655
ag4
(g8
S'\xc2\xc1N?'
p2656
tp2657
Rp2658
ag4
(g8
S'Sr+?'
p2659
tp2660
Rp2661
ag4
(g8
S'@\xf1\x9b?'
p2662
tp2663
Rp2664
ag4
(g8
S'\xfe\xc7\xbc?'
p2665
tp2666
Rp2667
ag4
(g8
S'\x17\x9d\xa5?'
p2668
tp2669
Rp2670
ag4
(g8
S'\x8c\nC?'
p2671
tp2672
Rp2673
ag4
(g8
S'\xdc\xed7?'
p2674
tp2675
Rp2676
ag4
(g8
S'T\x93\x10?'
p2677
tp2678
Rp2679
ag4
(g8
S'\xc8U\x9c?'
p2680
tp2681
Rp2682
ag4
(g8
S'Z;\x95?'
p2683
tp2684
Rp2685
ag4
(g8
S'\xa5|\x14@'
p2686
tp2687
Rp2688
ag4
(g8
S'\x86\x91\xe3?'
p2689
tp2690
Rp2691
ag4
(g8
S'\xf148B'
p2692
tp2693
Rp2694
ag4
(g8
S'\xf148B'
p2695
tp2696
Rp2697
ag4
(g8
S'\xf148B'
p2698
tp2699
Rp2700
ag4
(g8
S'\xf148B'
p2701
tp2702
Rp2703
ag4
(g8
S'\xf148B'
p2704
tp2705
Rp2706
ag4
(g8
S'\xf148B'
p2707
tp2708
Rp2709
ag4
(g8
S'\xac\x94x?'
p2710
tp2711
Rp2712
ag4
(g8
S'\xb7\xca@?'
p2713
tp2714
Rp2715
ag4
(g8
S'\xd8*\x85?'
p2716
tp2717
Rp2718
ag4
(g8
S'\xe9\xfdN?'
p2719
tp2720
Rp2721
ag4
(g8
S'\x01\x97\xb5>'
p2722
tp2723
Rp2724
ag4
(g8
S'\x16\x12\x0e?'
p2725
tp2726
Rp2727
ag4
(g8
S']\xa8$?'
p2728
tp2729
Rp2730
ag4
(g8
S"';P?"
p2731
tp2732
Rp2733
ag4
(g8
S'\x02\xb6s@'
p2734
tp2735
Rp2736
ag4
(g8
S'YOL@'
p2737
tp2738
Rp2739
ag4
(g8
S'\x8c\x86e?'
p2740
tp2741
Rp2742
ag4
(g8
S'\xf6%]?'
p2743
tp2744
Rp2745
ag4
(g8
S'.~\xd6?'
p2746
tp2747
Rp2748
ag4
(g8
S'\x05\xf1$@'
p2749
tp2750
Rp2751
ag4
(g8
S'\x0f\n\xf5?'
p2752
tp2753
Rp2754
ag4
(g8
S'T&B@'
p2755
tp2756
Rp2757
ag4
(g8
S'\xf148B'
p2758
tp2759
Rp2760
ag4
(g8
S'\xf148B'
p2761
tp2762
Rp2763
ag4
(g8
S'\xb0\x07~?'
p2764
tp2765
Rp2766
ag4
(g8
S'\xba,\xa8?'
p2767
tp2768
Rp2769
ag4
(g8
S'u\x81\xdf?'
p2770
tp2771
Rp2772
ag4
(g8
S'osq?'
p2773
tp2774
Rp2775
ag4
(g8
S'pT\x8c?'
p2776
tp2777
Rp2778
ag4
(g8
S'\x94\x02\x8b?'
p2779
tp2780
Rp2781
ag4
(g8
S'\xf148B'
p2782
tp2783
Rp2784
ag4
(g8
S'\xf148B'
p2785
tp2786
Rp2787
ag4
(g8
S'\xf148B'
p2788
tp2789
Rp2790
ag4
(g8
S'\xf148B'
p2791
tp2792
Rp2793
ag4
(g8
S'\x9b2\xac?'
p2794
tp2795
Rp2796
ag4
(g8
S'\xf9\xe3\xa4?'
p2797
tp2798
Rp2799
ag4
(g8
S'\x13\xbc\xa3>'
p2800
tp2801
Rp2802
ag4
(g8
S'R-\xe5>'
p2803
tp2804
Rp2805
ag4
(g8
S'\xb5\x80\xbd?'
p2806
tp2807
Rp2808
ag4
(g8
S'Z\x87\xb2?'
p2809
tp2810
Rp2811
ag4
(g8
S'\xf148B'
p2812
tp2813
Rp2814
ag4
(g8
S'\xf148B'
p2815
tp2816
Rp2817
ag4
(g8
S'\xd4\xa2\x9a?'
p2818
tp2819
Rp2820
ag4
(g8
S'\x00,\xb0?'
p2821
tp2822
Rp2823
ag4
(g8
S'\xf148B'
p2824
tp2825
Rp2826
ag4
(g8
S'\xf148B'
p2827
tp2828
Rp2829
ag4
(g8
S'\xab\x8a~@'
p2830
tp2831
Rp2832
ag4
(g8
S'\x8d\x13\x1a@'
p2833
tp2834
Rp2835
ag4
(g8
S'\xf148B'
p2836
tp2837
Rp2838
ag4
(g8
S'\xf148B'
p2839
tp2840
Rp2841
ag4
(g8
S'\xdatW?'
p2842
tp2843
Rp2844
ag4
(g8
S'\xf6\x1fj?'
p2845
tp2846
Rp2847
ag4
(g8
S'\xf148B'
p2848
tp2849
Rp2850
ag4
(g8
S'\xf148B'
p2851
tp2852
Rp2853
aa(lp2854
g331
ag331
ag331
ag331
ag334
ag331
ag331
ag331
ag331
ag331
ag331
ag331
ag331
ag331
ag331
ag331
ag331
ag331
ag331
ag331
ag331
ag331
ag331
ag331
ag331
ag331
ag331
ag331
ag331
ag331
ag331
ag331
ag331
ag331
ag331
ag331
ag334
ag331
ag331
ag331
ag331
ag331
ag331
ag331
ag331
ag331
ag331
ag331
ag331
ag331
ag331
ag331
ag331
ag334
ag331
ag331
ag331
ag331
ag331
ag331
ag331
ag331
ag331
ag331
ag331
ag331
ag331
ag331
ag331
ag331
ag331
ag331
ag331
ag331
ag331
ag331
ag331
ag331
ag331
ag331
ag331
ag331
ag331
ag331
ag331
ag331
ag331
ag331
ag331
ag331
ag334
ag331
ag331
ag331
ag331
ag331
ag331
ag331
ag331
ag331
ag331
ag331
ag334
ag331
aaa(lp2855
(lp2856
g4
(g8
S'\x00\x9f\x94@'
p2857
tp2858
Rp2859
ag4
(g8
S'\x81\xad\x15@'
p2860
tp2861
Rp2862
ag4
(g8
S'=X\x86?'
p2863
tp2864
Rp2865
ag4
(g8
S't\xdao?'
p2866
tp2867
Rp2868
ag4
(g8
S'\xf148B'
p2869
tp2870
Rp2871
ag4
(g8
S'\xf148B'
p2872
tp2873
Rp2874
ag4
(g8
S'\x9d\xdc3?'
p2875
tp2876
Rp2877
ag4
(g8
S'p3J?'
p2878
tp2879
Rp2880
ag4
(g8
S'\xf6J\xe1?'
p2881
tp2882
Rp2883
ag4
(g8
S'_7\xcd?'
p2884
tp2885
Rp2886
ag4
(g8
S'\xf148B'
p2887
tp2888
Rp2889
ag4
(g8
S'\xf148B'
p2890
tp2891
Rp2892
ag4
(g8
S'\xf148B'
p2893
tp2894
Rp2895
ag4
(g8
S'\xf148B'
p2896
tp2897
Rp2898
ag4
(g8
S'{\xe0g@'
p2899
tp2900
Rp2901
ag4
(g8
S'\xaa\x8a\x0c@'
p2902
tp2903
Rp2904
ag4
(g8
S'\xf148B'
p2905
tp2906
Rp2907
ag4
(g8
S'\xf148B'
p2908
tp2909
Rp2910
ag4
(g8
S'O\xcb\x9f?'
p2911
tp2912
Rp2913
ag4
(g8
S'?6\x80?'
p2914
tp2915
Rp2916
ag4
(g8
S'\x06\xa0\x92?'
p2917
tp2918
Rp2919
ag4
(g8
S'\xb3w\xec?'
p2920
tp2921
Rp2922
ag4
(g8
S'\x80\xd7K@'
p2923
tp2924
Rp2925
ag4
(g8
S'\xb2\x1f\xed?'
p2926
tp2927
Rp2928
ag4
(g8
S'$\xdb\xf3>'
p2929
tp2930
Rp2931
ag4
(g8
S'j)1?'
p2932
tp2933
Rp2934
ag4
(g8
S'$2\xa3?'
p2935
tp2936
Rp2937
ag4
(g8
S'\xa7\x02\xb1?'
p2938
tp2939
Rp2940
ag4
(g8
S'\xf148B'
p2941
tp2942
Rp2943
ag4
(g8
S'\xf148B'
p2944
tp2945
Rp2946
ag4
(g8
S'\xf148B'
p2947
tp2948
Rp2949
ag4
(g8
S'\xf148B'
p2950
tp2951
Rp2952
ag4
(g8
S'\n\xbc\xd1?'
p2953
tp2954
Rp2955
ag4
(g8
S'Z\x18\\?'
p2956
tp2957
Rp2958
ag4
(g8
S'\xfc<\xd7?'
p2959
tp2960
Rp2961
ag4
(g8
S'M/=@'
p2962
tp2963
Rp2964
ag4
(g8
S'\xf148B'
p2965
tp2966
Rp2967
ag4
(g8
S'\xf148B'
p2968
tp2969
Rp2970
ag4
(g8
S'\x9b\x1bS?'
p2971
tp2972
Rp2973
ag4
(g8
S'\xe8\xc5$?'
p2974
tp2975
Rp2976
ag4
(g8
S'i$\x9c?'
p2977
tp2978
Rp2979
ag4
(g8
S'Z\xcb\xb9?'
p2980
tp2981
Rp2982
ag4
(g8
S'\\\x82\xa7?'
p2983
tp2984
Rp2985
ag4
(g8
S'\xf9\x058?'
p2986
tp2987
Rp2988
ag4
(g8
S'q\x90<?'
p2989
tp2990
Rp2991
ag4
(g8
S'\xb2\x1c\x0e?'
p2992
tp2993
Rp2994
ag4
(g8
S')\x86\x9d?'
p2995
tp2996
Rp2997
ag4
(g8
S'\x923\x92?'
p2998
tp2999
Rp3000
ag4
(g8
S'.\xe0\t@'
p3001
tp3002
Rp3003
ag4
(g8
S'\x86\xf1\xda?'
p3004
tp3005
Rp3006
ag4
(g8
S'\xf148B'
p3007
tp3008
Rp3009
ag4
(g8
S'\xf148B'
p3010
tp3011
Rp3012
ag4
(g8
S'\xf148B'
p3013
tp3014
Rp3015
ag4
(g8
S'\xf148B'
p3016
tp3017
Rp3018
ag4
(g8
S'\xf148B'
p3019
tp3020
Rp3021
ag4
(g8
S'\xf148B'
p3022
tp3023
Rp3024
ag4
(g8
S'4\x03{?'
p3025
tp3026
Rp3027
ag4
(g8
S'\t\x93:?'
p3028
tp3029
Rp3030
ag4
(g8
S'\xe5\xd2~?'
p3031
tp3032
Rp3033
ag4
(g8
S'\x81+A?'
p3034
tp3035
Rp3036
ag4
(g8
S'\xd1\xb1\xa5>'
p3037
tp3038
Rp3039
ag4
(g8
S'\x16a\x0b?'
p3040
tp3041
Rp3042
ag4
(g8
S'\x0bb ?'
p3043
tp3044
Rp3045
ag4
(g8
S'\xf7\x01B?'
p3046
tp3047
Rp3048
ag4
(g8
S'<Vs@'
p3049
tp3050
Rp3051
ag4
(g8
S'rKL@'
p3052
tp3053
Rp3054
ag4
(g8
S'?\xbda?'
p3055
tp3056
Rp3057
ag4
(g8
S'\x01L]?'
p3058
tp3059
Rp3060
ag4
(g8
S'\x03\x0b\xd5?'
p3061
tp3062
Rp3063
ag4
(g8
S'\xf6\xc4 @'
p3064
tp3065
Rp3066
ag4
(g8
S'\xedE\xe5?'
p3067
tp3068
Rp3069
ag4
(g8
S'\xa46A@'
p3070
tp3071
Rp3072
ag4
(g8
S'\xf148B'
p3073
tp3074
Rp3075
ag4
(g8
S'\xf148B'
p3076
tp3077
Rp3078
ag4
(g8
S'v\xc9s?'
p3079
tp3080
Rp3081
ag4
(g8
S'\x88\x84\xa3?'
p3082
tp3083
Rp3084
ag4
(g8
S'\xda\xec\xd9?'
p3085
tp3086
Rp3087
ag4
(g8
S'Y\xd6a?'
p3088
tp3089
Rp3090
ag4
(g8
S'\xe5\x13\x8b?'
p3091
tp3092
Rp3093
ag4
(g8
S'\x9fN\x86?'
p3094
tp3095
Rp3096
ag4
(g8
S'\xf148B'
p3097
tp3098
Rp3099
ag4
(g8
S'\xf148B'
p3100
tp3101
Rp3102
ag4
(g8
S'\xf148B'
p3103
tp3104
Rp3105
ag4
(g8
S'\xf148B'
p3106
tp3107
Rp3108
ag4
(g8
S'\xe5U\xa7?'
p3109
tp3110
Rp3111
ag4
(g8
S'\xe6\xeb\x98?'
p3112
tp3113
Rp3114
ag4
(g8
S'X\xe6\x9e>'
p3115
tp3116
Rp3117
ag4
(g8
S'\x037\xe9>'
p3118
tp3119
Rp3120
ag4
(g8
S'\x08\r\xb3?'
p3121
tp3122
Rp3123
ag4
(g8
S'#\x9d\xac?'
p3124
tp3125
Rp3126
ag4
(g8
S'\xf148B'
p3127
tp3128
Rp3129
ag4
(g8
S'\xf148B'
p3130
tp3131
Rp3132
ag4
(g8
S'\xfe^\x93?'
p3133
tp3134
Rp3135
ag4
(g8
S'\xa3\x9f\xaa?'
p3136
tp3137
Rp3138
ag4
(g8
S'\xf148B'
p3139
tp3140
Rp3141
ag4
(g8
S'\xf148B'
p3142
tp3143
Rp3144
ag4
(g8
S'\xb0\xb9z@'
p3145
tp3146
Rp3147
ag4
(g8
S'k\n\x19@'
p3148
tp3149
Rp3150
ag4
(g8
S'\xf148B'
p3151
tp3152
Rp3153
ag4
(g8
S'\xf148B'
p3154
tp3155
Rp3156
ag4
(g8
S']\x03R?'
p3157
tp3158
Rp3159
ag4
(g8
S'\x1b\x90i?'
p3160
tp3161
Rp3162
ag4
(g8
S'\xf148B'
p3163
tp3164
Rp3165
ag4
(g8
S'\xf148B'
p3166
tp3167
Rp3168
aa(lp3169
g331
ag331
ag331
ag331
ag334
ag331
ag331
ag331
ag331
ag331
ag331
ag331
ag331
ag331
ag331
ag331
ag331
ag331
ag331
ag331
ag331
ag331
ag331
ag331
ag331
ag331
ag331
ag331
ag331
ag331
ag331
ag331
ag331
ag331
ag331
ag331
ag334
ag331
ag331
ag331
ag331
ag331
ag331
ag331
ag331
ag331
ag331
ag331
ag331
ag331
ag331
ag331
ag331
ag334
ag331
ag331
ag331
ag331
ag331
ag331
ag331
ag331
ag331
ag331
ag331
ag331
ag331
ag331
ag331
ag331
ag331
ag331
ag331
ag331
ag331
ag331
ag331
ag331
ag331
ag331
ag331
ag331
ag331
ag331
ag331
ag331
ag331
ag331
ag331
ag331
ag334
ag331
ag331
ag331
ag331
ag331
ag331
ag331
ag331
ag331
ag331
ag331
ag334
ag331
aaaa(lp3170
(lp3171
(lp3172
g4
(g8
S'\xe8ax?'
p3173
tp3174
Rp3175
ag4
(g8
S'\x0e\x8dj?'
p3176
tp3177
Rp3178
ag4
(g8
S'\x9b\xeeA@'
p3179
tp3180
Rp3181
ag4
(g8
S'\x1bgk@'
p3182
tp3183
Rp3184
ag4
(g8
S'\x84[\x02@'
p3185
tp3186
Rp3187
ag4
(g8
S'\x91\t\x9e?'
p3188
tp3189
Rp3190
ag4
(g8
S'Z\\\r@'
p3191
tp3192
Rp3193
ag4
(g8
S'}\xde\xfe?'
p3194
tp3195
Rp3196
ag4
(g8
S"'\xd1\x89@"
p3197
tp3198
Rp3199
ag4
(g8
S'uz\x1c@'
p3200
tp3201
Rp3202
ag4
(g8
S'ah\xc0?'
p3203
tp3204
Rp3205
ag4
(g8
S'\xa87\xd9?'
p3206
tp3207
Rp3208
ag4
(g8
S'@9~?'
p3209
tp3210
Rp3211
ag4
(g8
S'\x8a\xac\x7f?'
p3212
tp3213
Rp3214
ag4
(g8
S'\xf6*\x81?'
p3215
tp3216
Rp3217
ag4
(g8
S'\xa4\x13\xa6?'
p3218
tp3219
Rp3220
ag4
(g8
S'\xab\x9e\x17@'
p3221
tp3222
Rp3223
ag4
(g8
S'\x90\x96\xdb?'
p3224
tp3225
Rp3226
ag4
(g8
S'+9\x85?'
p3227
tp3228
Rp3229
ag4
(g8
S'\x14\xa2|?'
p3230
tp3231
Rp3232
ag4
(g8
S'\xf148B'
p3233
tp3234
Rp3235
ag4
(g8
S'\xf148B'
p3236
tp3237
Rp3238
ag4
(g8
S'B\x02\r@'
p3239
tp3240
Rp3241
ag4
(g8
S'L\xb1d?'
p3242
tp3243
Rp3244
ag4
(g8
S'\x10b\x99?'
p3245
tp3246
Rp3247
ag4
(g8
S'%{\xc4?'
p3248
tp3249
Rp3250
ag4
(g8
S'M\x13\xbf?'
p3251
tp3252
Rp3253
ag4
(g8
S'\x94\xc4\x83?'
p3254
tp3255
Rp3256
ag4
(g8
S'f\xed\x8d@'
p3257
tp3258
Rp3259
ag4
(g8
S'\x9fSG@'
p3260
tp3261
Rp3262
ag4
(g8
S'\xf148B'
p3263
tp3264
Rp3265
ag4
(g8
S'\xf148B'
p3266
tp3267
Rp3268
ag4
(g8
S'\xf4\x0bR@'
p3269
tp3270
Rp3271
ag4
(g8
S'\xfbK7@'
p3272
tp3273
Rp3274
ag4
(g8
S'V\xfc_@'
p3275
tp3276
Rp3277
ag4
(g8
S'\xda(\xb5@'
p3278
tp3279
Rp3280
ag4
(g8
S'\x8e\x86\x0c@'
p3281
tp3282
Rp3283
ag4
(g8
S'u\xe3\x8c?'
p3284
tp3285
Rp3286
ag4
(g8
S'\xca\xf3\x03?'
p3287
tp3288
Rp3289
ag4
(g8
S'g\xe9\xc7?'
p3290
tp3291
Rp3292
ag4
(g8
S'\xf148B'
p3293
tp3294
Rp3295
ag4
(g8
S'\xf148B'
p3296
tp3297
Rp3298
ag4
(g8
S'R!p@'
p3299
tp3300
Rp3301
ag4
(g8
S':\xff\x83@'
p3302
tp3303
Rp3304
ag4
(g8
S'\x90\x93\x02@'
p3305
tp3306
Rp3307
ag4
(g8
S'\xe6x\x0f@'
p3308
tp3309
Rp3310
ag4
(g8
S'v\x82|?'
p3311
tp3312
Rp3313
ag4
(g8
S'+\xd4s?'
p3314
tp3315
Rp3316
ag4
(g8
S'\xbc\x88\xa0@'
p3317
tp3318
Rp3319
ag4
(g8
S'\xd7\xe8 @'
p3320
tp3321
Rp3322
ag4
(g8
S'\x9e\t\x86@'
p3323
tp3324
Rp3325
ag4
(g8
S'\x92\x8b.@'
p3326
tp3327
Rp3328
ag4
(g8
S'\x90\x93\x02@'
p3329
tp3330
Rp3331
ag4
(g8
S'\xe6x\x0f@'
p3332
tp3333
Rp3334
ag4
(g8
S'\xc6\xf5\xc0?'
p3335
tp3336
Rp3337
ag4
(g8
S'\xddU\xbe?'
p3338
tp3339
Rp3340
ag4
(g8
S'\x87\xa4+?'
p3341
tp3342
Rp3343
ag4
(g8
S'V\xf34?'
p3344
tp3345
Rp3346
ag4
(g8
S'\xeaA\x9b@'
p3347
tp3348
Rp3349
ag4
(g8
S'\x16\x02\xa5@'
p3350
tp3351
Rp3352
ag4
(g8
S'\x91]\xe1?'
p3353
tp3354
Rp3355
ag4
(g8
S'S\x90\x03@'
p3356
tp3357
Rp3358
ag4
(g8
S'\x07X\xc3?'
p3359
tp3360
Rp3361
ag4
(g8
S'I\x94{?'
p3362
tp3363
Rp3364
ag4
(g8
S'\xf148B'
p3365
tp3366
Rp3367
ag4
(g8
S'\xf148B'
p3368
tp3369
Rp3370
ag4
(g8
S'\xf148B'
p3371
tp3372
Rp3373
ag4
(g8
S'\xf148B'
p3374
tp3375
Rp3376
ag4
(g8
S'q\xdc\x82?'
p3377
tp3378
Rp3379
ag4
(g8
S'\x98\x1d\x81?'
p3380
tp3381
Rp3382
ag4
(g8
S'\xf148B'
p3383
tp3384
Rp3385
ag4
(g8
S'\xf148B'
p3386
tp3387
Rp3388
ag4
(g8
S'\xf148B'
p3389
tp3390
Rp3391
ag4
(g8
S'\xf148B'
p3392
tp3393
Rp3394
ag4
(g8
S'<\xfa\xed?'
p3395
tp3396
Rp3397
ag4
(g8
S'\xf6\xea\xf6?'
p3398
tp3399
Rp3400
aa(lp3401
g331
ag331
ag331
ag331
ag331
ag331
ag331
ag331
ag331
ag331
ag331
ag331
ag331
ag331
ag331
ag331
ag331
ag331
ag331
ag331
ag331
ag331
ag331
ag331
ag331
ag331
ag331
ag331
ag331
ag331
ag331
ag331
ag331
ag331
ag331
ag331
ag331
ag331
ag331
ag331
ag331
ag331
ag331
ag331
ag331
ag331
ag331
ag331
ag331
ag331
ag331
ag331
ag331
ag331
ag331
ag331
ag331
ag331
ag331
ag334
ag331
ag331
ag331
ag331
ag331
ag331
ag331
ag331
ag331
ag331
ag331
ag331
ag331
ag334
ag331
ag331
aaa(lp3402
(lp3403
g4
(g8
S'4\x8cy?'
p3404
tp3405
Rp3406
ag4
(g8
S'\xc8\x8ei?'
p3407
tp3408
Rp3409
ag4
(g8
S'\x9d\x1b?@'
p3410
tp3411
Rp3412
ag4
(g8
S'\xf7c`@'
p3413
tp3414
Rp3415
ag4
(g8
S'\x99^\x01@'
p3416
tp3417
Rp3418
ag4
(g8
S'\xfe\x94\x99?'
p3419
tp3420
Rp3421
ag4
(g8
S'R\x18\x07@'
p3422
tp3423
Rp3424
ag4
(g8
S'h\xe8\xf6?'
p3425
tp3426
Rp3427
ag4
(g8
S'\xb6\xdf\x86@'
p3428
tp3429
Rp3430
ag4
(g8
S'\xf3\xda\x14@'
p3431
tp3432
Rp3433
ag4
(g8
S'@t\xc0?'
p3434
tp3435
Rp3436
ag4
(g8
S'<A\xd6?'
p3437
tp3438
Rp3439
ag4
(g8
S'\xe5P|?'
p3440
tp3441
Rp3442
ag4
(g8
S'\xf3\x0f\x7f?'
p3443
tp3444
Rp3445
ag4
(g8
S'\xac\x7f\x82?'
p3446
tp3447
Rp3448
ag4
(g8
S'\x03\xda\xa3?'
p3449
tp3450
Rp3451
ag4
(g8
S'\x04\x89\x18@'
p3452
tp3453
Rp3454
ag4
(g8
S'\n\xc9\xdd?'
p3455
tp3456
Rp3457
ag4
(g8
S'\xbd\x97\x85?'
p3458
tp3459
Rp3460
ag4
(g8
S'\x92p|?'
p3461
tp3462
Rp3463
ag4
(g8
S'\xf148B'
p3464
tp3465
Rp3466
ag4
(g8
S'\xf148B'
p3467
tp3468
Rp3469
ag4
(g8
S'\xe1\\\n@'
p3470
tp3471
Rp3472
ag4
(g8
S'\x1a\x0e\\?'
p3473
tp3474
Rp3475
ag4
(g8
S'cw\x99?'
p3476
tp3477
Rp3478
ag4
(g8
S'\xc4\x1c\xc1?'
p3479
tp3480
Rp3481
ag4
(g8
S'\xfe\xe6\xc0?'
p3482
tp3483
Rp3484
ag4
(g8
S'a1\x81?'
p3485
tp3486
Rp3487
ag4
(g8
S'\xd1\x9d\x87@'
p3488
tp3489
Rp3490
ag4
(g8
S'\xd00B@'
p3491
tp3492
Rp3493
ag4
(g8
S'\xf148B'
p3494
tp3495
Rp3496
ag4
(g8
S'\xf148B'
p3497
tp3498
Rp3499
ag4
(g8
S'3\xe2D@'
p3500
tp3501
Rp3502
ag4
(g8
S'\xfeW.@'
p3503
tp3504
Rp3505
ag4
(g8
S'<\xdd_@'
p3506
tp3507
Rp3508
ag4
(g8
S'\t\x12\xb6@'
p3509
tp3510
Rp3511
ag4
(g8
S'\x04]\n@'
p3512
tp3513
Rp3514
ag4
(g8
S'M\xa4\x88?'
p3515
tp3516
Rp3517
ag4
(g8
S'\xbb,\x00?'
p3518
tp3519
Rp3520
ag4
(g8
S'\x84\xef\xbd?'
p3521
tp3522
Rp3523
ag4
(g8
S'\xf148B'
p3524
tp3525
Rp3526
ag4
(g8
S'\xf148B'
p3527
tp3528
Rp3529
ag4
(g8
S' \xd6k@'
p3530
tp3531
Rp3532
ag4
(g8
S'f\xdb|@'
p3533
tp3534
Rp3535
ag4
(g8
S'zM\x01@'
p3536
tp3537
Rp3538
ag4
(g8
S'\xe68\x0f@'
p3539
tp3540
Rp3541
ag4
(g8
S'\xd5\x07|?'
p3542
tp3543
Rp3544
ag4
(g8
S'\xbe\x1dt?'
p3545
tp3546
Rp3547
ag4
(g8
S'\x0f\xbe\x9a@'
p3548
tp3549
Rp3550
ag4
(g8
S'2e\x18@'
p3551
tp3552
Rp3553
ag4
(g8
S'\xd4C\x85@'
p3554
tp3555
Rp3556
ag4
(g8
S'r".@'
p3557
tp3558
Rp3559
ag4
(g8
S'zM\x01@'
p3560
tp3561
Rp3562
ag4
(g8
S'\xe68\x0f@'
p3563
tp3564
Rp3565
ag4
(g8
S'\x8eI\xbd?'
p3566
tp3567
Rp3568
ag4
(g8
S'\xd7\xb6\xb6?'
p3569
tp3570
Rp3571
ag4
(g8
S'{e+?'
p3572
tp3573
Rp3574
ag4
(g8
S'\xe8\x8f0?'
p3575
tp3576
Rp3577
ag4
(g8
S'\x9b]\x95@'
p3578
tp3579
Rp3580
ag4
(g8
S'\x05\xc5\xa0@'
p3581
tp3582
Rp3583
ag4
(g8
S'\x91H\xd7?'
p3584
tp3585
Rp3586
ag4
(g8
S'\x06\x9c\xf8?'
p3587
tp3588
Rp3589
ag4
(g8
S'\x18!\xc4?'
p3590
tp3591
Rp3592
ag4
(g8
S'\x1d\x80u?'
p3593
tp3594
Rp3595
ag4
(g8
S'\xf148B'
p3596
tp3597
Rp3598
ag4
(g8
S'\xf148B'
p3599
tp3600
Rp3601
ag4
(g8
S'\xf148B'
p3602
tp3603
Rp3604
ag4
(g8
S'\xf148B'
p3605
tp3606
Rp3607
ag4
(g8
S'){\x82?'
p3608
tp3609
Rp3610
ag4
(g8
S':\xef\x80?'
p3611
tp3612
Rp3613
ag4
(g8
S'\xf148B'
p3614
tp3615
Rp3616
ag4
(g8
S'\xf148B'
p3617
tp3618
Rp3619
ag4
(g8
S'\xf148B'
p3620
tp3621
Rp3622
ag4
(g8
S'\xf148B'
p3623
tp3624
Rp3625
ag4
(g8
S'\x06q\xee?'
p3626
tp3627
Rp3628
ag4
(g8
S'\x03\xe5\xf5?'
p3629
tp3630
Rp3631
aa(lp3632
g331
ag331
ag331
ag331
ag331
ag331
ag331
ag331
ag331
ag331
ag331
ag331
ag331
ag331
ag331
ag331
ag331
ag331
ag331
ag331
ag331
ag331
ag331
ag331
ag331
ag331
ag331
ag331
ag331
ag331
ag331
ag331
ag331
ag331
ag331
ag331
ag331
ag331
ag331
ag331
ag331
ag331
ag331
ag331
ag331
ag331
ag331
ag331
ag331
ag331
ag331
ag331
ag331
ag331
ag331
ag331
ag331
ag331
ag331
ag331
ag331
ag331
ag331
ag331
ag331
ag331
ag331
ag331
ag331
ag331
ag331
ag331
ag331
ag334
ag331
ag331
aaa(lp3633
(lp3634
g4
(g8
S'\xef\xccz?'
p3635
tp3636
Rp3637
ag4
(g8
S'9\x84h?'
p3638
tp3639
Rp3640
ag4
(g8
S'\x1aZ<@'
p3641
tp3642
Rp3643
ag4
(g8
S'\xf8/V@'
p3644
tp3645
Rp3646
ag4
(g8
S'\xd2~\x00@'
p3647
tp3648
Rp3649
ag4
(g8
S'%\x8a\x95?'
p3650
tp3651
Rp3652
ag4
(g8
S'^\xdf\x00@'
p3653
tp3654
Rp3655
ag4
(g8
S'4\x92\xee?'
p3656
tp3657
Rp3658
ag4
(g8
S'(\xe8\x83@'
p3659
tp3660
Rp3661
ag4
(g8
S'^\xd2\r@'
p3662
tp3663
Rp3664
ag4
(g8
S'@\xe0\xc0?'
p3665
tp3666
Rp3667
ag4
(g8
S'p8\xd3?'
p3668
tp3669
Rp3670
ag4
(g8
S'\xe0\x14z?'
p3671
tp3672
Rp3673
ag4
(g8
S'\xe2\x82~?'
p3674
tp3675
Rp3676
ag4
(g8
S'\xef\xf1\x83?'
p3677
tp3678
Rp3679
ag4
(g8
S'\x08\xc3\xa1?'
p3680
tp3681
Rp3682
ag4
(g8
S'-\x8e\x19@'
p3683
tp3684
Rp3685
ag4
(g8
S'\xdc\xf6\xdf?'
p3686
tp3687
Rp3688
ag4
(g8
S'm\xfe\x85?'
p3689
tp3690
Rp3691
ag4
(g8
S'DL|?'
p3692
tp3693
Rp3694
ag4
(g8
S'\xf148B'
p3695
tp3696
Rp3697
ag4
(g8
S'\xf148B'
p3698
tp3699
Rp3700
ag4
(g8
S'\x94\xfa\x07@'
p3701
tp3702
Rp3703
ag4
(g8
S'\x18\xc7R?'
p3704
tp3705
Rp3706
ag4
(g8
S'K\xd1\x99?'
p3707
tp3708
Rp3709
ag4
(g8
S'{\xa4\xbd?'
p3710
tp3711
Rp3712
ag4
(g8
S'\xd2\xf8\xc2?'
p3713
tp3714
Rp3715
ag4
(g8
S'\xba\xe9|?'
p3716
tp3717
Rp3718
ag4
(g8
S'9s\x81@'
p3719
tp3720
Rp3721
ag4
(g8
S'|\x13=@'
p3722
tp3723
Rp3724
ag4
(g8
S'\xf148B'
p3725
tp3726
Rp3727
ag4
(g8
S'\xf148B'
p3728
tp3729
Rp3730
ag4
(g8
S'k 8@'
p3731
tp3732
Rp3733
ag4
(g8
S'?\xc3%@'
p3734
tp3735
Rp3736
ag4
(g8
S'\xb3\x0f`@'
p3737
tp3738
Rp3739
ag4
(g8
S'.n\xb7@'
p3740
tp3741
Rp3742
ag4
(g8
S'Q\\\x08@'
p3743
tp3744
Rp3745
ag4
(g8
S'$\x82\x84?'
p3746
tp3747
Rp3748
ag4
(g8
S'\xe6\x1a\xf9>'
p3749
tp3750
Rp3751
ag4
(g8
S'\xbeH\xb5?'
p3752
tp3753
Rp3754
ag4
(g8
S'\xf148B'
p3755
tp3756
Rp3757
ag4
(g8
S'\xf148B'
p3758
tp3759
Rp3760
ag4
(g8
S'\x11\x9bg@'
p3761
tp3762
Rp3763
ag4
(g8
S'\xfa\xbar@'
p3764
tp3765
Rp3766
ag4
(g8
S'\xdd\x12\x00@'
p3767
tp3768
Rp3769
ag4
(g8
S'\x9c\xf5\x0e@'
p3770
tp3771
Rp3772
ag4
(g8
S'vs{?'
p3773
tp3774
Rp3775
ag4
(g8
S'\xb6tt?'
p3776
tp3777
Rp3778
ag4
(g8
S'\xdeA\x95@'
p3779
tp3780
Rp3781
ag4
(g8
S'!k\x10@'
p3782
tp3783
Rp3784
ag4
(g8
S'`\x83\x84@'
p3785
tp3786
Rp3787
ag4
(g8
S'\xc8\xbc-@'
p3788
tp3789
Rp3790
ag4
(g8
S'\xdd\x12\x00@'
p3791
tp3792
Rp3793
ag4
(g8
S'\x9c\xf5\x0e@'
p3794
tp3795
Rp3796
ag4
(g8
S'd\xa2\xb9?'
p3797
tp3798
Rp3799
ag4
(g8
S'?G\xaf?'
p3800
tp3801
Rp3802
ag4
(g8
S'\xaa\xef*?'
p3803
tp3804
Rp3805
ag4
(g8
S'k*,?'
p3806
tp3807
Rp3808
ag4
(g8
S'k\xd1\x8f@'
p3809
tp3810
Rp3811
ag4
(g8
S'\xc6\xd3\x9c@'
p3812
tp3813
Rp3814
ag4
(g8
S'\x83V\xcd?'
p3815
tp3816
Rp3817
ag4
(g8
S'-\xf3\xe9?'
p3818
tp3819
Rp3820
ag4
(g8
S'\x91 \xc5?'
p3821
tp3822
Rp3823
ag4
(g8
S'\xd6\x8eo?'
p3824
tp3825
Rp3826
ag4
(g8
S'\xf148B'
p3827
tp3828
Rp3829
ag4
(g8
S'\xf148B'
p3830
tp3831
Rp3832
ag4
(g8
S'\xf148B'
p3833
tp3834
Rp3835
ag4
(g8
S'\xf148B'
p3836
tp3837
Rp3838
ag4
(g8
S'\x90\x0b\x82?'
p3839
tp3840
Rp3841
ag4
(g8
S'\xe3\xc3\x80?'
p3842
tp3843
Rp3844
ag4
(g8
S'\xf148B'
p3845
tp3846
Rp3847
ag4
(g8
S'\xf148B'
p3848
tp3849
Rp3850
ag4
(g8
S'\xf148B'
p3851
tp3852
Rp3853
ag4
(g8
S'\xf148B'
p3854
tp3855
Rp3856
ag4
(g8
S'Q\x04\xef?'
p3857
tp3858
Rp3859
ag4
(g8
S'\x0c\xe1\xf4?'
p3860
tp3861
Rp3862
aa(lp3863
g331
ag331
ag331
ag331
ag331
ag331
ag331
ag331
ag331
ag331
ag331
ag331
ag331
ag331
ag331
ag331
ag331
ag331
ag331
ag331
ag331
ag331
ag331
ag331
ag331
ag331
ag331
ag331
ag331
ag331
ag331
ag331
ag331
ag331
ag331
ag331
ag331
ag331
ag331
ag331
ag331
ag331
ag331
ag331
ag331
ag331
ag331
ag331
ag331
ag331
ag331
ag331
ag331
ag331
ag331
ag331
ag331
ag331
ag331
ag331
ag331
ag331
ag331
ag331
ag331
ag331
ag331
ag331
ag331
ag331
ag331
ag331
ag331
ag334
ag331
ag331
aaa(lp3864
(lp3865
g4
(g8
S"2'|?"
p3866
tp3867
Rp3868
ag4
(g8
S'\x10sg?'
p3869
tp3870
Rp3871
ag4
(g8
S'\t\xa39@'
p3872
tp3873
Rp3874
ag4
(g8
S'G\xd9L@'
p3875
tp3876
Rp3877
ag4
(g8
S'+y\xff?'
p3878
tp3879
Rp3880
ag4
(g8
S'\xa4\xdb\x91?'
p3881
tp3882
Rp3883
ag4
(g8
S'\xa6x\xf5?'
p3884
tp3885
Rp3886
ag4
(g8
S'l\x00\xe6?'
p3887
tp3888
Rp3889
ag4
(g8
S'\xec\xe8\x80@'
p3890
tp3891
Rp3892
ag4
(g8
S'?]\x07@'
p3893
tp3894
Rp3895
ag4
(g8
S'\xe1\xaa\xc1?'
p3896
tp3897
Rp3898
ag4
(g8
S'U&\xd0?'
p3899
tp3900
Rp3901
ag4
(g8
S'\xectw?'
p3902
tp3903
Rp3904
ag4
(g8
S'L\x06~?'
p3905
tp3906
Rp3907
ag4
(g8
S'\x1f\x8a\x85?'
p3908
tp3909
Rp3910
ag4
(g8
S'\x1b\xcb\x9f?'
p3911
tp3912
Rp3913
ag4
(g8
S'\xb5\xa9\x1a@'
p3914
tp3915
Rp3916
ag4
(g8
S'\x89\x12\xe2?'
p3917
tp3918
Rp3919
ag4
(g8
S'\xbcm\x86?'
p3920
tp3921
Rp3922
ag4
(g8
S'\xac4|?'
p3923
tp3924
Rp3925
ag4
(g8
S'\xf148B'
p3926
tp3927
Rp3928
ag4
(g8
S'\xf148B'
p3929
tp3930
Rp3931
ag4
(g8
S'\xb6\xe2\x05@'
p3932
tp3933
Rp3934
ag4
(g8
S'\x90\x08I?'
p3935
tp3936
Rp3937
ag4
(g8
S'\x93n\x9a?'
p3938
tp3939
Rp3940
ag4
(g8
S'_\x1b\xba?'
p3941
tp3942
Rp3943
ag4
(g8
S'\xd7H\xc5?'
p3944
tp3945
Rp3946
ag4
(g8
S'\xf2/w?'
p3947
tp3948
Rp3949
ag4
(g8
S'\xb3\xe9v@'
p3950
tp3951
Rp3952
ag4
(g8
S'\xb3\xff7@'
p3953
tp3954
Rp3955
ag4
(g8
S'\xf148B'
p3956
tp3957
Rp3958
ag4
(g8
S'\xf148B'
p3959
tp3960
Rp3961
ag4
(g8
S'_\xd2+@'
p3962
tp3963
Rp3964
ag4
(g8
S'/\x98\x1d@'
p3965
tp3966
Rp3967
ag4
(g8
S'\xd3\x8b`@'
p3968
tp3969
Rp3970
ag4
(g8
S'\x00I\xb9@'
p3971
tp3972
Rp3973
ag4
(g8
S'\x8b\x84\x06@'
p3974
tp3975
Rp3976
ag4
(g8
S'\xb3v\x80?'
p3977
tp3978
Rp3979
ag4
(g8
S'ZL\xf2>'
p3980
tp3981
Rp3982
ag4
(g8
S'\xa0\xde\xad?'
p3983
tp3984
Rp3985
ag4
(g8
S'\xf148B'
p3986
tp3987
Rp3988
ag4
(g8
S'\xf148B'
p3989
tp3990
Rp3991
ag4
(g8
S'\x1egc@'
p3992
tp3993
Rp3994
ag4
(g8
S'C\xa5i@'
p3995
tp3996
Rp3997
ag4
(g8
S'\xb4\xbd\xfd?'
p3998
tp3999
Rp4000
ag4
(g8
S'\xf3\xaf\x0e@'
p4001
tp4002
Rp4003
ag4
(g8
S'\x88\xbez?'
p4004
tp4005
Rp4006
ag4
(g8
S'W\xd6t?'
p4007
tp4008
Rp4009
ag4
(g8
S't\x1b\x90@'
p4010
tp4011
Rp4012
ag4
(g8
S'z\t\t@'
p4013
tp4014
Rp4015
ag4
(g8
S'\xfe\xc2\x83@'
p4016
tp4017
Rp4018
ag4
(g8
S'\xd9X-@'
p4019
tp4020
Rp4021
ag4
(g8
S'\xb4\xbd\xfd?'
p4022
tp4023
Rp4024
ag4
(g8
S'\xf3\xaf\x0e@'
p4025
tp4026
Rp4027
ag4
(g8
S'\x11\xfa\xb5?'
p4028
tp4029
Rp4030
ag4
(g8
S'\xb4\x0b\xa8?'
p4031
tp4032
Rp4033
ag4
(g8
S's@*?'
p4034
tp4035
Rp4036
ag4
(g8
S"\xa3\xb2'?"
p4037
tp4038
Rp4039
ag4
(g8
S'\x1c\xa6\x8a@'
p4040
tp4041
Rp4042
ag4
(g8
S'\xb2.\x99@'
p4043
tp4044
Rp4045
ag4
(g8
S'\xf4\x95\xc3?'
p4046
tp4047
Rp4048
ag4
(g8
S'p3\xdb?'
p4049
tp4050
Rp4051
ag4
(g8
S'qY\xc6?'
p4052
tp4053
Rp4054
ag4
(g8
S'\r\xc8i?'
p4055
tp4056
Rp4057
ag4
(g8
S'\xf148B'
p4058
tp4059
Rp4060
ag4
(g8
S'\xf148B'
p4061
tp4062
Rp4063
ag4
(g8
S'\xf148B'
p4064
tp4065
Rp4066
ag4
(g8
S'\xf148B'
p4067
tp4068
Rp4069
ag4
(g8
S'\xb1\x8a\x81?'
p4070
tp4071
Rp4072
ag4
(g8
S'h\x9b\x80?'
p4073
tp4074
Rp4075
ag4
(g8
S'\xf148B'
p4076
tp4077
Rp4078
ag4
(g8
S'\xf148B'
p4079
tp4080
Rp4081
ag4
(g8
S'\xf148B'
p4082
tp4083
Rp4084
ag4
(g8
S'\xf148B'
p4085
tp4086
Rp4087
ag4
(g8
S'\x85\xbc\xef?'
p4088
tp4089
Rp4090
ag4
(g8
S'\xda\xe5\xf3?'
p4091
tp4092
Rp4093
aa(lp4094
g331
ag331
ag331
ag331
ag331
ag331
ag331
ag331
ag331
ag331
ag331
ag331
ag331
ag331
ag331
ag331
ag331
ag331
ag331
ag331
ag331
ag331
ag331
ag331
ag331
ag331
ag331
ag331
ag331
ag331
ag331
ag331
ag331
ag331
ag331
ag331
ag331
ag331
ag331
ag331
ag331
ag331
ag331
ag331
ag331
ag331
ag331
ag331
ag331
ag331
ag331
ag331
ag331
ag331
ag331
ag331
ag331
ag331
ag331
ag331
ag331
ag331
ag331
ag331
ag331
ag331
ag331
ag331
ag331
ag331
ag331
ag331
ag331
ag334
ag331
ag331
aaa(lp4095
(lp4096
g4
(g8
S'\x14\x9b}?'
p4097
tp4098
Rp4099
ag4
(g8
S'\x05]f?'
p4100
tp4101
Rp4102
ag4
(g8
S'\x0b\xed6@'
p4103
tp4104
Rp4105
ag4
(g8
S'\xa1^D@'
p4106
tp4107
Rp4108
ag4
(g8
S'\xdd/\xfe?'
p4109
tp4110
Rp4111
ag4
(g8
S'.\x7f\x8e?'
p4112
tp4113
Rp4114
ag4
(g8
S'\xa2\x80\xe9?'
p4115
tp4116
Rp4117
ag4
(g8
S'\xa1b\xdd?'
p4118
tp4119
Rp4120
ag4
(g8
S'r\xc0{@'
p4121
tp4122
Rp4123
ag4
(g8
S'9l\x01@'
p4124
tp4125
Rp4126
ag4
(g8
S'\xf1\xd6\xc2?'
p4127
tp4128
Rp4129
ag4
(g8
S'\x86\x10\xcd?'
p4130
tp4131
Rp4132
ag4
(g8
S'X]t?'
p4133
tp4134
Rp4135
ag4
(g8
S'\xb8\x9b}?'
p4136
tp4137
Rp4138
ag4
(g8
S'\xa4G\x87?'
p4139
tp4140
Rp4141
ag4
(g8
S'\xf4\xe9\x9d?'
p4142
tp4143
Rp4144
ag4
(g8
S'\xe9\xd7\x1b@'
p4145
tp4146
Rp4147
ag4
(g8
S'\x83\x1a\xe4?'
p4148
tp4149
Rp4150
ag4
(g8
S'\xe7\xe5\x86?'
p4151
tp4152
Rp4153
ag4
(g8
S"\x12'|?"
p4154
tp4155
Rp4156
ag4
(g8
S'\xf148B'
p4157
tp4158
Rp4159
ag4
(g8
S'\xf148B'
p4160
tp4161
Rp4162
ag4
(g8
S'~\x12\x04@'
p4163
tp4164
Rp4165
ag4
(g8
S'\xcd\n??'
p4166
tp4167
Rp4168
ag4
(g8
S'\x9aS\x9b?'
p4169
tp4170
Rp4171
ag4
(g8
S'\xed\x81\xb6?'
p4172
tp4173
Rp4174
ag4
(g8
S'~\xd6\xc7?'
p4175
tp4176
Rp4177
ag4
(g8
S'\x8c=q?'
p4178
tp4179
Rp4180
ag4
(g8
S'\\Wk@'
p4181
tp4182
Rp4183
ag4
(g8
S'k\xfe2@'
p4184
tp4185
Rp4186
ag4
(g8
S'\xf148B'
p4187
tp4188
Rp4189
ag4
(g8
S'\xf148B'
p4190
tp4191
Rp4192
ag4
(g8
S'\x1f\x07 @'
p4193
tp4194
Rp4195
ag4
(g8
S'a\xe4\x15@'
p4196
tp4197
Rp4198
ag4
(g8
S'\x7fEa@'
p4199
tp4200
Rp4201
ag4
(g8
S'\xa8\xac\xbb@'
p4202
tp4203
Rp4204
ag4
(g8
S'\xeb\xd1\x04@'
p4205
tp4206
Rp4207
ag4
(g8
S'\x93\xffx?'
p4208
tp4209
Rp4210
ag4
(g8
S'x\x02\xec>'
p4211
tp4212
Rp4213
ag4
(g8
S'\xce\x93\xa7?'
p4214
tp4215
Rp4216
ag4
(g8
S'\xf148B'
p4217
tp4218
Rp4219
ag4
(g8
S'\xf148B'
p4220
tp4221
Rp4222
ag4
(g8
S'\x17+_@'
p4223
tp4224
Rp4225
ag4
(g8
S'5\x8ea@'
p4226
tp4227
Rp4228
ag4
(g8
S'\xe9Z\xfb?'
p4229
tp4230
Rp4231
ag4
(g8
S'cl\x0e@'
p4232
tp4233
Rp4234
ag4
(g8
S'\x10\xe0y?'
p4235
tp4236
Rp4237
ag4
(g8
S'\xe6@u?'
p4238
tp4239
Rp4240
ag4
(g8
S'0Q\x8b@'
p4241
tp4242
Rp4243
ag4
(g8
S'\xfdH\x02@'
p4244
tp4245
Rp4246
ag4
(g8
S'b\x01\x83@'
p4247
tp4248
Rp4249
ag4
(g8
S'!\xf2,@'
p4250
tp4251
Rp4252
ag4
(g8
S'\xe9Z\xfb?'
p4253
tp4254
Rp4255
ag4
(g8
S'cl\x0e@'
p4256
tp4257
Rp4258
ag4
(g8
S'\x03D\xb2?'
p4259
tp4260
Rp4261
ag4
(g8
S'@\x0b\xa1?'
p4262
tp4263
Rp4264
ag4
(g8
S'\xc3R)?'
p4265
tp4266
Rp4267
ag4
(g8
S'\xc6\x1d#?'
p4268
tp4269
Rp4270
ag4
(g8
S'\x1f\xe2\x85@'
p4271
tp4272
Rp4273
ag4
(g8
S'\xda\xd4\x95@'
p4274
tp4275
Rp4276
ag4
(g8
S'D\x1f\xba?'
p4277
tp4278
Rp4279
ag4
(g8
S'?\x83\xcc?'
p4280
tp4281
Rp4282
ag4
(g8
S'\x93\xcf\xc7?'
p4283
tp4284
Rp4285
ag4
(g8
S'}&d?'
p4286
tp4287
Rp4288
ag4
(g8
S'\xf148B'
p4289
tp4290
Rp4291
ag4
(g8
S'\xf148B'
p4292
tp4293
Rp4294
ag4
(g8
S'\xf148B'
p4295
tp4296
Rp4297
ag4
(g8
S'\xf148B'
p4298
tp4299
Rp4300
ag4
(g8
S'\x94\xf4\x80?'
p4301
tp4302
Rp4303
ag4
(g8
S'\x90u\x80?'
p4304
tp4305
Rp4306
ag4
(g8
S'\xf148B'
p4307
tp4308
Rp4309
ag4
(g8
S'\xf148B'
p4310
tp4311
Rp4312
ag4
(g8
S'\xf148B'
p4313
tp4314
Rp4315
ag4
(g8
S'\xf148B'
p4316
tp4317
Rp4318
ag4
(g8
S'u\x99\xf0?'
p4319
tp4320
Rp4321
ag4
(g8
S'6\xf6\xf2?'
p4322
tp4323
Rp4324
aa(lp4325
g331
ag331
ag331
ag331
ag331
ag331
ag331
ag331
ag331
ag331
ag331
ag331
ag331
ag331
ag331
ag331
ag331
ag331
ag331
ag331
ag331
ag331
ag331
ag331
ag331
ag331
ag331
ag331
ag331
ag331
ag331
ag331
ag331
ag331
ag331
ag331
ag331
ag331
ag331
ag331
ag331
ag331
ag331
ag331
ag331
ag331
ag331
ag331
ag331
ag331
ag331
ag331
ag331
ag331
ag331
ag331
ag331
ag331
ag331
ag331
ag331
ag331
ag331
ag331
ag331
ag331
ag331
ag331
ag331
ag331
ag331
ag331
ag331
ag334
ag331
ag331
aaa(lp4326
(lp4327
g4
(g8
S"&'\x7f?"
p4328
tp4329
Rp4330
ag4
(g8
S'\xf5Ce?'
p4331
tp4332
Rp4333
ag4
(g8
S'\x1b04@'
p4334
tp4335
Rp4336
ag4
(g8
S'K\xb9<@'
p4337
tp4338
Rp4339
ag4
(g8
S'\xe0!\xfd?'
p4340
tp4341
Rp4342
ag4
(g8
S'lm\x8b?'
p4343
tp4344
Rp4345
ag4
(g8
S'\xb7\x01\xde?'
p4346
tp4347
Rp4348
ag4
(g8
S"'\xef\xd4?"
p4349
tp4350
Rp4351
ag4
(g8
S'U\x96u@'
p4352
tp4353
Rp4354
ag4
(g8
S'\xd8\xdb\xf7?'
p4355
tp4356
Rp4357
ag4
(g8
S'\xfeg\xc4?'
p4358
tp4359
Rp4360
ag4
(g8
S'e\xfa\xc9?'
p4361
tp4362
Rp4363
ag4
(g8
S'\xf3\xb7p?'
p4364
tp4365
Rp4366
ag4
(g8
S'\xd3C}?'
p4367
tp4368
Rp4369
ag4
(g8
S'\xf3)\x89?'
p4370
tp4371
Rp4372
ag4
(g8
S'\x8d\x15\x9c?'
p4373
tp4374
Rp4375
ag4
(g8
S'\xac\x15\x1d@'
p4376
tp4377
Rp4378
ag4
(g8
S'~\r\xe6?'
p4379
tp4380
Rp4381
ag4
(g8
S'\xcff\x87?'
p4382
tp4383
Rp4384
ag4
(g8
S'\xad!|?'
p4385
tp4386
Rp4387
ag4
(g8
S'\xf148B'
p4388
tp4389
Rp4390
ag4
(g8
S'\xf148B'
p4391
tp4392
Rp4393
ag4
(g8
S'\xa1\x86\x02@'
p4394
tp4395
Rp4396
ag4
(g8
S'\xde\n5?'
p4397
tp4398
Rp4399
ag4
(g8
S'H\x86\x9c?'
p4400
tp4401
Rp4402
ag4
(g8
S'%\xd3\xb2?'
p4403
tp4404
Rp4405
ag4
(g8
S'\xe0\xa0\xca?'
p4406
tp4407
Rp4408
ag4
(g8
S'-\x15k?'
p4409
tp4410
Rp4411
ag4
(g8
S'\xd4D`@'
p4412
tp4413
Rp4414
ag4
(g8
S'\x1b\x1c.@'
p4415
tp4416
Rp4417
ag4
(g8
S'\xf148B'
p4418
tp4419
Rp4420
ag4
(g8
S'\xf148B'
p4421
tp4422
Rp4423
ag4
(g8
S'*\xd3\x14@'
p4424
tp4425
Rp4426
ag4
(g8
S'\xfa\xb3\x0e@'
p4427
tp4428
Rp4429
ag4
(g8
S'\x89+b@'
p4430
tp4431
Rp4432
ag4
(g8
S'\r\xa1\xbe@'
p4433
tp4434
Rp4435
ag4
(g8
S'n<\x03@'
p4436
tp4437
Rp4438
ag4
(g8
S'\xe5?q?'
p4439
tp4440
Rp4441
ag4
(g8
S'\xfcG\xe6>'
p4442
tp4443
Rp4444
ag4
(g8
S'SF\xa2?'
p4445
tp4446
Rp4447
ag4
(g8
S'\xf148B'
p4448
tp4449
Rp4450
ag4
(g8
S'\xf148B'
p4451
tp4452
Rp4453
ag4
(g8
S'd\xdaZ@'
p4454
tp4455
Rp4456
ag4
(g8
S'\xb3bZ@'
p4457
tp4458
Rp4459
ag4
(g8
S'\x10\xf5\xf8?'
p4460
tp4461
Rp4462
ag4
(g8
S'+1\x0e@'
p4463
tp4464
Rp4465
ag4
(g8
S'\xfc\xcbx?'
p4466
tp4467
Rp4468
ag4
(g8
S'\xfa\xb3u?'
p4469
tp4470
Rp4471
ag4
(g8
S'\xf7\xe9\x86@'
p4472
tp4473
Rp4474
ag4
(g8
S'\xf0U\xf8?'
p4475
tp4476
Rp4477
ag4
(g8
S'S?\x82@'
p4478
tp4479
Rp4480
ag4
(g8
S'W\x84,@'
p4481
tp4482
Rp4483
ag4
(g8
S'\x10\xf5\xf8?'
p4484
tp4485
Rp4486
ag4
(g8
S'+1\x0e@'
p4487
tp4488
Rp4489
ag4
(g8
S'\xebt\xae?'
p4490
tp4491
Rp4492
ag4
(g8
S'2L\x9a?'
p4493
tp4494
Rp4495
ag4
(g8
S'\xfd\x1d(?'
p4496
tp4497
Rp4498
ag4
(g8
S'\xb2e\x1e?'
p4499
tp4500
Rp4501
ag4
(g8
S'\xd0\x8b\x81@'
p4502
tp4503
Rp4504
ag4
(g8
S'&\xc3\x92@'
p4505
tp4506
Rp4507
ag4
(g8
S'<\x12\xb1?'
p4508
tp4509
Rp4510
ag4
(g8
S'\xdf\x1c\xbe?'
p4511
tp4512
Rp4513
ag4
(g8
S'\x8e\x85\xc9?'
p4514
tp4515
Rp4516
ag4
(g8
S';\x9f^?'
p4517
tp4518
Rp4519
ag4
(g8
S'\xf148B'
p4520
tp4521
Rp4522
ag4
(g8
S'\xf148B'
p4523
tp4524
Rp4525
ag4
(g8
S'\xf148B'
p4526
tp4527
Rp4528
ag4
(g8
S'\xf148B'
p4529
tp4530
Rp4531
ag4
(g8
S'SD\x80?'
p4532
tp4533
Rp4534
ag4
(g8
S'\x1dR\x80?'
p4535
tp4536
Rp4537
ag4
(g8
S'\xf148B'
p4538
tp4539
Rp4540
ag4
(g8
S'\xf148B'
p4541
tp4542
Rp4543
ag4
(g8
S'\xf148B'
p4544
tp4545
Rp4546
ag4
(g8
S'\xf148B'
p4547
tp4548
Rp4549
ag4
(g8
S'\x15\x98\xf1?'
p4550
tp4551
Rp4552
ag4
(g8
S'\xe6\x0e\xf2?'
p4553
tp4554
Rp4555
aa(lp4556
g331
ag331
ag331
ag331
ag331
ag331
ag331
ag331
ag331
ag331
ag331
ag331
ag331
ag331
ag331
ag331
ag331
ag331
ag331
ag331
ag331
ag331
ag331
ag331
ag331
ag331
ag331
ag331
ag331
ag331
ag331
ag331
ag331
ag331
ag331
ag334
ag331
ag331
ag331
ag331
ag331
ag331
ag331
ag331
ag331
ag331
ag331
ag331
ag331
ag331
ag331
ag331
ag331
ag331
ag331
ag331
ag331
ag331
ag331
ag331
ag331
ag331
ag331
ag331
ag331
ag331
ag331
ag331
ag331
ag331
ag331
ag331
ag331
ag334
ag331
ag331
aaa(lp4557
(lp4558
g4
(g8
S'\x0ee\x80?'
p4559
tp4560
Rp4561
ag4
(g8
S'-,d?'
p4562
tp4563
Rp4564
ag4
(g8
S';f1@'
p4565
tp4566
Rp4567
ag4
(g8
S'\x16\xe25@'
p4568
tp4569
Rp4570
ag4
(g8
S'BL\xfc?'
p4571
tp4572
Rp4573
ag4
(g8
S'z\x9f\x88?'
p4574
tp4575
Rp4576
ag4
(g8
S'\xed)\xd3?'
p4577
tp4578
Rp4579
ag4
(g8
S'i\xd9\xcc?'
p4580
tp4581
Rp4582
ag4
(g8
S'DQo@'
p4583
tp4584
Rp4585
ag4
(g8
S'\xde\xac\xed?'
p4586
tp4587
Rp4588
ag4
(g8
S'\x87`\xc6?'
p4589
tp4590
Rp4591
ag4
(g8
S'W\xe8\xc6?'
p4592
tp4593
Rp4594
ag4
(g8
S'\xb2nl?'
p4595
tp4596
Rp4597
ag4
(g8
S'\xb0\xff|?'
p4598
tp4599
Rp4600
ag4
(g8
S'\x940\x8b?'
p4601
tp4602
Rp4603
ag4
(g8
S'\tE\x9a?'
p4604
tp4605
Rp4606
ag4
(g8
S'`a\x1e@'
p4607
tp4608
Rp4609
ag4
(g8
S'\x01\xe7\xe7?'
p4610
tp4611
Rp4612
ag4
(g8
S'X\xf0\x87?'
p4613
tp4614
Rp4615
ag4
(g8
S'\x10$|?'
p4616
tp4617
Rp4618
ag4
(g8
S'\xf148B'
p4619
tp4620
Rp4621
ag4
(g8
S'\xf148B'
p4622
tp4623
Rp4624
ag4
(g8
S'*=\x01@'
p4625
tp4626
Rp4627
ag4
(g8
S'"B+?'
p4628
tp4629
Rp4630
ag4
(g8
S'n\x0b\x9e?'
p4631
tp4632
Rp4633
ag4
(g8
S'\x1f\x0b\xaf?'
p4634
tp4635
Rp4636
ag4
(g8
S'\xeb\xa7\xcd?'
p4637
tp4638
Rp4639
ag4
(g8
S'\xf7\xbbd?'
p4640
tp4641
Rp4642
ag4
(g8
S'\xf0\xccU@'
p4643
tp4644
Rp4645
ag4
(g8
S'1e)@'
p4646
tp4647
Rp4648
ag4
(g8
S'\xf148B'
p4649
tp4650
Rp4651
ag4
(g8
S'\xf148B'
p4652
tp4653
Rp4654
ag4
(g8
S'\x11P\n@'
p4655
tp4656
Rp4657
ag4
(g8
S'\xb1\x0f\x08@'
p4658
tp4659
Rp4660
ag4
(g8
S'\x97)c@'
p4661
tp4662
Rp4663
ag4
(g8
S'\x87+\xc2@'
p4664
tp4665
Rp4666
ag4
(g8
S'9\xba\x01@'
p4667
tp4668
Rp4669
ag4
(g8
S'\x12\xb7i?'
p4670
tp4671
Rp4672
ag4
(g8
S'\xeb\x1e\xe1>'
p4673
tp4674
Rp4675
ag4
(g8
S'\xd4\xd2\x9d?'
p4676
tp4677
Rp4678
ag4
(g8
S'\xf148B'
p4679
tp4680
Rp4681
ag4
(g8
S'\xf148B'
p4682
tp4683
Rp4684
ag4
(g8
S'\x14mV@'
p4685
tp4686
Rp4687
ag4
(g8
S'\x8b\x0fT@'
p4688
tp4689
Rp4690
ag4
(g8
S'\x04\x82\xf6?'
p4691
tp4692
Rp4693
ag4
(g8
S'N\x04\x0e@'
p4694
tp4695
Rp4696
ag4
(g8
S'\xbcrw?'
p4697
tp4698
Rp4699
ag4
(g8
S'\x0e/v?'
p4700
tp4701
Rp4702
ag4
(g8
S'\x8d\xed\x82@'
p4703
tp4704
Rp4705
ag4
(g8
S'\xbbX\xed?'
p4706
tp4707
Rp4708
ag4
(g8
S'\xee}\x81@'
p4709
tp4710
Rp4711
ag4
(g8
S'|\r,@'
p4712
tp4713
Rp4714
ag4
(g8
S'\x04\x82\xf6?'
p4715
tp4716
Rp4717
ag4
(g8
S'N\x04\x0e@'
p4718
tp4719
Rp4720
ag4
(g8
S'\xe0\x85\xaa?'
p4721
tp4722
Rp4723
ag4
(g8
S'\xb1\xd3\x93?'
p4724
tp4725
Rp4726
ag4
(g8
S'\x87\x98&?'
p4727
tp4728
Rp4729
ag4
(g8
S'm\x85\x19?'
p4730
tp4731
Rp4732
ag4
(g8
S'ET{@'
p4733
tp4734
Rp4735
ag4
(g8
S'\xa3\xf4\x8f@'
p4736
tp4737
Rp4738
ag4
(g8
S'\xb6\x91\xa8?'
p4739
tp4740
Rp4741
ag4
(g8
S'\xa4A\xb0?'
p4742
tp4743
Rp4744
ag4
(g8
S'\xc6}\xcb?'
p4745
tp4746
Rp4747
ag4
(g8
S'(*Y?'
p4748
tp4749
Rp4750
ag4
(g8
S'\xf148B'
p4751
tp4752
Rp4753
ag4
(g8
S'\xf148B'
p4754
tp4755
Rp4756
ag4
(g8
S'\xf148B'
p4757
tp4758
Rp4759
ag4
(g8
S'\xf148B'
p4760
tp4761
Rp4762
ag4
(g8
S'\xfe\xe8~?'
p4763
tp4764
Rp4765
ag4
(g8
S'\x151\x80?'
p4766
tp4767
Rp4768
ag4
(g8
S'\xf148B'
p4769
tp4770
Rp4771
ag4
(g8
S'\xf148B'
p4772
tp4773
Rp4774
ag4
(g8
S'\xf148B'
p4775
tp4776
Rp4777
ag4
(g8
S'\xf148B'
p4778
tp4779
Rp4780
ag4
(g8
S'\x81\xb7\xf2?'
p4781
tp4782
Rp4783
ag4
(g8
S'u*\xf1?'
p4784
tp4785
Rp4786
aa(lp4787
g331
ag331
ag331
ag331
ag331
ag331
ag331
ag331
ag331
ag331
ag331
ag331
ag331
ag331
ag331
ag331
ag331
ag331
ag331
ag331
ag331
ag331
ag331
ag331
ag331
ag331
ag331
ag331
ag331
ag331
ag331
ag331
ag331
ag331
ag331
ag334
ag331
ag331
ag331
ag331
ag331
ag331
ag331
ag331
ag331
ag331
ag331
ag331
ag331
ag331
ag331
ag331
ag331
ag331
ag331
ag331
ag331
ag331
ag331
ag331
ag331
ag331
ag331
ag331
ag331
ag331
ag331
ag331
ag331
ag331
ag331
ag331
ag331
ag334
ag331
ag331
aaa(lp4788
(lp4789
g4
(g8
S'\xabA\x81?'
p4790
tp4791
Rp4792
ag4
(g8
S'\x85\x1ac?'
p4793
tp4794
Rp4795
ag4
(g8
S'+\x8e.@'
p4796
tp4797
Rp4798
ag4
(g8
S'I\xcf/@'
p4799
tp4800
Rp4801
ag4
(g8
S'}\xaa\xfb?'
p4802
tp4803
Rp4804
ag4
(g8
S'\xab\x0c\x86?'
p4805
tp4806
Rp4807
ag4
(g8
S'\xb7"\xc9?'
p4808
tp4809
Rp4810
ag4
(g8
S'\x84I\xc5?'
p4811
tp4812
Rp4813
ag4
(g8
S'Q\xf7h@'
p4814
tp4815
Rp4816
ag4
(g8
S'\x8c?\xe4?'
p4817
tp4818
Rp4819
ag4
(g8
S'\x85\xbc\xc8?'
p4820
tp4821
Rp4822
ag4
(g8
S'X\xe1\xc3?'
p4823
tp4824
Rp4825
ag4
(g8
S'Ppg?'
p4826
tp4827
Rp4828
ag4
(g8
S'\x86\xd2|?'
p4829
tp4830
Rp4831
ag4
(g8
S'cZ\x8d?'
p4832
tp4833
Rp4834
ag4
(g8
S'\xb1p\x98?'
p4835
tp4836
Rp4837
ag4
(g8
S'`\xb8\x1f@'
p4838
tp4839
Rp4840
ag4
(g8
S'l\xa6\xe9?'
p4841
tp4842
Rp4843
ag4
(g8
S'l\x82\x88?'
p4844
tp4845
Rp4846
ag4
(g8
S'\xd0,|?'
p4847
tp4848
Rp4849
ag4
(g8
S'\xf148B'
p4850
tp4851
Rp4852
ag4
(g8
S'\xf148B'
p4853
tp4854
Rp4855
ag4
(g8
S'\xd43\x00@'
p4856
tp4857
Rp4858
ag4
(g8
S'\xa0\xe0!?'
p4859
tp4860
Rp4861
ag4
(g8
S'}\xe2\x9f?'
p4862
tp4863
Rp4864
ag4
(g8
S'\xd8,\xab?'
p4865
tp4866
Rp4867
ag4
(g8
S'\xec\xe7\xd0?'
p4868
tp4869
Rp4870
ag4
(g8
S'\x19<^?'
p4871
tp4872
Rp4873
ag4
(g8
S'G\x0bL@'
p4874
tp4875
Rp4876
ag4
(g8
S'\x7f\xe4$@'
p4877
tp4878
Rp4879
ag4
(g8
S'\xf148B'
p4880
tp4881
Rp4882
ag4
(g8
S'\xf148B'
p4883
tp4884
Rp4885
ag4
(g8
S'\xc1\x97\x00@'
p4886
tp4887
Rp4888
ag4
(g8
S'\xa8\xfd\x01@'
p4889
tp4890
Rp4891
ag4
(g8
S'F-d@'
p4892
tp4893
Rp4894
ag4
(g8
S'\nM\xc6@'
p4895
tp4896
Rp4897
ag4
(g8
S'.A\x00@'
p4898
tp4899
Rp4900
ag4
(g8
S'6mb?'
p4901
tp4902
Rp4903
ag4
(g8
S'\xc9\x80\xdc>'
p4904
tp4905
Rp4906
ag4
(g8
S'&\x16\x9a?'
p4907
tp4908
Rp4909
ag4
(g8
S'\xf148B'
p4910
tp4911
Rp4912
ag4
(g8
S'\xf148B'
p4913
tp4914
Rp4915
ag4
(g8
S'Q\xe2Q@'
p4916
tp4917
Rp4918
ag4
(g8
S'B\x80N@'
p4919
tp4920
Rp4921
ag4
(g8
S'\xa7\xfc\xf3?'
p4922
tp4923
Rp4924
ag4
(g8
S'n\xe7\r@'
p4925
tp4926
Rp4927
ag4
(g8
S'M\xc2u?'
p4928
tp4929
Rp4930
ag4
(g8
S'\xdc\xb0v?'
p4931
tp4932
Rp4933
ag4
(g8
S'\xe9\xc3~@'
p4934
tp4935
Rp4936
ag4
(g8
S'\x86\x91\xe3?'
p4937
tp4938
Rp4939
ag4
(g8
S'6\xbf\x80@'
p4940
tp4941
Rp4942
ag4
(g8
S'\x9d\x8c+@'
p4943
tp4944
Rp4945
ag4
(g8
S'\xa7\xfc\xf3?'
p4946
tp4947
Rp4948
ag4
(g8
S'n\xe7\r@'
p4949
tp4950
Rp4951
ag4
(g8
S'+v\xa6?'
p4952
tp4953
Rp4954
ag4
(g8
S'*\xa7\x8d?'
p4955
tp4956
Rp4957
ag4
(g8
S'8\xbc$?'
p4958
tp4959
Rp4960
ag4
(g8
S'Oy\x14?'
p4961
tp4962
Rp4963
ag4
(g8
S'\xde\x83t@'
p4964
tp4965
Rp4966
ag4
(g8
S'\x11d\x8d@'
p4967
tp4968
Rp4969
ag4
(g8
S'\xdc\xbc\xa0?'
p4970
tp4971
Rp4972
ag4
(g8
S'\x0c-\xa3?'
p4973
tp4974
Rp4975
ag4
(g8
S'G\xb7\xcd?'
p4976
tp4977
Rp4978
ag4
(g8
S'<\xc4S?'
p4979
tp4980
Rp4981
ag4
(g8
S'\xf148B'
p4982
tp4983
Rp4984
ag4
(g8
S'\xf148B'
p4985
tp4986
Rp4987
ag4
(g8
S'\xf148B'
p4988
tp4989
Rp4990
ag4
(g8
S'\xf148B'
p4991
tp4992
Rp4993
ag4
(g8
S'p\x00}?'
p4994
tp4995
Rp4996
ag4
(g8
S'\xf0\x12\x80?'
p4997
tp4998
Rp4999
ag4
(g8
S'\xf148B'
p5000
tp5001
Rp5002
ag4
(g8
S'\xf148B'
p5003
tp5004
Rp5005
ag4
(g8
S'\xf148B'
p5006
tp5007
Rp5008
ag4
(g8
S'\xf148B'
p5009
tp5010
Rp5011
ag4
(g8
S'n\xf7\xf3?'
p5012
tp5013
Rp5014
ag4
(g8
S'nG\xf0?'
p5015
tp5016
Rp5017
aa(lp5018
g331
ag331
ag331
ag331
ag331
ag331
ag331
ag331
ag331
ag331
ag331
ag331
ag331
ag331
ag331
ag331
ag331
ag331
ag331
ag331
ag331
ag331
ag331
ag331
ag331
ag331
ag331
ag331
ag331
ag331
ag331
ag331
ag331
ag331
ag331
ag334
ag331
ag331
ag331
ag331
ag331
ag331
ag331
ag331
ag331
ag331
ag331
ag331
ag331
ag331
ag331
ag331
ag331
ag331
ag331
ag331
ag331
ag331
ag331
ag331
ag331
ag331
ag331
ag331
ag331
ag331
ag331
ag331
ag331
ag331
ag331
ag331
ag331
ag334
ag331
ag331
aaa(lp5019
(lp5020
g4
(g8
S'\xe6(\x82?'
p5021
tp5022
Rp5023
ag4
(g8
S'\x86\x12b?'
p5024
tp5025
Rp5026
ag4
(g8
S'\x1a\xa9+@'
p5027
tp5028
Rp5029
ag4
(g8
S'Ds*@'
p5030
tp5031
Rp5032
ag4
(g8
S'\x194\xfb?'
p5033
tp5034
Rp5035
ag4
(g8
S'\x00\xac\x83?'
p5036
tp5037
Rp5038
ag4
(g8
S'\xed\x0e\xc0?'
p5039
tp5040
Rp5041
ag4
(g8
S'\x95Y\xbe?'
p5042
tp5043
Rp5044
ag4
(g8
S'\xfb\x91b@'
p5045
tp5046
Rp5047
ag4
(g8
S'\xb2\x89\xdb?'
p5048
tp5049
Rp5050
ag4
(g8
S'\xaas\xcb?'
p5051
tp5052
Rp5053
ag4
(g8
S'R\xec\xc0?'
p5054
tp5055
Rp5056
ag4
(g8
S'b\xb2a?'
p5057
tp5058
Rp5059
ag4
(g8
S'\x00\xc0|?'
p5060
tp5061
Rp5062
ag4
(g8
S'\xd4\xa4\x8f?'
p5063
tp5064
Rp5065
ag4
(g8
S'\xce\x90\x96?'
p5066
tp5067
Rp5068
ag4
(g8
S'\xcc\x17!@'
p5069
tp5070
Rp5071
ag4
(g8
S'yM\xeb?'
p5072
tp5073
Rp5074
ag4
(g8
S'\xde\x1c\x89?'
p5075
tp5076
Rp5077
ag4
(g8
S'9:|?'
p5078
tp5079
Rp5080
ag4
(g8
S'\xf148B'
p5081
tp5082
Rp5083
ag4
(g8
S'\xf148B'
p5084
tp5085
Rp5086
ag4
(g8
S'\xf1\xcc\xfe?'
p5087
tp5088
Rp5089
ag4
(g8
S'\xff\t\x19?'
p5090
tp5091
Rp5092
ag4
(g8
S'\xa9\x07\xa2?'
p5093
tp5094
Rp5095
ag4
(g8
S'\x85=\xa7?'
p5096
tp5097
Rp5098
ag4
(g8
S'\x1eZ\xd4?'
p5099
tp5100
Rp5101
ag4
(g8
S'w\xa1W?'
p5102
tp5103
Rp5104
ag4
(g8
S'>\x19C@'
p5105
tp5106
Rp5107
ag4
(g8
S'\xd1\xa2 @'
p5108
tp5109
Rp5110
ag4
(g8
S'\xf148B'
p5111
tp5112
Rp5113
ag4
(g8
S'\xf148B'
p5114
tp5115
Rp5116
ag4
(g8
S'4\x82\xef?'
p5117
tp5118
Rp5119
ag4
(g8
S'\xcf\xff\xf8?'
p5120
tp5121
Rp5122
ag4
(g8
S'\x7f$e@'
p5123
tp5124
Rp5125
ag4
(g8
S'\xe2\xff\xca@'
p5126
tp5127
Rp5128
ag4
(g8
S'\xf9\x8c\xfd?'
p5129
tp5130
Rp5131
ag4
(g8
S'Yk[?'
p5132
tp5133
Rp5134
ag4
(g8
S'\xba_\xd8>'
p5135
tp5136
Rp5137
ag4
(g8
S'\xc7\xee\x96?'
p5138
tp5139
Rp5140
ag4
(g8
S'\xf148B'
p5141
tp5142
Rp5143
ag4
(g8
S'\xf148B'
p5144
tp5145
Rp5146
ag4
(g8
S'p<M@'
p5147
tp5148
Rp5149
ag4
(g8
S'?\x9eI@'
p5150
tp5151
Rp5152
ag4
(g8
S'\x91c\xf1?'
p5153
tp5154
Rp5155
ag4
(g8
S'C\xdb\r@'
p5156
tp5157
Rp5158
ag4
(g8
S'\\\xa6s?'
p5159
tp5160
Rp5161
ag4
(g8
S'\x9b8w?'
p5162
tp5163
Rp5164
ag4
(g8
S'\x1c\x94x@'
p5165
tp5166
Rp5167
ag4
(g8
S'\x86\xf1\xda?'
p5168
tp5169
Rp5170
ag4
(g8
S'\xc4\x05\x80@'
p5171
tp5172
Rp5173
ag4
(g8
S'K\x01+@'
p5174
tp5175
Rp5176
ag4
(g8
S'\x91c\xf1?'
p5177
tp5178
Rp5179
ag4
(g8
S'C\xdb\r@'
p5180
tp5181
Rp5182
ag4
(g8
S'\x91I\xa2?'
p5183
tp5184
Rp5185
ag4
(g8
S'y\xcb\x87?'
p5186
tp5187
Rp5188
ag4
(g8
S'C\x84"?'
p5189
tp5190
Rp5191
ag4
(g8
S'\xd6B\x0f?'
p5192
tp5193
Rp5194
ag4
(g8
S'\xe6\xa8n@'
p5195
tp5196
Rp5197
ag4
(g8
S'\xea\x0b\x8b@'
p5198
tp5199
Rp5200
ag4
(g8
S'6\xae\x99?'
p5201
tp5202
Rp5203
ag4
(g8
S'\xf5\x10\x97?'
p5204
tp5205
Rp5206
ag4
(g8
S'\x90-\xd0?'
p5207
tp5208
Rp5209
ag4
(g8
S'\x80lN?'
p5210
tp5211
Rp5212
ag4
(g8
S'\xf148B'
p5213
tp5214
Rp5215
ag4
(g8
S'\xf148B'
p5216
tp5217
Rp5218
ag4
(g8
S'\xf148B'
p5219
tp5220
Rp5221
ag4
(g8
S'\xf148B'
p5222
tp5223
Rp5224
ag4
(g8
S'~\xc6z?'
p5225
tp5226
Rp5227
ag4
(g8
S'\xce\xf0\x7f?'
p5228
tp5229
Rp5230
ag4
(g8
S'\xf148B'
p5231
tp5232
Rp5233
ag4
(g8
S'\xf148B'
p5234
tp5235
Rp5236
ag4
(g8
S'\xf148B'
p5237
tp5238
Rp5239
ag4
(g8
S'\xf148B'
p5240
tp5241
Rp5242
ag4
(g8
S'\xf0V\xf5?'
p5243
tp5244
Rp5245
ag4
(g8
S'\xaaf\xef?'
p5246
tp5247
Rp5248
aa(lp5249
g331
ag331
ag331
ag331
ag331
ag331
ag331
ag331
ag331
ag331
ag331
ag331
ag331
ag331
ag331
ag331
ag331
ag331
ag331
ag331
ag331
ag331
ag331
ag331
ag331
ag331
ag331
ag331
ag331
ag331
ag331
ag331
ag331
ag331
ag331
ag334
ag331
ag331
ag331
ag331
ag331
ag331
ag331
ag331
ag331
ag331
ag331
ag331
ag331
ag331
ag331
ag331
ag331
ag331
ag331
ag331
ag331
ag331
ag331
ag331
ag331
ag331
ag331
ag331
ag331
ag331
ag331
ag331
ag331
ag331
ag331
ag331
ag331
ag334
ag331
ag331
aaa(lp5250
(lp5251
g4
(g8
S'\xb9\x19\x83?'
p5252
tp5253
Rp5254
ag4
(g8
S'\xca\x16a?'
p5255
tp5256
Rp5257
ag4
(g8
S'\x01\xb9(@'
p5258
tp5259
Rp5260
ag4
(g8
S'|\xbd%@'
p5261
tp5262
Rp5263
ag4
(g8
S'\xa9\xda\xfa?'
p5264
tp5265
Rp5266
ag4
(g8
S'\x0eu\x81?'
p5267
tp5268
Rp5269
ag4
(g8
S'\x9c\n\xb8?'
p5270
tp5271
Rp5272
ag4
(g8
S'\xfa\x15\xb8?'
p5273
tp5274
Rp5275
ag4
(g8
S'\xa1+\\@'
p5276
tp5277
Rp5278
ag4
(g8
S'\xb2\x7f\xd3?'
p5279
tp5280
Rp5281
ag4
(g8
S'jz\xce?'
p5282
tp5283
Rp5284
ag4
(g8
S'\xa4\x0e\xbe?'
p5285
tp5286
Rp5287
ag4
(g8
S'\x963[?'
p5288
tp5289
Rp5290
ag4
(g8
S'\x1f\xcb|?'
p5291
tp5292
Rp5293
ag4
(g8
S'\xa6\x0c\x92?'
p5294
tp5295
Rp5296
ag4
(g8
S'o\x9e\x94?'
p5297
tp5298
Rp5299
ag4
(g8
S'\xa0|"@'
p5300
tp5301
Rp5302
ag4
(g8
S'\xd6\xdd\xec?'
p5303
tp5304
Rp5305
ag4
(g8
S'^\xbf\x89?'
p5306
tp5307
Rp5308
ag4
(g8
S'\x14K|?'
p5309
tp5310
Rp5311
ag4
(g8
S'\xf148B'
p5312
tp5313
Rp5314
ag4
(g8
S'\xf148B'
p5315
tp5316
Rp5317
ag4
(g8
S'\xff\x9b\xfd?'
p5318
tp5319
Rp5320
ag4
(g8
S'\x14\xd4\x10?'
p5321
tp5322
Rp5323
ag4
(g8
S'\x9ct\xa4?'
p5324
tp5325
Rp5326
ag4
(g8
S'\x7fA\xa3?'
p5327
tp5328
Rp5329
ag4
(g8
S'\xfd\xf4\xd7?'
p5330
tp5331
Rp5332
ag4
(g8
S'\x19\xf7P?'
p5333
tp5334
Rp5335
ag4
(g8
S'\xd4\n;@'
p5336
tp5337
Rp5338
ag4
(g8
S'?\xa6\x1c@'
p5339
tp5340
Rp5341
ag4
(g8
S'\xf148B'
p5342
tp5343
Rp5344
ag4
(g8
S'\xf148B'
p5345
tp5346
Rp5347
ag4
(g8
S'Z\xb7\xdf?'
p5348
tp5349
Rp5350
ag4
(g8
S'\x06(\xef?'
p5351
tp5352
Rp5353
ag4
(g8
S',\xfce@'
p5354
tp5355
Rp5356
ag4
(g8
S'T6\xd0@'
p5357
tp5358
Rp5359
ag4
(g8
S'\x97{\xfa?'
p5360
tp5361
Rp5362
ag4
(g8
S'\xa8\xb9T?'
p5363
tp5364
Rp5365
ag4
(g8
S'(\xa9\xd4>'
p5366
tp5367
Rp5368
ag4
(g8
S'%>\x94?'
p5369
tp5370
Rp5371
ag4
(g8
S'\xf148B'
p5372
tp5373
Rp5374
ag4
(g8
S'\xf148B'
p5375
tp5376
Rp5377
ag4
(g8
S'\xf8~H@'
p5378
tp5379
Rp5380
ag4
(g8
S'XRE@'
p5381
tp5382
Rp5383
ag4
(g8
S'\x8c\xb6\xee?'
p5384
tp5385
Rp5386
ag4
(g8
S'\x8a\xe0\r@'
p5387
tp5388
Rp5389
ag4
(g8
S'\xeb\x08q?'
p5390
tp5391
Rp5392
ag4
(g8
S'6\xc6w?'
p5393
tp5394
Rp5395
ag4
(g8
S'\xeaHs@'
p5396
tp5397
Rp5398
ag4
(g8
S'\xcfc\xd3?'
p5399
tp5400
Rp5401
ag4
(g8
S'<\xa8~@'
p5402
tp5403
Rp5404
ag4
(g8
S'xk*@'
p5405
tp5406
Rp5407
ag4
(g8
S'\x8c\xb6\xee?'
p5408
tp5409
Rp5410
ag4
(g8
S'\x8a\xe0\r@'
p5411
tp5412
Rp5413
ag4
(g8
S'\x90\x06\x9e?'
p5414
tp5415
Rp5416
ag4
(g8
S'GD\x82?'
p5417
tp5418
Rp5419
ag4
(g8
S'\xc7\xeb\x1f?'
p5420
tp5421
Rp5422
ag4
(g8
S'!\xe9\t?'
p5423
tp5424
Rp5425
ag4
(g8
S'\x87\xbci@'
p5426
tp5427
Rp5428
ag4
(g8
S'\xee\xe5\x88@'
p5429
tp5430
Rp5431
ag4
(g8
S'\xc9{\x93?'
p5432
tp5433
Rp5434
ag4
(g8
S'\xe5\x11\x8c?'
p5435
tp5436
Rp5437
ag4
(g8
S'\x98\xd8\xd2?'
p5438
tp5439
Rp5440
ag4
(g8
S'\x12"I?'
p5441
tp5442
Rp5443
ag4
(g8
S'\xf148B'
p5444
tp5445
Rp5446
ag4
(g8
S'\xf148B'
p5447
tp5448
Rp5449
ag4
(g8
S'\xf148B'
p5450
tp5451
Rp5452
ag4
(g8
S'\xf148B'
p5453
tp5454
Rp5455
ag4
(g8
S'v4x?'
p5456
tp5457
Rp5458
ag4
(g8
S'\x8e\xc4\x7f?'
p5459
tp5460
Rp5461
ag4
(g8
S'\xf148B'
p5462
tp5463
Rp5464
ag4
(g8
S'\xf148B'
p5465
tp5466
Rp5467
ag4
(g8
S'\xf148B'
p5468
tp5469
Rp5470
ag4
(g8
S'\xf148B'
p5471
tp5472
Rp5473
ag4
(g8
S'g\xd3\xf6?'
p5474
tp5475
Rp5476
ag4
(g8
S'\x8e\x87\xee?'
p5477
tp5478
Rp5479
aa(lp5480
g331
ag331
ag331
ag331
ag331
ag331
ag331
ag331
ag331
ag331
ag331
ag331
ag331
ag331
ag331
ag331
ag331
ag331
ag331
ag331
ag331
ag331
ag331
ag331
ag331
ag331
ag331
ag331
ag331
ag331
ag331
ag331
ag331
ag331
ag331
ag334
ag331
ag331
ag331
ag331
ag331
ag331
ag331
ag331
ag331
ag331
ag331
ag331
ag331
ag331
ag331
ag331
ag331
ag331
ag331
ag331
ag331
ag331
ag331
ag331
ag331
ag331
ag331
ag331
ag331
ag331
ag331
ag331
ag331
ag331
ag331
ag331
ag331
ag334
ag331
ag331
aaaa(lp5481
(lp5482
(lp5483
g4
(g8
S'r\x1d\x9e?'
p5484
tp5485
Rp5486
ag4
(g8
S'\x0f\xd8H?'
p5487
tp5488
Rp5489
ag4
(g8
S'\xf148B'
p5490
tp5491
Rp5492
ag4
(g8
S'\xf148B'
p5493
tp5494
Rp5495
ag4
(g8
S'\xe1\x05&@'
p5496
tp5497
Rp5498
ag4
(g8
S'\xc4K\x02@'
p5499
tp5500
Rp5501
ag4
(g8
S'W\x1bC@'
p5502
tp5503
Rp5504
ag4
(g8
S'\x86/\xae?'
p5505
tp5506
Rp5507
ag4
(g8
S'\x86Z\x01@'
p5508
tp5509
Rp5510
ag4
(g8
S'\x0e\xcc\x1a@'
p5511
tp5512
Rp5513
ag4
(g8
S'\xe2\x0e\x93@'
p5514
tp5515
Rp5516
ag4
(g8
S'\xc0RF@'
p5517
tp5518
Rp5519
ag4
(g8
S'6\xe1\x84@'
p5520
tp5521
Rp5522
ag4
(g8
S'\xfe\xc9\xcd@'
p5523
tp5524
Rp5525
ag4
(g8
S'b\xda\xbe@'
p5526
tp5527
Rp5528
ag4
(g8
S'\xe1*\x9c@'
p5529
tp5530
Rp5531
ag4
(g8
S'\x95\x00\x80?'
p5532
tp5533
Rp5534
ag4
(g8
S'Hz\xa2?'
p5535
tp5536
Rp5537
ag4
(g8
S'_\x12\x04@'
p5538
tp5539
Rp5540
ag4
(g8
S'9\xad\xf3?'
p5541
tp5542
Rp5543
ag4
(g8
S'\xfc\x14\x18@'
p5544
tp5545
Rp5546
ag4
(g8
S'\n\xcd\x00@'
p5547
tp5548
Rp5549
ag4
(g8
S'\xc6\x0e\xe1?'
p5550
tp5551
Rp5552
ag4
(g8
S'=w\x00@'
p5553
tp5554
Rp5555
ag4
(g8
S'dS\xc5?'
p5556
tp5557
Rp5558
ag4
(g8
S'\xc5\xa9\xa2?'
p5559
tp5560
Rp5561
ag4
(g8
S'\xbc\x1a\x8f@'
p5562
tp5563
Rp5564
ag4
(g8
S'\xf7\xbbx@'
p5565
tp5566
Rp5567
ag4
(g8
S'c\xb8\x07?'
p5568
tp5569
Rp5570
ag4
(g8
S'\x1a\xc1\xd8?'
p5571
tp5572
Rp5573
ag4
(g8
S'H\xfd9@'
p5574
tp5575
Rp5576
ag4
(g8
S'\xb4\xc26@'
p5577
tp5578
Rp5579
ag4
(g8
S'\xfe\x1f)@'
p5580
tp5581
Rp5582
ag4
(g8
S'\xe0\xbfC@'
p5583
tp5584
Rp5585
ag4
(g8
S'\xf148B'
p5586
tp5587
Rp5588
ag4
(g8
S'\xf148B'
p5589
tp5590
Rp5591
ag4
(g8
S'\x19\xc7(@'
p5592
tp5593
Rp5594
ag4
(g8
S'\xf0\t3@'
p5595
tp5596
Rp5597
ag4
(g8
S'A\xd2\xb1>'
p5598
tp5599
Rp5600
ag4
(g8
S'\xcb\xc9\x9f>'
p5601
tp5602
Rp5603
ag4
(g8
S'A/\x8a?'
p5604
tp5605
Rp5606
ag4
(g8
S'\x87\xf7\x9b?'
p5607
tp5608
Rp5609
ag4
(g8
S'\x8dol?'
p5610
tp5611
Rp5612
ag4
(g8
S'\xb9\\\x12@'
p5613
tp5614
Rp5615
ag4
(g8
S'5J\x9e?'
p5616
tp5617
Rp5618
ag4
(g8
S'\x07w\xc3?'
p5619
tp5620
Rp5621
ag4
(g8
S'\n*W@'
p5622
tp5623
Rp5624
ag4
(g8
S'\xb0\x94\xb2@'
p5625
tp5626
Rp5627
ag4
(g8
S'\x87\xbd\x00@'
p5628
tp5629
Rp5630
ag4
(g8
S'\xf2]\xa7?'
p5631
tp5632
Rp5633
ag4
(g8
S'<\x17\xa9?'
p5634
tp5635
Rp5636
ag4
(g8
S'#\xbd\xf0?'
p5637
tp5638
Rp5639
ag4
(g8
S'\x12\xfc\xa9?'
p5640
tp5641
Rp5642
ag4
(g8
S'W$\xe1?'
p5643
tp5644
Rp5645
ag4
(g8
S'\x0cC\xec?'
p5646
tp5647
Rp5648
ag4
(g8
S'\xbb\xdf\x16@'
p5649
tp5650
Rp5651
ag4
(g8
S'\xfba<@'
p5652
tp5653
Rp5654
ag4
(g8
S'\xe3\xeb<@'
p5655
tp5656
Rp5657
ag4
(g8
S'\x98\xb5\x06@'
p5658
tp5659
Rp5660
ag4
(g8
S'K\xad\x8e?'
p5661
tp5662
Rp5663
ag4
(g8
S'\r\xb9$@'
p5664
tp5665
Rp5666
ag4
(g8
S'\xd8\x9a\x95@'
p5667
tp5668
Rp5669
ag4
(g8
S'\xc3a\xfa?'
p5670
tp5671
Rp5672
ag4
(g8
S'\xcb\x0f\x0b@'
p5673
tp5674
Rp5675
ag4
(g8
S'vL\xb9>'
p5676
tp5677
Rp5678
ag4
(g8
S'&\x8a\xa5>'
p5679
tp5680
Rp5681
ag4
(g8
S'\x90\x93\x02@'
p5682
tp5683
Rp5684
ag4
(g8
S'\xe3\xf2\xa4@'
p5685
tp5686
Rp5687
ag4
(g8
S'\x00$\x07@'
p5688
tp5689
Rp5690
ag4
(g8
S'w-`?'
p5691
tp5692
Rp5693
ag4
(g8
S'G\x03\x89@'
p5694
tp5695
Rp5696
ag4
(g8
S'7\x8f\xb3@'
p5697
tp5698
Rp5699
ag4
(g8
S'\x84\xba\x15@'
p5700
tp5701
Rp5702
ag4
(g8
S'\xd496@'
p5703
tp5704
Rp5705
ag4
(g8
S'W\x97\x10@'
p5706
tp5707
Rp5708
ag4
(g8
S'>\x88\x99?'
p5709
tp5710
Rp5711
aa(lp5712
g331
ag331
ag331
ag331
ag331
ag331
ag331
ag331
ag331
ag331
ag331
ag331
ag331
ag331
ag331
ag331
ag331
ag331
ag331
ag331
ag331
ag331
ag331
ag331
ag331
ag331
ag331
ag331
ag331
ag331
ag331
ag331
ag331
ag331
ag334
ag334
ag331
ag331
ag331
ag331
ag331
ag331
ag331
ag331
ag331
ag331
ag331
ag331
ag331
ag331
ag331
ag331
ag331
ag331
ag331
ag331
ag331
ag331
ag331
ag331
ag331
ag331
ag331
ag331
ag331
ag331
ag331
ag331
ag331
ag331
ag331
ag331
ag331
ag331
ag331
ag331
aaa(lp5713
(lp5714
g4
(g8
S'\xfc\xcb\x9e?'
p5715
tp5716
Rp5717
ag4
(g8
S'^jE?'
p5718
tp5719
Rp5720
ag4
(g8
S'\xf148B'
p5721
tp5722
Rp5723
ag4
(g8
S'\xf148B'
p5724
tp5725
Rp5726
ag4
(g8
S'9\xa0\x1f@'
p5727
tp5728
Rp5729
ag4
(g8
S'\xc5Z\xf8?'
p5730
tp5731
Rp5732
ag4
(g8
S'\xc01<@'
p5733
tp5734
Rp5735
ag4
(g8
S'\xce\x10\xa7?'
p5736
tp5737
Rp5738
ag4
(g8
S'\x94\xb3\xff?'
p5739
tp5740
Rp5741
ag4
(g8
S'\xf2D\x1a@'
p5742
tp5743
Rp5744
ag4
(g8
S'4\xac\x91@'
p5745
tp5746
Rp5747
ag4
(g8
S'\x90\x02@@'
p5748
tp5749
Rp5750
ag4
(g8
S'\x9d\x10\x84@'
p5751
tp5752
Rp5753
ag4
(g8
S'\xa9\xe0\xce@'
p5754
tp5755
Rp5756
ag4
(g8
S'\xcb\xbe\xbc@'
p5757
tp5758
Rp5759
ag4
(g8
S'\r\x8a\x9f@'
p5760
tp5761
Rp5762
ag4
(g8
S'd\xea\x80?'
p5763
tp5764
Rp5765
ag4
(g8
S'LQ\xa1?'
p5766
tp5767
Rp5768
ag4
(g8
S'\x81\xf2\x02@'
p5769
tp5770
Rp5771
ag4
(g8
S'*\x80\xf2?'
p5772
tp5773
Rp5774
ag4
(g8
S'\xd1\xfd\x18@'
p5775
tp5776
Rp5777
ag4
(g8
S'\xae9\x00@'
p5778
tp5779
Rp5780
ag4
(g8
S'\xb6\xa9\xd5?'
p5781
tp5782
Rp5783
ag4
(g8
S'\xab\x81\xf5?'
p5784
tp5785
Rp5786
ag4
(g8
S')W\xc5?'
p5787
tp5788
Rp5789
ag4
(g8
S'\xfaC\xa0?'
p5790
tp5791
Rp5792
ag4
(g8
S'\x84Y\x8f@'
p5793
tp5794
Rp5795
ag4
(g8
S'\x88Qz@'
p5796
tp5797
Rp5798
ag4
(g8
S'+\xcc\x07?'
p5799
tp5800
Rp5801
ag4
(g8
S'\xa0J\xd7?'
p5802
tp5803
Rp5804
ag4
(g8
S'^\xfa7@'
p5805
tp5806
Rp5807
ag4
(g8
S'2\xac0@'
p5808
tp5809
Rp5810
ag4
(g8
S"N\x05'@"
p5811
tp5812
Rp5813
ag4
(g8
S'\xbf\x96=@'
p5814
tp5815
Rp5816
ag4
(g8
S'\xf148B'
p5817
tp5818
Rp5819
ag4
(g8
S'\xf148B'
p5820
tp5821
Rp5822
ag4
(g8
S"Y\xa1'@"
p5823
tp5824
Rp5825
ag4
(g8
S'G\x881@'
p5826
tp5827
Rp5828
ag4
(g8
S'\x82o\xb0>'
p5829
tp5830
Rp5831
ag4
(g8
S'E\xd2\x9e>'
p5832
tp5833
Rp5834
ag4
(g8
S'\x84\x9c\x87?'
p5835
tp5836
Rp5837
ag4
(g8
S'\xcf\xc7\x92?'
p5838
tp5839
Rp5840
ag4
(g8
S'\xc9\to?'
p5841
tp5842
Rp5843
ag4
(g8
S'2\xac\x11@'
p5844
tp5845
Rp5846
ag4
(g8
S'}\x1a\x9c?'
p5847
tp5848
Rp5849
ag4
(g8
S'\xf6_\xbc?'
p5850
tp5851
Rp5852
ag4
(g8
S'\xba\x8aQ@'
p5853
tp5854
Rp5855
ag4
(g8
S'Q\x17\xb2@'
p5856
tp5857
Rp5858
ag4
(g8
S'!\x92\xfa?'
p5859
tp5860
Rp5861
ag4
(g8
S'\x14?\xa6?'
p5862
tp5863
Rp5864
ag4
(g8
S'\x08\xfd\xa6?'
p5865
tp5866
Rp5867
ag4
(g8
S'\x93D\xef?'
p5868
tp5869
Rp5870
ag4
(g8
S'A\xb7\xa9?'
p5871
tp5872
Rp5873
ag4
(g8
S'r\xdc\xda?'
p5874
tp5875
Rp5876
ag4
(g8
S'\x18X\xdf?'
p5877
tp5878
Rp5879
ag4
(g8
S'\t\xa9\x11@'
p5880
tp5881
Rp5882
ag4
(g8
S'ce:@'
p5883
tp5884
Rp5885
ag4
(g8
S'\xfb\x836@'
p5886
tp5887
Rp5888
ag4
(g8
S' \xdb\x05@'
p5889
tp5890
Rp5891
ag4
(g8
S'8]\x8c?'
p5892
tp5893
Rp5894
ag4
(g8
S'\xfa[#@'
p5895
tp5896
Rp5897
ag4
(g8
S'\xa0?\x95@'
p5898
tp5899
Rp5900
ag4
(g8
S'\xb5\xe4\xf3?'
p5901
tp5902
Rp5903
ag4
(g8
S'zO\n@'
p5904
tp5905
Rp5906
ag4
(g8
S'0\xe4\xb7>'
p5907
tp5908
Rp5909
ag4
(g8
S'\x9d$\xa5>'
p5910
tp5911
Rp5912
ag4
(g8
S'zM\x01@'
p5913
tp5914
Rp5915
ag4
(g8
S'o\xc3\xa5@'
p5916
tp5917
Rp5918
ag4
(g8
S'i#\x06@'
p5919
tp5920
Rp5921
ag4
(g8
S'1\x8c^?'
p5922
tp5923
Rp5924
ag4
(g8
S'KD\x89@'
p5925
tp5926
Rp5927
ag4
(g8
S'd\xb6\xb4@'
p5928
tp5929
Rp5930
ag4
(g8
S'q\x07\x10@'
p5931
tp5932
Rp5933
ag4
(g8
S'\xac\xc3.@'
p5934
tp5935
Rp5936
ag4
(g8
S'N\xcb\x0e@'
p5937
tp5938
Rp5939
ag4
(g8
S'\xae\xd7\x99?'
p5940
tp5941
Rp5942
aa(lp5943
g331
ag331
ag331
ag331
ag331
ag331
ag331
ag331
ag331
ag331
ag331
ag331
ag331
ag331
ag331
ag331
ag331
ag331
ag331
ag331
ag331
ag331
ag331
ag331
ag331
ag331
ag331
ag331
ag331
ag331
ag331
ag331
ag331
ag331
ag334
ag334
ag331
ag331
ag331
ag331
ag331
ag331
ag331
ag331
ag331
ag331
ag331
ag331
ag331
ag331
ag331
ag331
ag331
ag331
ag331
ag331
ag331
ag331
ag331
ag331
ag331
ag331
ag331
ag331
ag331
ag331
ag331
ag331
ag331
ag331
ag331
ag331
ag331
ag331
ag331
ag331
aaa(lp5944
(lp5945
g4
(g8
S'\x1f\xab\x9f?'
p5946
tp5947
Rp5948
ag4
(g8
S'7\xfaA?'
p5949
tp5950
Rp5951
ag4
(g8
S'\xf148B'
p5952
tp5953
Rp5954
ag4
(g8
S'\xf148B'
p5955
tp5956
Rp5957
ag4
(g8
S'0p\x19@'
p5958
tp5959
Rp5960
ag4
(g8
S'\x98\xf3\xeb?'
p5961
tp5962
Rp5963
ag4
(g8
S'\xe4h5@'
p5964
tp5965
Rp5966
ag4
(g8
S'\xae\xbe\x9f?'
p5967
tp5968
Rp5969
ag4
(g8
S'\xb8?\xfc?'
p5970
tp5971
Rp5972
ag4
(g8
S'$\xbb\x19@'
p5973
tp5974
Rp5975
ag4
(g8
S'\xcaB\x90@'
p5976
tp5977
Rp5978
ag4
(g8
S'\x88\xa89@'
p5979
tp5980
Rp5981
ag4
(g8
S'\x9bv\x83@'
p5982
tp5983
Rp5984
ag4
(g8
S'\xbe\x87\xd0@'
p5985
tp5986
Rp5987
ag4
(g8
S'*\xc6\xba@'
p5988
tp5989
Rp5990
ag4
(g8
S'xq\xa3@'
p5991
tp5992
Rp5993
ag4
(g8
S'\xe6\xdc\x81?'
p5994
tp5995
Rp5996
ag4
(g8
S'M!\xa0?'
p5997
tp5998
Rp5999
ag4
(g8
S'&\xa4\x01@'
p6000
tp6001
Rp6002
ag4
(g8
S'\x93N\xf1?'
p6003
tp6004
Rp6005
ag4
(g8
S'<\t\x1a@'
p6006
tp6007
Rp6008
ag4
(g8
S'\xa7O\xff?'
p6009
tp6010
Rp6011
ag4
(g8
S'\x80\x91\xca?'
p6012
tp6013
Rp6014
ag4
(g8
S'\xa95\xe9?'
p6015
tp6016
Rp6017
ag4
(g8
S'\x98u\xc5?'
p6018
tp6019
Rp6020
ag4
(g8
S'a\xf9\x9d?'
p6021
tp6022
Rp6023
ag4
(g8
S'\n\xf2\x8f@'
p6024
tp6025
Rp6026
ag4
(g8
S'{"|@'
p6027
tp6028
Rp6029
ag4
(g8
S'\xd8\xcb\x07?'
p6030
tp6031
Rp6032
ag4
(g8
S'6\xe2\xd5?'
p6033
tp6034
Rp6035
ag4
(g8
S'?\xfb5@'
p6036
tp6037
Rp6038
ag4
(g8
S'x\xa6*@'
p6039
tp6040
Rp6041
ag4
(g8
S'\xac\xf2$@'
p6042
tp6043
Rp6044
ag4
(g8
S'\x90V7@'
p6045
tp6046
Rp6047
ag4
(g8
S'\xf148B'
p6048
tp6049
Rp6050
ag4
(g8
S'\xf148B'
p6051
tp6052
Rp6053
ag4
(g8
S'N\x86&@'
p6054
tp6055
Rp6056
ag4
(g8
S'\xb2\x0f0@'
p6057
tp6058
Rp6059
ag4
(g8
S'!\xdc\xae>'
p6060
tp6061
Rp6062
ag4
(g8
S'u\xe7\x9d>'
p6063
tp6064
Rp6065
ag4
(g8
S',M\x85?'
p6066
tp6067
Rp6068
ag4
(g8
S'D@\x8a?'
p6069
tp6070
Rp6071
ag4
(g8
S'\xa8\xeaq?'
p6072
tp6073
Rp6074
ag4
(g8
S'I2\x11@'
p6075
tp6076
Rp6077
ag4
(g8
S'S<\x9a?'
p6078
tp6079
Rp6080
ag4
(g8
S'\x8b\xf0\xb5?'
p6081
tp6082
Rp6083
ag4
(g8
S'?\xa5K@'
p6084
tp6085
Rp6086
ag4
(g8
S'\t\x90\xb1@'
p6087
tp6088
Rp6089
ag4
(g8
S'\xe2@\xf3?'
p6090
tp6091
Rp6092
ag4
(g8
S'\x8b\x1c\xa5?'
p6093
tp6094
Rp6095
ag4
(g8
S'E\xb3\xa4?'
p6096
tp6097
Rp6098
ag4
(g8
S'R\xe3\xed?'
p6099
tp6100
Rp6101
ag4
(g8
S'C\xac\xa9?'
p6102
tp6103
Rp6104
ag4
(g8
S'\x94\x0c\xd5?'
p6105
tp6106
Rp6107
ag4
(g8
S'5\xbb\xd2?'
p6108
tp6109
Rp6110
ag4
(g8
S'b\x88\x0c@'
p6111
tp6112
Rp6113
ag4
(g8
S'xl8@'
p6114
tp6115
Rp6116
ag4
(g8
S'\x01#0@'
p6117
tp6118
Rp6119
ag4
(g8
S'\xc55\x05@'
p6120
tp6121
Rp6122
ag4
(g8
S'\xecw\x8a?'
p6123
tp6124
Rp6125
ag4
(g8
S'w\xfe!@'
p6126
tp6127
Rp6128
ag4
(g8
S'Y\xfe\x94@'
p6129
tp6130
Rp6131
ag4
(g8
S'\xb8\x17\xed?'
p6132
tp6133
Rp6134
ag4
(g8
S'\xc3\x93\t@'
p6135
tp6136
Rp6137
ag4
(g8
S'\xe7D\xb6>'
p6138
tp6139
Rp6140
ag4
(g8
S'v\xcb\xa4>'
p6141
tp6142
Rp6143
ag4
(g8
S'\xdd\x12\x00@'
p6144
tp6145
Rp6146
ag4
(g8
S'\xcd\xf0\xa6@'
p6147
tp6148
Rp6149
ag4
(g8
S'\xee6\x05@'
p6150
tp6151
Rp6152
ag4
(g8
S'\xb3\xe4\\?'
p6153
tp6154
Rp6155
ag4
(g8
S'\xcf\x94\x89@'
p6156
tp6157
Rp6158
ag4
(g8
S'\x07\xed\xb5@'
p6159
tp6160
Rp6161
ag4
(g8
S'\xe6{\n@'
p6162
tp6163
Rp6164
ag4
(g8
S"V\x13'@"
p6165
tp6166
Rp6167
ag4
(g8
S'\x1b\xb4\x0c@'
p6168
tp6169
Rp6170
ag4
(g8
S'\xa7\x11\x9a?'
p6171
tp6172
Rp6173
aa(lp6174
g331
ag331
ag331
ag331
ag331
ag331
ag331
ag331
ag331
ag331
ag331
ag331
ag331
ag331
ag331
ag331
ag331
ag331
ag331
ag331
ag331
ag331
ag331
ag331
ag331
ag331
ag331
ag331
ag331
ag331
ag331
ag331
ag331
ag331
ag334
ag334
ag331
ag331
ag331
ag331
ag331
ag331
ag331
ag331
ag331
ag331
ag331
ag331
ag331
ag331
ag331
ag331
ag331
ag331
ag331
ag331
ag331
ag331
ag331
ag331
ag331
ag331
ag331
ag331
ag331
ag331
ag331
ag331
ag331
ag331
ag331
ag331
ag331
ag331
ag331
ag331
aaa(lp6175
(lp6176
g4
(g8
S'\xa8\xa0\xa0?'
p6177
tp6178
Rp6179
ag4
(g8
S'Y\x81>?'
p6180
tp6181
Rp6182
ag4
(g8
S'\xf148B'
p6183
tp6184
Rp6185
ag4
(g8
S'\xf148B'
p6186
tp6187
Rp6188
ag4
(g8
S'\x84z\x13@'
p6189
tp6190
Rp6191
ag4
(g8
S'sa\xdf?'
p6192
tp6193
Rp6194
ag4
(g8
S'f\xcf.@'
p6195
tp6196
Rp6197
ag4
(g8
S'5N\x98?'
p6198
tp6199
Rp6200
ag4
(g8
S'\x07O\xf8?'
p6201
tp6202
Rp6203
ag4
(g8
S':2\x19@'
p6204
tp6205
Rp6206
ag4
(g8
S'\xfe\xce\x8e@'
p6207
tp6208
Rp6209
ag4
(g8
S'\xf4^3@'
p6210
tp6211
Rp6212
ag4
(g8
S'\x9e\x0e\x83@'
p6213
tp6214
Rp6215
ag4
(g8
S'@\xc9\xd2@'
p6216
tp6217
Rp6218
ag4
(g8
S'\x85\xeb\xb8@'
p6219
tp6220
Rp6221
ag4
(g8
S'\x8f\xec\xa7@'
p6222
tp6223
Rp6224
ag4
(g8
S'&\xda\x82?'
p6225
tp6226
Rp6227
ag4
(g8
S'\xab\xe5\x9e?'
p6228
tp6229
Rp6230
ag4
(g8
S'\x93"\x00@'
p6231
tp6232
Rp6233
ag4
(g8
S'\x8d!\xf0?'
p6234
tp6235
Rp6236
ag4
(g8
S'8@\x1b@'
p6237
tp6238
Rp6239
ag4
(g8
S'\x8b4\xfe?'
p6240
tp6241
Rp6242
ag4
(g8
S'\x01\xd8\xbf?'
p6243
tp6244
Rp6245
ag4
(g8
S'\x9b>\xdc?'
p6246
tp6247
Rp6248
ag4
(g8
S'\xf3\xb7\xc5?'
p6249
tp6250
Rp6251
ag4
(g8
S'5\xc3\x9b?'
p6252
tp6253
Rp6254
ag4
(g8
S'j\xe1\x90@'
p6255
tp6256
Rp6257
ag4
(g8
S'\xbc$~@'
p6258
tp6259
Rp6260
ag4
(g8
S'\x89\xb4\x07?'
p6261
tp6262
Rp6263
ag4
(g8
S'\xad\x92\xd4?'
p6264
tp6265
Rp6266
ag4
(g8
S'Z\xfb3@'
p6267
tp6268
Rp6269
ag4
(g8
S'\xa5\xca$@'
p6270
tp6271
Rp6272
ag4
(g8
S'\x03\xe3"@'
p6273
tp6274
Rp6275
ag4
(g8
S'd\x1b1@'
p6276
tp6277
Rp6278
ag4
(g8
S'\xf148B'
p6279
tp6280
Rp6281
ag4
(g8
S'\xf148B'
p6282
tp6283
Rp6284
ag4
(g8
S'\xa1q%@'
p6285
tp6286
Rp6287
ag4
(g8
S'\x17\xa1.@'
p6288
tp6289
Rp6290
ag4
(g8
S'\xd3\x0e\xad>'
p6291
tp6292
Rp6293
ag4
(g8
S'\xdc\x01\x9d>'
p6294
tp6295
Rp6296
ag4
(g8
S'\x9eB\x83?'
p6297
tp6298
Rp6299
ag4
(g8
S'\xca[\x82?'
p6300
tp6301
Rp6302
ag4
(g8
S'\x0e\xf8t?'
p6303
tp6304
Rp6305
ag4
(g8
S'=\xef\x10@'
p6306
tp6307
Rp6308
ag4
(g8
S'\x8d\xb2\x98?'
p6309
tp6310
Rp6311
ag4
(g8
S'x\x1c\xb0?'
p6312
tp6313
Rp6314
ag4
(g8
S',{E@'
p6315
tp6316
Rp6317
ag4
(g8
S'\xcc\xfd\xb0@'
p6318
tp6319
Rp6320
ag4
(g8
S'\x9a\x85\xeb?'
p6321
tp6322
Rp6323
ag4
(g8
S'S\xfc\xa3?'
p6324
tp6325
Rp6326
ag4
(g8
S'|2\xa2?'
p6327
tp6328
Rp6329
ag4
(g8
S'A\x9d\xec?'
p6330
tp6331
Rp6332
ag4
(g8
S'6\xe7\xa9?'
p6333
tp6334
Rp6335
ag4
(g8
S',\xb3\xcf?'
p6336
tp6337
Rp6338
ag4
(g8
S'\xaf\x80\xc6?'
p6339
tp6340
Rp6341
ag4
(g8
S'\xff\x8d\x07@'
p6342
tp6343
Rp6344
ag4
(g8
S'\xa4r6@'
p6345
tp6346
Rp6347
ag4
(g8
S'\x1d\xe4)@'
p6348
tp6349
Rp6350
ag4
(g8
S'\x91\xc8\x04@'
p6351
tp6352
Rp6353
ag4
(g8
S'O\xea\x88?'
p6354
tp6355
Rp6356
ag4
(g8
S'\xd1\x9d @'
p6357
tp6358
Rp6359
ag4
(g8
S'(\xda\x94@'
p6360
tp6361
Rp6362
ag4
(g8
S'\xdc\xfb\xe5?'
p6363
tp6364
Rp6365
ag4
(g8
S')\xe2\x08@'
p6366
tp6367
Rp6368
ag4
(g8
S'_c\xb4>'
p6369
tp6370
Rp6371
ag4
(g8
S'3w\xa4>'
p6372
tp6373
Rp6374
ag4
(g8
S'\xb4\xbd\xfd?'
p6375
tp6376
Rp6377
ag4
(g8
S'}~\xa8@'
p6378
tp6379
Rp6380
ag4
(g8
S'%h\x04@'
p6381
tp6382
Rp6383
ag4
(g8
S'\xf94[?'
p6384
tp6385
Rp6386
ag4
(g8
S'\n\xf6\x89@'
p6387
tp6388
Rp6389
ag4
(g8
S'\x168\xb7@'
p6390
tp6391
Rp6392
ag4
(g8
S'\xd2!\x05@'
p6393
tp6394
Rp6395
ag4
(g8
S'x>\x1f@'
p6396
tp6397
Rp6398
ag4
(g8
S'tI\n@'
p6399
tp6400
Rp6401
ag4
(g8
S'@6\x9a?'
p6402
tp6403
Rp6404
aa(lp6405
g331
ag331
ag331
ag331
ag331
ag331
ag331
ag331
ag331
ag331
ag331
ag331
ag331
ag331
ag331
ag331
ag331
ag331
ag331
ag331
ag331
ag331
ag331
ag331
ag331
ag331
ag331
ag331
ag331
ag331
ag331
ag331
ag331
ag331
ag334
ag334
ag331
ag331
ag331
ag331
ag331
ag331
ag331
ag331
ag331
ag331
ag331
ag331
ag331
ag331
ag331
ag331
ag331
ag331
ag331
ag331
ag331
ag331
ag331
ag331
ag331
ag331
ag331
ag331
ag331
ag331
ag331
ag331
ag331
ag331
ag331
ag331
ag331
ag331
ag331
ag331
aaa(lp6406
(lp6407
g4
(g8
S'B\x90\xa1?'
p6408
tp6409
Rp6410
ag4
(g8
S'\xdb\xff:?'
p6411
tp6412
Rp6413
ag4
(g8
S'\xf148B'
p6414
tp6415
Rp6416
ag4
(g8
S'\xf148B'
p6417
tp6418
Rp6419
ag4
(g8
S'\xb8\xcb\r@'
p6420
tp6421
Rp6422
ag4
(g8
S'>\xb7\xd2?'
p6423
tp6424
Rp6425
ag4
(g8
S'\x1cy(@'
p6426
tp6427
Rp6428
ag4
(g8
S'b\xe0\x90?'
p6429
tp6430
Rp6431
ag4
(g8
S'\xa6\xd0\xf3?'
p6432
tp6433
Rp6434
ag4
(g8
S'\xef\xaa\x18@'
p6435
tp6436
Rp6437
ag4
(g8
S'\x1aO\x8d@'
p6438
tp6439
Rp6440
ag4
(g8
S'\xa1;-@'
p6441
tp6442
Rp6443
ag4
(g8
S',\xd3\x82@'
p6444
tp6445
Rp6446
ag4
(g8
S'\xc9\xb3\xd5@'
p6447
tp6448
Rp6449
ag4
(g8
S'\xe0+\xb7@'
p6450
tp6451
Rp6452
ag4
(g8
S'\x02\x07\xad@'
p6453
tp6454
Rp6455
ag4
(g8
S']\xdd\x83?'
p6456
tp6457
Rp6458
ag4
(g8
S'<\x98\x9d?'
p6459
tp6460
Rp6461
ag4
(g8
S'\x18\xc7\xfc?'
p6462
tp6463
Rp6464
ag4
(g8
S'\x1c\xfe\xee?'
p6465
tp6466
Rp6467
ag4
(g8
S'\xfc\xa6\x1c@'
p6468
tp6469
Rp6470
ag4
(g8
S'b$\xfd?'
p6471
tp6472
Rp6473
ag4
(g8
S'`\x95\xb5?'
p6474
tp6475
Rp6476
ag4
(g8
S'\x99\xdc\xce?'
p6477
tp6478
Rp6479
ag4
(g8
S'\xb2\x1f\xc6?'
p6480
tp6481
Rp6482
ag4
(g8
S'\xd7\x9c\x99?'
p6483
tp6484
Rp6485
ag4
(g8
S'\xb4\x1f\x92@'
p6486
tp6487
Rp6488
ag4
(g8
S'\xe3)\x80@'
p6489
tp6490
Rp6491
ag4
(g8
S'\x8c\x84\x07?'
p6492
tp6493
Rp6494
ag4
(g8
S'\x18b\xd3?'
p6495
tp6496
Rp6497
ag4
(g8
S'\x98\xf41@'
p6498
tp6499
Rp6500
ag4
(g8
S'\x15,\x1f@'
p6501
tp6502
Rp6503
ag4
(g8
S'u\xd1 @'
p6504
tp6505
Rp6506
ag4
(g8
S'\xba\xfa*@'
p6507
tp6508
Rp6509
ag4
(g8
S'\xf148B'
p6510
tp6511
Rp6512
ag4
(g8
S'\xf148B'
p6513
tp6514
Rp6515
ag4
(g8
S'S`$@'
p6516
tp6517
Rp6518
ag4
(g8
S'\xfa?-@'
p6519
tp6520
Rp6521
ag4
(g8
S'\xc8\x02\xab>'
p6522
tp6523
Rp6524
ag4
(g8
S'u\x1e\x9c>'
p6525
tp6526
Rp6527
ag4
(g8
S'\xdaw\x81?'
p6528
tp6529
Rp6530
ag4
(g8
S"\xe6'v?"
p6531
tp6532
Rp6533
ag4
(g8
S'\x92\x14x?'
p6534
tp6535
Rp6536
ag4
(g8
S"'\xe2\x10@"
p6537
tp6538
Rp6539
ag4
(g8
S'L|\x97?'
p6540
tp6541
Rp6542
ag4
(g8
S'#\xd6\xaa?'
p6543
tp6544
Rp6545
ag4
(g8
S'\xf9\x0f?@'
p6546
tp6547
Rp6548
ag4
(g8
S'y]\xb0@'
p6549
tp6550
Rp6551
ag4
(g8
S'\x7f]\xe3?'
p6552
tp6553
Rp6554
ag4
(g8
S'\t\xdd\xa2?'
p6555
tp6556
Rp6557
ag4
(g8
S'qr\x9f?'
p6558
tp6559
Rp6560
ag4
(g8
S'\xcct\xeb?'
p6561
tp6562
Rp6563
ag4
(g8
S'\x8cn\xaa?'
p6564
tp6565
Rp6566
ag4
(g8
S'\xcb\xcc\xca?'
p6567
tp6568
Rp6569
ag4
(g8
S'\xe6\xc6\xba?'
p6570
tp6571
Rp6572
ag4
(g8
S',\xce\x02@'
p6573
tp6574
Rp6575
ag4
(g8
S'\xa5q4@'
p6576
tp6577
Rp6578
ag4
(g8
S'L\xdc#@'
p6579
tp6580
Rp6581
ag4
(g8
S'X\x94\x04@'
p6582
tp6583
Rp6584
ag4
(g8
S'\xba\xa5\x87?'
p6585
tp6586
Rp6587
ag4
(g8
S'n5\x1f@'
p6588
tp6589
Rp6590
ag4
(g8
S'G\xd8\x94@'
p6591
tp6592
Rp6593
ag4
(g8
S'\xb3\x92\xde?'
p6594
tp6595
Rp6596
ag4
(g8
S"'<\x08@"
p6597
tp6598
Rp6599
ag4
(g8
S'\x969\xb2>'
p6600
tp6601
Rp6602
ag4
(g8
S't%\xa4>'
p6603
tp6604
Rp6605
ag4
(g8
S'\xe9Z\xfb?'
p6606
tp6607
Rp6608
ag4
(g8
S'\x98r\xaa@'
p6609
tp6610
Rp6611
ag4
(g8
S'd\xb8\x03@'
p6612
tp6613
Rp6614
ag4
(g8
S'\xcdyY?'
p6615
tp6616
Rp6617
ag4
(g8
S'Ml\x8a@'
p6618
tp6619
Rp6620
ag4
(g8
S'\xae\x9a\xb8@'
p6621
tp6622
Rp6623
ag4
(g8
S'\x99\x08\x00@'
p6624
tp6625
Rp6626
ag4
(g8
S'\xa6d\x17@'
p6627
tp6628
Rp6629
ag4
(g8
S'b\x80\x07@'
p6630
tp6631
Rp6632
ag4
(g8
S'zF\x9a?'
p6633
tp6634
Rp6635
aa(lp6636
g331
ag331
ag331
ag331
ag331
ag331
ag331
ag331
ag331
ag331
ag331
ag331
ag331
ag331
ag331
ag331
ag331
ag331
ag331
ag331
ag331
ag331
ag331
ag331
ag331
ag331
ag331
ag331
ag331
ag331
ag331
ag331
ag331
ag331
ag334
ag334
ag331
ag331
ag331
ag331
ag331
ag331
ag331
ag331
ag331
ag331
ag331
ag331
ag331
ag331
ag331
ag331
ag331
ag331
ag331
ag331
ag331
ag331
ag331
ag331
ag331
ag331
ag331
ag331
ag331
ag331
ag331
ag331
ag331
ag331
ag331
ag331
ag331
ag331
ag331
ag331
aaa(lp6637
(lp6638
g4
(g8
S'T^\xa2?'
p6639
tp6640
Rp6641
ag4
(g8
S'\\x7?'
p6642
tp6643
Rp6644
ag4
(g8
S'\xf148B'
p6645
tp6646
Rp6647
ag4
(g8
S'\xf148B'
p6648
tp6649
Rp6650
ag4
(g8
S'\\u\x08@'
p6651
tp6652
Rp6653
ag4
(g8
S'o\x16\xc6?'
p6654
tp6655
Rp6656
ag4
(g8
S'\x1e|"@'
p6657
tp6658
Rp6659
ag4
(g8
S'\x14\x9c\x89?'
p6660
tp6661
Rp6662
ag4
(g8
S'2\xb4\xee?'
p6663
tp6664
Rp6665
ag4
(g8
S'\x18#\x18@'
p6666
tp6667
Rp6668
ag4
(g8
S'\xa9\xc1\x8b@'
p6669
tp6670
Rp6671
ag4
(g8
S".Q'@"
p6672
tp6673
Rp6674
ag4
(g8
S'\x9a\xbc\x82@'
p6675
tp6676
Rp6677
ag4
(g8
S'\xb8W\xd9@'
p6678
tp6679
Rp6680
ag4
(g8
S'\xa0\x85\xb5@'
p6681
tp6682
Rp6683
ag4
(g8
S'\xd9\xca\xb2@'
p6684
tp6685
Rp6686
ag4
(g8
S'e\xe1\x84?'
p6687
tp6688
Rp6689
ag4
(g8
S'\xb71\x9c?'
p6690
tp6691
Rp6692
ag4
(g8
S'\xba\xb6\xf8?'
p6693
tp6694
Rp6695
ag4
(g8
S'\x9e\xe1\xed?'
p6696
tp6697
Rp6698
ag4
(g8
S'\xd4@\x1e@'
p6699
tp6700
Rp6701
ag4
(g8
S'\xe8\x1b\xfc?'
p6702
tp6703
Rp6704
ag4
(g8
S'\x03\xe7\xab?'
p6705
tp6706
Rp6707
ag4
(g8
S',]\xc1?'
p6708
tp6709
Rp6710
ag4
(g8
S'\x00\xad\xc6?'
p6711
tp6712
Rp6713
ag4
(g8
S'\xb4\x81\x97?'
p6714
tp6715
Rp6716
ag4
(g8
S'\xb3\x9e\x93@'
p6717
tp6718
Rp6719
ag4
(g8
S'eW\x81@'
p6720
tp6721
Rp6722
ag4
(g8
S'\r;\x07?'
p6723
tp6724
Rp6725
ag4
(g8
S'<N\xd2?'
p6726
tp6727
Rp6728
ag4
(g8
S'\t\xe1/@'
p6729
tp6730
Rp6731
ag4
(g8
S'\x85\xd9\x19@'
p6732
tp6733
Rp6734
ag4
(g8
S'\xfa\xb9\x1e@'
p6735
tp6736
Rp6737
ag4
(g8
S'\xc6\x07%@'
p6738
tp6739
Rp6740
ag4
(g8
S'\xf148B'
p6741
tp6742
Rp6743
ag4
(g8
S'\xf148B'
p6744
tp6745
Rp6746
ag4
(g8
S']P#@'
p6747
tp6748
Rp6749
ag4
(g8
S'\xdc\xf1+@'
p6750
tp6751
Rp6752
ag4
(g8
S'#\xb2\xa8>'
p6753
tp6754
Rp6755
ag4
(g8
S'h=\x9b>'
p6756
tp6757
Rp6758
ag4
(g8
S'R\xd0\x7f?'
p6759
tp6760
Rp6761
ag4
(g8
S'\xb7\xc2h?'
p6762
tp6763
Rp6764
ag4
(g8
S'\x92"{?'
p6765
tp6766
Rp6767
ag4
(g8
S'&\n\x11@'
p6768
tp6769
Rp6770
ag4
(g8
S'W\x97\x96?'
p6771
tp6772
Rp6773
ag4
(g8
S'\xe2\x0f\xa6?'
p6774
tp6775
Rp6776
ag4
(g8
S'\xe6e8@'
p6777
tp6778
Rp6779
ag4
(g8
S'\xb4\xaa\xaf@'
p6780
tp6781
Rp6782
ag4
(g8
S'\x83\xc8\xda?'
p6783
tp6784
Rp6785
ag4
(g8
S'\x18\xbb\xa1?'
p6786
tp6787
Rp6788
ag4
(g8
S'(k\x9c?'
p6789
tp6790
Rp6791
ag4
(g8
S'\xfci\xea?'
p6792
tp6793
Rp6794
ag4
(g8
S'XD\xab?'
p6795
tp6796
Rp6797
ag4
(g8
S'\xc5T\xc6?'
p6798
tp6799
Rp6800
ag4
(g8
S'\x07\xb1\xaf?'
p6801
tp6802
Rp6803
ag4
(g8
S'p\xba\xfc?'
p6804
tp6805
Rp6806
ag4
(g8
S'\x94c2@'
p6807
tp6808
Rp6809
ag4
(g8
S'd\x1c\x1e@'
p6810
tp6811
Rp6812
ag4
(g8
S'\x90\x98\x04@'
p6813
tp6814
Rp6815
ag4
(g8
S'\x93\x9e\x86?'
p6816
tp6817
Rp6818
ag4
(g8
S'\x19\xc1\x1d@'
p6819
tp6820
Rp6821
ag4
(g8
S'\xe8\xfe\x94@'
p6822
tp6823
Rp6824
ag4
(g8
S'1\xe1\xd6?'
p6825
tp6826
Rp6827
ag4
(g8
S'\xc9\xa1\x07@'
p6828
tp6829
Rp6830
ag4
(g8
S'O\xc0\xaf>'
p6831
tp6832
Rp6833
ag4
(g8
S'\xd1\xd7\xa3>'
p6834
tp6835
Rp6836
ag4
(g8
S'\x10\xf5\xf8?'
p6837
tp6838
Rp6839
ag4
(g8
S'\xcf\xd2\xac@'
p6840
tp6841
Rp6842
ag4
(g8
S"\x9f'\x03@"
p6843
tp6844
Rp6845
ag4
(g8
S':\xaeW?'
p6846
tp6847
Rp6848
ag4
(g8
S'P\xfd\x8a@'
p6849
tp6850
Rp6851
ag4
(g8
S')\x17\xba@'
p6852
tp6853
Rp6854
ag4
(g8
S'w\x84\xf6?'
p6855
tp6856
Rp6857
ag4
(g8
S'w\xac\x0f@'
p6858
tp6859
Rp6860
ag4
(g8
S'\xe0N\x04@'
p6861
tp6862
Rp6863
ag4
(g8
S'\xbbA\x9a?'
p6864
tp6865
Rp6866
aa(lp6867
g331
ag331
ag331
ag331
ag331
ag331
ag331
ag331
ag331
ag331
ag331
ag331
ag331
ag331
ag331
ag331
ag331
ag331
ag331
ag331
ag331
ag331
ag331
ag331
ag331
ag331
ag331
ag331
ag331
ag331
ag331
ag331
ag331
ag331
ag334
ag334
ag331
ag331
ag331
ag331
ag331
ag331
ag331
ag331
ag331
ag331
ag331
ag331
ag331
ag331
ag331
ag331
ag331
ag331
ag331
ag331
ag331
ag331
ag331
ag331
ag331
ag331
ag331
ag331
ag331
ag331
ag331
ag331
ag331
ag331
ag331
ag331
ag331
ag331
ag331
ag331
aaa(lp6868
(lp6869
g4
(g8
S'f\xef\xa2?'
p6870
tp6871
Rp6872
ag4
(g8
S'\xaf\xea3?'
p6873
tp6874
Rp6875
ag4
(g8
S'\xf148B'
p6876
tp6877
Rp6878
ag4
(g8
S'\xf148B'
p6879
tp6880
Rp6881
ag4
(g8
S'\xe3\x89\x03@'
p6882
tp6883
Rp6884
ag4
(g8
S'\xe3\xa5\xb9?'
p6885
tp6886
Rp6887
ag4
(g8
S'8\xee\x1c@'
p6888
tp6889
Rp6890
ag4
(g8
S'8\xa6\x82?'
p6891
tp6892
Rp6893
ag4
(g8
S'\xd4\xee\xe8?'
p6894
tp6895
Rp6896
ag4
(g8
S'\xde\x97\x17@'
p6897
tp6898
Rp6899
ag4
(g8
S'|$\x8a@'
p6900
tp6901
Rp6902
ag4
(g8
S'&\xb0!@'
p6903
tp6904
Rp6905
ag4
(g8
S'\x85\xc0\x82@'
p6906
tp6907
Rp6908
ag4
(g8
S'\x1d\xc4\xdd@'
p6909
tp6910
Rp6911
ag4
(g8
S'\x0e\xf8\xb3@'
p6912
tp6913
Rp6914
ag4
(g8
S'\xbb?\xb9@'
p6915
tp6916
Rp6917
ag4
(g8
S'\xd4\xe0\x85?'
p6918
tp6919
Rp6920
ag4
(g8
S'{\xac\x9a?'
p6921
tp6922
Rp6923
ag4
(g8
S'\xcd\xff\xf3?'
p6924
tp6925
Rp6926
ag4
(g8
S'\xc1\xc6\xec?'
p6927
tp6928
Rp6929
ag4
(g8
S'F\x12 @'
p6930
tp6931
Rp6932
ag4
(g8
S'\xbe\x15\xfb?'
p6933
tp6934
Rp6935
ag4
(g8
S'\xf2\xeb\xa2?'
p6936
tp6937
Rp6938
ag4
(g8
S'\xa4\x0f\xb4?'
p6939
tp6940
Rp6941
ag4
(g8
S'fa\xc7?'
p6942
tp6943
Rp6944
ag4
(g8
S'Hn\x95?'
p6945
tp6946
Rp6947
ag4
(g8
S'\xd2J\x95@'
p6948
tp6949
Rp6950
ag4
(g8
S'\x0f\x9b\x82@'
p6951
tp6952
Rp6953
ag4
(g8
S'\x94\xd8\x06?'
p6954
tp6955
Rp6956
ag4
(g8
S'2R\xd1?'
p6957
tp6958
Rp6959
ag4
(g8
S'\x9a\xbb-@'
p6960
tp6961
Rp6962
ag4
(g8
S'\x02\xdf\x14@'
p6963
tp6964
Rp6965
ag4
(g8
S'\xd6\x98\x1c@'
p6966
tp6967
Rp6968
ag4
(g8
S'#U\x1f@'
p6969
tp6970
Rp6971
ag4
(g8
S'\xf148B'
p6972
tp6973
Rp6974
ag4
(g8
S'\xf148B'
p6975
tp6976
Rp6977
ag4
(g8
S')>"@'
p6978
tp6979
Rp6980
ag4
(g8
S'\xcf\xbc*@'
p6981
tp6982
Rp6983
ag4
(g8
S'\x13\x15\xa6>'
p6984
tp6985
Rp6986
ag4
(g8
S'\xb5_\x9a>'
p6987
tp6988
Rp6989
ag4
(g8
S'\x10\x1d}?'
p6990
tp6991
Rp6992
ag4
(g8
S'.x\\?'
p6993
tp6994
Rp6995
ag4
(g8
S'\x8a\x05~?'
p6996
tp6997
Rp6998
ag4
(g8
S'\x1ae\x11@'
p6999
tp7000
Rp7001
ag4
(g8
S'\xb8\xfb\x95?'
p7002
tp7003
Rp7004
ag4
(g8
S'c\xbb\xa1?'
p7005
tp7006
Rp7007
ag4
(g8
S'\x7f\x7f1@'
p7008
tp7009
Rp7010
ag4
(g8
S'\x1a\xe0\xae@'
p7011
tp7012
Rp7013
ag4
(g8
S'0\xcc\xd1?'
p7014
tp7015
Rp7016
ag4
(g8
S'\xe7\x93\xa0?'
p7017
tp7018
Rp7019
ag4
(g8
S'\xda\x15\x99?'
p7020
tp7021
Rp7022
ag4
(g8
S'\xa9|\xe9?'
p7023
tp7024
Rp7025
ag4
(g8
S'\x12g\xac?'
p7026
tp7027
Rp7028
ag4
(g8
S'\xeaE\xc2?'
p7029
tp7030
Rp7031
ag4
(g8
S'\xb6`\xa5?'
p7032
tp7033
Rp7034
ag4
(g8
S'\x83\x95\xf4?'
p7035
tp7036
Rp7037
ag4
(g8
S'vC0@'
p7038
tp7039
Rp7040
ag4
(g8
S')\xb3\x18@'
p7041
tp7042
Rp7043
ag4
(g8
S'\xb5\xd1\x04@'
p7044
tp7045
Rp7046
ag4
(g8
S'\xc6\xc9\x85?'
p7047
tp7048
Rp7049
ag4
(g8
S'0=\x1c@'
p7050
tp7051
Rp7052
ag4
(g8
S'\xbcT\x95@'
p7053
tp7054
Rp7055
ag4
(g8
S'R\xf1\xce?'
p7056
tp7057
Rp7058
ag4
(g8
S'\xbd\x13\x07@'
p7059
tp7060
Rp7061
ag4
(g8
S'\xf1\xed\xac>'
p7062
tp7063
Rp7064
ag4
(g8
S'\xea\x90\xa3>'
p7065
tp7066
Rp7067
ag4
(g8
S'\x04\x82\xf6?'
p7068
tp7069
Rp7070
ag4
(g8
S'\xeb\xa2\xaf@'
p7071
tp7072
Rp7073
ag4
(g8
S'0\xb6\x02@'
p7074
tp7075
Rp7076
ag4
(g8
S'!\xceU?'
p7077
tp7078
Rp7079
ag4
(g8
S'\xa8\xaf\x8b@'
p7080
tp7081
Rp7082
ag4
(g8
S'\x00\xaf\xbb@'
p7083
tp7084
Rp7085
ag4
(g8
S'\x83\xbf\xed?'
p7086
tp7087
Rp7088
ag4
(g8
S'\x1b<\x08@'
p7089
tp7090
Rp7091
ag4
(g8
S'\xea\xae\x00@'
p7092
tp7093
Rp7094
ag4
(g8
S'\xe4%\x9a?'
p7095
tp7096
Rp7097
aa(lp7098
g331
ag331
ag331
ag331
ag331
ag331
ag331
ag331
ag331
ag331
ag331
ag331
ag331
ag331
ag331
ag331
ag331
ag331
ag331
ag331
ag331
ag331
ag331
ag331
ag331
ag331
ag331
ag331
ag331
ag331
ag331
ag331
ag331
ag331
ag334
ag334
ag331
ag331
ag331
ag331
ag331
ag331
ag331
ag331
ag331
ag331
ag331
ag331
ag331
ag331
ag331
ag331
ag331
ag331
ag331
ag331
ag331
ag331
ag331
ag331
ag331
ag331
ag331
ag331
ag331
ag331
ag331
ag331
ag331
ag331
ag331
ag331
ag331
ag331
ag331
ag331
aaa(lp7099
(lp7100
g4
(g8
S'\xb7-\xa3?'
p7101
tp7102
Rp7103
ag4
(g8
S'(T0?'
p7104
tp7105
Rp7106
ag4
(g8
S'\xf148B'
p7107
tp7108
Rp7109
ag4
(g8
S'\xf148B'
p7110
tp7111
Rp7112
ag4
(g8
S'>1\xfe?'
p7113
tp7114
Rp7115
ag4
(g8
S'r\x8c\xad?'
p7116
tp7117
Rp7118
ag4
(g8
S'\x82\xe1\x17@'
p7119
tp7120
Rp7121
ag4
(g8
S'\xc69x?'
p7122
tp7123
Rp7124
ag4
(g8
S'F\x81\xe2?'
p7125
tp7126
Rp7127
ag4
(g8
S'\x02\x08\x17@'
p7128
tp7129
Rp7130
ag4
(g8
S'+u\x88@'
p7131
tp7132
Rp7133
ag4
(g8
S'{d\x1c@'
p7134
tp7135
Rp7136
ag4
(g8
S'\x85\xd3\x82@'
p7137
tp7138
Rp7139
ag4
(g8
S'\xe5\x01\xe3@'
p7140
tp7141
Rp7142
ag4
(g8
S'\xf3\x83\xb2@'
p7143
tp7144
Rp7145
ag4
(g8
S'_h\xc0@'
p7146
tp7147
Rp7148
ag4
(g8
S'\xa0\xd5\x86?'
p7149
tp7150
Rp7151
ag4
(g8
S'\x06\x05\x99?'
p7152
tp7153
Rp7154
ag4
(g8
S'\xbe\x96\xee?'
p7155
tp7156
Rp7157
ag4
(g8
S'\x8b\xac\xeb?'
p7158
tp7159
Rp7160
ag4
(g8
S'\xa3 "@'
p7161
tp7162
Rp7163
ag4
(g8
S'l\x10\xfa?'
p7164
tp7165
Rp7166
ag4
(g8
S'D\xbe\x9a?'
p7167
tp7168
Rp7169
ag4
(g8
S'\xf39\xa7?'
p7170
tp7171
Rp7172
ag4
(g8
S'\xdb@\xc8?'
p7173
tp7174
Rp7175
ag4
(g8
S'\xb5_\x93?'
p7176
tp7177
Rp7178
ag4
(g8
S'b\x0e\x97@'
p7179
tp7180
Rp7181
ag4
(g8
S'Y\xf3\x83@'
p7182
tp7183
Rp7184
ag4
(g8
S'\x03]\x06?'
p7185
tp7186
Rp7187
ag4
(g8
S'an\xd0?'
p7188
tp7189
Rp7190
ag4
(g8
S'h\x82+@'
p7191
tp7192
Rp7193
ag4
(g8
S'\xf3C\x10@'
p7194
tp7195
Rp7196
ag4
(g8
S'\xb1k\x1a@'
p7197
tp7198
Rp7199
ag4
(g8
S'k\xf1\x19@'
p7200
tp7201
Rp7202
ag4
(g8
S'\xf148B'
p7203
tp7204
Rp7205
ag4
(g8
S'\xf148B'
p7206
tp7207
Rp7208
ag4
(g8
S'\xdc&!@'
p7209
tp7210
Rp7211
ag4
(g8
S'X\xa2)@'
p7212
tp7213
Rp7214
ag4
(g8
S'\xae\x1f\xa3>'
p7215
tp7216
Rp7217
ag4
(g8
S'(\x85\x99>'
p7218
tp7219
Rp7220
ag4
(g8
S'Z\xc9z?'
p7221
tp7222
Rp7223
ag4
(g8
S'\x817Q?'
p7224
tp7225
Rp7226
ag4
(g8
S'\x02S\x80?'
p7227
tp7228
Rp7229
ag4
(g8
S'\x02\xef\x11@'
p7230
tp7231
Rp7232
ag4
(g8
S'\xd2\x9b\x95?'
p7233
tp7234
Rp7235
ag4
(g8
S'\x1d\xc9\x9d?'
p7236
tp7237
Rp7238
ag4
(g8
S'Je*@'
p7239
tp7240
Rp7241
ag4
(g8
S'\x11\xf8\xad@'
p7242
tp7243
Rp7244
ag4
(g8
S'\x86x\xc8?'
p7245
tp7246
Rp7247
ag4
(g8
S'\x1df\x9f?'
p7248
tp7249
Rp7250
ag4
(g8
S'\xf1n\x95?'
p7251
tp7252
Rp7253
ag4
(g8
S'\x91\xae\xe8?'
p7254
tp7255
Rp7256
ag4
(g8
S'\xd2\xd1\xad?'
p7257
tp7258
Rp7259
ag4
(g8
S'\xde\x9a\xbe?'
p7260
tp7261
Rp7262
ag4
(g8
S'\x8b\xef\x9b?'
p7263
tp7264
Rp7265
ag4
(g8
S'$>\xed?'
p7266
tp7267
Rp7268
ag4
(g8
S';\x0f.@'
p7269
tp7270
Rp7271
ag4
(g8
S'\xd9\xaa\x13@'
p7272
tp7273
Rp7274
ag4
(g8
S'\xb6:\x05@'
p7275
tp7276
Rp7277
ag4
(g8
S'\x86\x1a\x85?'
p7278
tp7279
Rp7280
ag4
(g8
S'\xea\xa7\x1a@'
p7281
tp7282
Rp7283
ag4
(g8
S'\x1c\xde\x95@'
p7284
tp7285
Rp7286
ag4
(g8
S'\x88\xd5\xc6?'
p7287
tp7288
Rp7289
ag4
(g8
S'|\x93\x06@'
p7290
tp7291
Rp7292
ag4
(g8
S'y\xb4\xa9>'
p7293
tp7294
Rp7295
ag4
(g8
S'0R\xa3>'
p7296
tp7297
Rp7298
ag4
(g8
S'\xa7\xfc\xf3?'
p7299
tp7300
Rp7301
ag4
(g8
S'\xf5\xe1\xb2@'
p7302
tp7303
Rp7304
ag4
(g8
S'\xd2d\x02@'
p7305
tp7306
Rp7307
ag4
(g8
S'\xc3\xd6S?'
p7308
tp7309
Rp7310
ag4
(g8
S'\x9a\x8a\x8c@'
p7311
tp7312
Rp7313
ag4
(g8
S'ob\xbd@'
p7314
tp7315
Rp7316
ag4
(g8
S'z\xdb\xe5?'
p7317
tp7318
Rp7319
ag4
(g8
S'\xc93\x01@'
p7320
tp7321
Rp7322
ag4
(g8
S'\xd4D\xf9?'
p7323
tp7324
Rp7325
ag4
(g8
S'\xd4\xf0\x99?'
p7326
tp7327
Rp7328
aa(lp7329
g331
ag331
ag331
ag331
ag331
ag331
ag331
ag331
ag331
ag331
ag331
ag331
ag331
ag331
ag331
ag331
ag331
ag331
ag331
ag331
ag331
ag331
ag331
ag331
ag331
ag331
ag331
ag331
ag331
ag331
ag331
ag331
ag331
ag331
ag334
ag334
ag331
ag331
ag331
ag331
ag331
ag331
ag331
ag331
ag331
ag331
ag331
ag331
ag331
ag331
ag331
ag331
ag331
ag331
ag331
ag331
ag331
ag331
ag331
ag331
ag331
ag331
ag331
ag331
ag331
ag331
ag331
ag331
ag331
ag331
ag331
ag331
ag331
ag331
ag331
ag331
aaa(lp7330
(lp7331
g4
(g8
S'\xdd\x0b\xa3?'
p7332
tp7333
Rp7334
ag4
(g8
S'\x87\xb1,?'
p7335
tp7336
Rp7337
ag4
(g8
S'\xf148B'
p7338
tp7339
Rp7340
ag4
(g8
S'\xf148B'
p7341
tp7342
Rp7343
ag4
(g8
S'V\\\xf6?'
p7344
tp7345
Rp7346
ag4
(g8
S'\xba\xf0\xa1?'
p7347
tp7348
Rp7349
ag4
(g8
S'\x05d\x13@'
p7350
tp7351
Rp7352
ag4
(g8
S'",l?'
p7353
tp7354
Rp7355
ag4
(g8
S'\xdfw\xdb?'
p7356
tp7357
Rp7358
ag4
(g8
S'\xf0r\x16@'
p7359
tp7360
Rp7361
ag4
(g8
S'\xc8\xb1\x86@'
p7362
tp7363
Rp7364
ag4
(g8
S'\x89u\x17@'
p7365
tp7366
Rp7367
ag4
(g8
S'\x9d\xe9\x82@'
p7368
tp7369
Rp7370
ag4
(g8
S'z\x13\xe9@'
p7371
tp7372
Rp7373
ag4
(g8
S'\xee+\xb1@'
p7374
tp7375
Rp7376
ag4
(g8
S'\xfeA\xc8@'
p7377
tp7378
Rp7379
ag4
(g8
S'\xa0\xb8\x87?'
p7380
tp7381
Rp7382
ag4
(g8
S'\x8c8\x97?'
p7383
tp7384
Rp7385
ag4
(g8
S'Cy\xe8?'
p7386
tp7387
Rp7388
ag4
(g8
S'"\x93\xea?'
p7389
tp7390
Rp7391
ag4
(g8
S'\xa8p$@'
p7392
tp7393
Rp7394
ag4
(g8
S'\xd0\x0c\xf9?'
p7395
tp7396
Rp7397
ag4
(g8
S'Dr\x93?'
p7398
tp7399
Rp7400
ag4
(g8
S'\xaa\x15\x9b?'
p7401
tp7402
Rp7403
ag4
(g8
S'MO\xc9?'
p7404
tp7405
Rp7406
ag4
(g8
S'zS\x91?'
p7407
tp7408
Rp7409
ag4
(g8
S'\xf7\xd1\x98@'
p7410
tp7411
Rp7412
ag4
(g8
S'\xe4^\x85@'
p7413
tp7414
Rp7415
ag4
(g8
S'\xd6\xc8\x05?'
p7416
tp7417
Rp7418
ag4
(g8
S'U\xa5\xcf?'
p7419
tp7420
Rp7421
ag4
(g8
S'c5)@'
p7422
tp7423
Rp7424
ag4
(g8
S'(\x0b\x0c@'
p7425
tp7426
Rp7427
ag4
(g8
S'\xaf1\x18@'
p7428
tp7429
Rp7430
ag4
(g8
S'\xa1\xe6\x14@'
p7431
tp7432
Rp7433
ag4
(g8
S'\xf148B'
p7434
tp7435
Rp7436
ag4
(g8
S'\xf148B'
p7437
tp7438
Rp7439
ag4
(g8
S'y\t @'
p7440
tp7441
Rp7442
ag4
(g8
S'\x8e\xa2(@'
p7443
tp7444
Rp7445
ag4
(g8
S'\xba\xc5\x9f>'
p7446
tp7447
Rp7448
ag4
(g8
S'\x0e\xad\x98>'
p7449
tp7450
Rp7451
ag4
(g8
S'\x8e\xc4x?'
p7452
tp7453
Rp7454
ag4
(g8
S'\xb4\xeeF?'
p7455
tp7456
Rp7457
ag4
(g8
S'\xc9y\x81?'
p7458
tp7459
Rp7460
ag4
(g8
S'\xe9\xa2\x12@'
p7461
tp7462
Rp7463
ag4
(g8
S')d\x95?'
p7464
tp7465
Rp7466
ag4
(g8
S'S)\x9a?'
p7467
tp7468
Rp7469
ag4
(g8
S'\xec##@'
p7470
tp7471
Rp7472
ag4
(g8
S'\xe1\xed\xac@'
p7473
tp7474
Rp7475
ag4
(g8
S'\x8d\xe5\xbe?'
p7476
tp7477
Rp7478
ag4
(g8
S'\x9e1\x9e?'
p7479
tp7480
Rp7481
ag4
(g8
S'\xc2u\x91?'
p7482
tp7483
Rp7484
ag4
(g8
S'\xb3\x01\xe8?'
p7485
tp7486
Rp7487
ag4
(g8
S'\x17y\xaf?'
p7488
tp7489
Rp7490
ag4
(g8
S'|M\xbb?'
p7491
tp7492
Rp7493
ag4
(g8
S'\xb0n\x93?'
p7494
tp7495
Rp7496
ag4
(g8
S'W\xb7\xe6?'
p7497
tp7498
Rp7499
ag4
(g8
S'\x91\xc6+@'
p7500
tp7501
Rp7502
ag4
(g8
S'\xc3\x08\x0f@'
p7503
tp7504
Rp7505
ag4
(g8
S'\xfa\xca\x05@'
p7506
tp7507
Rp7508
ag4
(g8
S'\xfe\x83\x84?'
p7509
tp7510
Rp7511
ag4
(g8
S'v\x00\x19@'
p7512
tp7513
Rp7514
ag4
(g8
S'E\x9e\x96@'
p7515
tp7516
Rp7517
ag4
(g8
S'I\xa6\xbe?'
p7518
tp7519
Rp7520
ag4
(g8
S'\x0e#\x06@'
p7521
tp7522
Rp7523
ag4
(g8
S'\x81\x05\xa6>'
p7524
tp7525
Rp7526
ag4
(g8
S'\xe3\x1c\xa3>'
p7527
tp7528
Rp7529
ag4
(g8
S'\x91c\xf1?'
p7530
tp7531
Rp7532
ag4
(g8
S'R\x8c\xb6@'
p7533
tp7534
Rp7535
ag4
(g8
S'\xd83\x02@'
p7536
tp7537
Rp7538
ag4
(g8
S'P\xc6Q?'
p7539
tp7540
Rp7541
ag4
(g8
S'\xb0\x95\x8d@'
p7542
tp7543
Rp7544
ag4
(g8
S'\x871\xbf@'
p7545
tp7546
Rp7547
ag4
(g8
S'\xb6\xe9\xde?'
p7548
tp7549
Rp7550
ag4
(g8
S'mY\xf5?'
p7551
tp7552
Rp7553
ag4
(g8
S'\xa7f\xf0?'
p7554
tp7555
Rp7556
ag4
(g8
S'e\xa0\x99?'
p7557
tp7558
Rp7559
aa(lp7560
g331
ag331
ag331
ag331
ag331
ag331
ag331
ag331
ag331
ag331
ag331
ag331
ag331
ag331
ag331
ag331
ag331
ag331
ag331
ag331
ag331
ag331
ag331
ag331
ag331
ag331
ag331
ag331
ag331
ag331
ag331
ag331
ag331
ag331
ag334
ag334
ag331
ag331
ag331
ag331
ag331
ag331
ag331
ag331
ag331
ag331
ag331
ag331
ag331
ag331
ag331
ag331
ag331
ag331
ag331
ag331
ag331
ag331
ag331
ag331
ag331
ag331
ag331
ag331
ag331
ag331
ag331
ag331
ag331
ag331
ag331
ag331
ag331
ag331
ag331
ag331
aaa(lp7561
(lp7562
g4
(g8
S'\x05\x85\xa2?'
p7563
tp7564
Rp7565
ag4
(g8
S'\xaa\xff(?'
p7566
tp7567
Rp7568
ag4
(g8
S'\xf148B'
p7569
tp7570
Rp7571
ag4
(g8
S'\xf148B'
p7572
tp7573
Rp7574
ag4
(g8
S'}\xaa\xef?'
p7575
tp7576
Rp7577
ag4
(g8
S'\xb1\xf6\x96?'
p7578
tp7579
Rp7580
ag4
(g8
S'\x7f\x80\x0f@'
p7581
tp7582
Rp7583
ag4
(g8
S'\xf4=a?'
p7584
tp7585
Rp7586
ag4
(g8
S'!\xea\xd3?'
p7587
tp7588
Rp7589
ag4
(g8
S'>\xd7\x15@'
p7590
tp7591
Rp7592
ag4
(g8
S'\x05\xd9\x84@'
p7593
tp7594
Rp7595
ag4
(g8
S'A\xe6\x12@'
p7596
tp7597
Rp7598
ag4
(g8
S'<\xf6\x82@'
p7599
tp7600
Rp7601
ag4
(g8
S'~\xf3\xef@'
p7602
tp7603
Rp7604
ag4
(g8
S'\xe8\xf3\xaf@'
p7605
tp7606
Rp7607
ag4
(g8
S'b\xc3\xd0@'
p7608
tp7609
Rp7610
ag4
(g8
S'8\x82\x88?'
p7611
tp7612
Rp7613
ag4
(g8
S'\xf5D\x95?'
p7614
tp7615
Rp7616
ag4
(g8
S'$\xaf\xe1?'
p7617
tp7618
Rp7619
ag4
(g8
S'jw\xe9?'
p7620
tp7621
Rp7622
ag4
(g8
S"2\x05'@"
p7623
tp7624
Rp7625
ag4
(g8
S'T\n\xf8?'
p7626
tp7627
Rp7628
ag4
(g8
S'\xca\x16\x8d?'
p7629
tp7630
Rp7631
ag4
(g8
S'r\xcd\x8f?'
p7632
tp7633
Rp7634
ag4
(g8
S'\xe4\x8f\xca?'
p7635
tp7636
Rp7637
ag4
(g8
S'XH\x8f?'
p7638
tp7639
Rp7640
ag4
(g8
S'E|\x9a@'
p7641
tp7642
Rp7643
ag4
(g8
S'\x1c\xdd\x86@'
p7644
tp7645
Rp7646
ag4
(g8
S'k\x1d\x05?'
p7647
tp7648
Rp7649
ag4
(g8
S'\xcc\xf6\xce?'
p7650
tp7651
Rp7652
ag4
(g8
S'$\xd5&@'
p7653
tp7654
Rp7655
ag4
(g8
S'a3\x08@'
p7656
tp7657
Rp7658
ag4
(g8
S'5\xeb\x15@'
p7659
tp7660
Rp7661
ag4
(g8
S'=:\x10@'
p7662
tp7663
Rp7664
ag4
(g8
S'\xf148B'
p7665
tp7666
Rp7667
ag4
(g8
S'\xf148B'
p7668
tp7669
Rp7670
ag4
(g8
S'N\xe6\x1e@'
p7671
tp7672
Rp7673
ag4
(g8
S"\x9c\xbd'@"
p7674
tp7675
Rp7676
ag4
(g8
S'\xc5\xfc\x9b>'
p7677
tp7678
Rp7679
ag4
(g8
S'H\xd7\x97>'
p7680
tp7681
Rp7682
ag4
(g8
S'r\xf7v?'
p7683
tp7684
Rp7685
ag4
(g8
S'P\x8a=?'
p7686
tp7687
Rp7688
ag4
(g8
S'\xa2r\x82?'
p7689
tp7690
Rp7691
ag4
(g8
S'P{\x13@'
p7692
tp7693
Rp7694
ag4
(g8
S'\xf8;\x95?'
p7695
tp7696
Rp7697
ag4
(g8
S'\xe9\xcc\x96?'
p7698
tp7699
Rp7700
ag4
(g8
S'\x9d\xca\x1b@'
p7701
tp7702
Rp7703
ag4
(g8
S'\xf9\xbd\xab@'
p7704
tp7705
Rp7706
ag4
(g8
S'\x8b0\xb5?'
p7707
tp7708
Rp7709
ag4
(g8
S'-\xf7\x9c?'
p7710
tp7711
Rp7712
ag4
(g8
S'\x96,\x8d?'
p7713
tp7714
Rp7715
ag4
(g8
S'\xf8v\xe7?'
p7716
tp7717
Rp7718
ag4
(g8
S'/J\xb1?'
p7719
tp7720
Rp7721
ag4
(g8
S'\xcfV\xb8?'
p7722
tp7723
Rp7724
ag4
(g8
S'\xe7\xe7\x8b?'
p7725
tp7726
Rp7727
ag4
(g8
S'\x01\xf9\xe0?'
p7728
tp7729
Rp7730
ag4
(g8
S'\xdei)@'
p7731
tp7732
Rp7733
ag4
(g8
S'\xb3\xcd\n@'
p7734
tp7735
Rp7736
ag4
(g8
S'\xd6t\x06@'
p7737
tp7738
Rp7739
ag4
(g8
S'k\xfa\x83?'
p7740
tp7741
Rp7742
ag4
(g8
S'|F\x17@'
p7743
tp7744
Rp7745
ag4
(g8
S'\xf3\x97\x97@'
p7746
tp7747
Rp7748
ag4
(g8
S'J\x7f\xb6?'
p7749
tp7750
Rp7751
ag4
(g8
S'\x9d\xc4\x05@'
p7752
tp7753
Rp7754
ag4
(g8
S'<\xd4\xa1>'
p7755
tp7756
Rp7757
ag4
(g8
S'\x12\xf3\xa2>'
p7758
tp7759
Rp7760
ag4
(g8
S'\x8c\xb6\xee?'
p7761
tp7762
Rp7763
ag4
(g8
S'5\x9d\xba@'
p7764
tp7765
Rp7766
ag4
(g8
S'N#\x02@'
p7767
tp7768
Rp7769
ag4
(g8
S'`\x9cO?'
p7770
tp7771
Rp7772
ag4
(g8
S'\xee\xd8\x8e@'
p7773
tp7774
Rp7775
ag4
(g8
S'\x94\x1c\xc1@'
p7776
tp7777
Rp7778
ag4
(g8
S'\xce\xf5\xd8?'
p7779
tp7780
Rp7781
ag4
(g8
S'\x02p\xe9?'
p7782
tp7783
Rp7784
ag4
(g8
S'w\xe6\xe6?'
p7785
tp7786
Rp7787
ag4
(g8
S'}1\x99?'
p7788
tp7789
Rp7790
aa(lp7791
g331
ag331
ag331
ag331
ag331
ag331
ag331
ag331
ag331
ag331
ag331
ag331
ag331
ag331
ag331
ag331
ag331
ag331
ag331
ag331
ag331
ag331
ag331
ag331
ag331
ag331
ag331
ag331
ag331
ag331
ag331
ag331
ag331
ag331
ag334
ag334
ag331
ag331
ag331
ag331
ag331
ag331
ag331
ag331
ag331
ag331
ag331
ag331
ag331
ag331
ag331
ag331
ag331
ag331
ag331
ag331
ag331
ag331
ag331
ag331
ag331
ag331
ag331
ag331
ag331
ag331
ag331
ag331
ag331
ag331
ag331
ag331
ag331
ag331
ag331
ag331
aaaa.